	.file	"TestDialog.cpp"
	.section	.debug_abbrev,"",@progbits
.Ldebug_abbrev0:
	.section	.debug_info,"",@progbits
.Ldebug_info0:
	.section	.debug_line,"",@progbits
.Ldebug_line0:
	.text
.Ltext0:
	.section	.ctors,"aw",@progbits
	.align 4
	.long	_GLOBAL__I__ZN10TestDialog13sm_eventTableE
	.section	.text._ZNK12wxStringData7IsEmptyEv,"axG",@progbits,_ZNK12wxStringData7IsEmptyEv,comdat
	.align 2
	.weak	_ZNK12wxStringData7IsEmptyEv
	.type	_ZNK12wxStringData7IsEmptyEv, @function
_ZNK12wxStringData7IsEmptyEv:
.LFB1034:
	.file 1 "/usr/local/include/wx-2.8/wx/string.h"
	.loc 1 226 0
	pushl	%ebp
.LCFI0:
	movl	%esp, %ebp
.LCFI1:
	.loc 1 226 0
	movl	8(%ebp), %eax
	movl	(%eax), %eax
	cmpl	$-1, %eax
	sete	%al
	movzbl	%al, %eax
	popl	%ebp
	ret
.LFE1034:
	.size	_ZNK12wxStringData7IsEmptyEv, .-_ZNK12wxStringData7IsEmptyEv
.globl __gxx_personality_v0
	.section	.text._ZN12wxStringData4LockEv,"axG",@progbits,_ZN12wxStringData4LockEv,comdat
	.align 2
	.weak	_ZN12wxStringData4LockEv
	.type	_ZN12wxStringData4LockEv, @function
_ZN12wxStringData4LockEv:
.LFB1036:
	.loc 1 230 0
	pushl	%ebp
.LCFI2:
	movl	%esp, %ebp
.LCFI3:
	subl	$8, %esp
.LCFI4:
	.loc 1 230 0
	movl	8(%ebp), %eax
	movl	%eax, (%esp)
	call	_ZNK12wxStringData7IsEmptyEv
	xorl	$1, %eax
	testb	%al, %al
	je	.L6
	movl	8(%ebp), %eax
	movl	(%eax), %eax
	leal	1(%eax), %edx
	movl	8(%ebp), %eax
	movl	%edx, (%eax)
.L6:
	leave
	ret
.LFE1036:
	.size	_ZN12wxStringData4LockEv, .-_ZN12wxStringData4LockEv
	.section	.text._ZNK12wxStringBase13GetStringDataEv,"axG",@progbits,_ZNK12wxStringBase13GetStringDataEv,comdat
	.align 2
	.weak	_ZNK12wxStringBase13GetStringDataEv
	.type	_ZNK12wxStringBase13GetStringDataEv, @function
_ZNK12wxStringBase13GetStringDataEv:
.LFB1040:
	.loc 1 265 0
	pushl	%ebp
.LCFI5:
	movl	%esp, %ebp
.LCFI6:
	.loc 1 265 0
	movl	8(%ebp), %eax
	movl	(%eax), %eax
	subl	$12, %eax
	popl	%ebp
	ret
.LFE1040:
	.size	_ZNK12wxStringBase13GetStringDataEv, .-_ZNK12wxStringBase13GetStringDataEv
	.section	.text._ZN12wxStringBase4InitEv,"axG",@progbits,_ZN12wxStringBase4InitEv,comdat
	.align 2
	.weak	_ZN12wxStringBase4InitEv
	.type	_ZN12wxStringBase4InitEv, @function
_ZN12wxStringBase4InitEv:
.LFB1041:
	.loc 1 270 0
	pushl	%ebp
.LCFI7:
	movl	%esp, %ebp
.LCFI8:
	.loc 1 270 0
	movl	wxEmptyString, %edx
	movl	8(%ebp), %eax
	movl	%edx, (%eax)
	popl	%ebp
	ret
.LFE1041:
	.size	_ZN12wxStringBase4InitEv, .-_ZN12wxStringBase4InitEv
	.section	.text._ZNK12wxStringBase6lengthEv,"axG",@progbits,_ZNK12wxStringBase6lengthEv,comdat
	.align 2
	.weak	_ZNK12wxStringBase6lengthEv
	.type	_ZNK12wxStringBase6lengthEv, @function
_ZNK12wxStringBase6lengthEv:
.LFB1093:
	.loc 1 412 0
	pushl	%ebp
.LCFI9:
	movl	%esp, %ebp
.LCFI10:
	subl	$8, %esp
.LCFI11:
	.loc 1 412 0
	movl	8(%ebp), %eax
	movl	%eax, (%esp)
	call	_ZNK12wxStringBase13GetStringDataEv
	movl	4(%eax), %eax
	leave
	ret
.LFE1093:
	.size	_ZNK12wxStringBase6lengthEv, .-_ZNK12wxStringBase6lengthEv
	.section	.text._ZNK12wxStringBase5emptyEv,"axG",@progbits,_ZNK12wxStringBase5emptyEv,comdat
	.align 2
	.weak	_ZNK12wxStringBase5emptyEv
	.type	_ZNK12wxStringBase5emptyEv, @function
_ZNK12wxStringBase5emptyEv:
.LFB1097:
	.loc 1 422 0
	pushl	%ebp
.LCFI12:
	movl	%esp, %ebp
.LCFI13:
	subl	$8, %esp
.LCFI14:
	.loc 1 422 0
	movl	8(%ebp), %eax
	movl	%eax, (%esp)
	call	_ZNK12wxStringBase6lengthEv
	testl	%eax, %eax
	sete	%al
	movzbl	%al, %eax
	leave
	ret
.LFE1097:
	.size	_ZNK12wxStringBase5emptyEv, .-_ZNK12wxStringBase5emptyEv
	.section	.text._ZN12wxStringBaseC2ERKS_,"axG",@progbits,_ZN12wxStringBaseC2ERKS_,comdat
	.align 2
	.weak	_ZN12wxStringBaseC2ERKS_
	.type	_ZN12wxStringBaseC2ERKS_, @function
_ZN12wxStringBaseC2ERKS_:
.LFB1076:
	.loc 1 349 0
	pushl	%ebp
.LCFI15:
	movl	%esp, %ebp
.LCFI16:
	subl	$8, %esp
.LCFI17:
.LBB2:
	.loc 1 354 0
	movl	12(%ebp), %eax
	movl	%eax, (%esp)
	call	_ZNK12wxStringBase5emptyEv
	testb	%al, %al
	je	.L16
	.loc 1 356 0
	movl	8(%ebp), %eax
	movl	%eax, (%esp)
	call	_ZN12wxStringBase4InitEv
	jmp	.L19
.L16:
	.loc 1 359 0
	movl	12(%ebp), %eax
	movl	(%eax), %edx
	movl	8(%ebp), %eax
	movl	%edx, (%eax)
	.loc 1 360 0
	movl	8(%ebp), %eax
	movl	%eax, (%esp)
	call	_ZNK12wxStringBase13GetStringDataEv
	movl	%eax, (%esp)
	call	_ZN12wxStringData4LockEv
.L19:
.LBE2:
	.loc 1 362 0
	leave
	ret
.LFE1076:
	.size	_ZN12wxStringBaseC2ERKS_, .-_ZN12wxStringBaseC2ERKS_
	.section	.text._ZNK12wxStringBase5c_strEv,"axG",@progbits,_ZNK12wxStringBase5c_strEv,comdat
	.align 2
	.weak	_ZNK12wxStringBase5c_strEv
	.type	_ZNK12wxStringBase5c_strEv, @function
_ZNK12wxStringBase5c_strEv:
.LFB1126:
	.loc 1 527 0
	pushl	%ebp
.LCFI18:
	movl	%esp, %ebp
.LCFI19:
	.loc 1 527 0
	movl	8(%ebp), %eax
	movl	(%eax), %eax
	popl	%ebp
	ret
.LFE1126:
	.size	_ZNK12wxStringBase5c_strEv, .-_ZNK12wxStringBase5c_strEv
	.section	.text._ZN8wxStringC1ERKS_,"axG",@progbits,_ZN8wxStringC1ERKS_,comdat
	.align 2
	.weak	_ZN8wxStringC1ERKS_
	.type	_ZN8wxStringC1ERKS_, @function
_ZN8wxStringC1ERKS_:
.LFB1151:
	.loc 1 690 0
	pushl	%ebp
.LCFI20:
	movl	%esp, %ebp
.LCFI21:
	subl	$8, %esp
.LCFI22:
.LBB3:
	.loc 1 690 0
	movl	12(%ebp), %eax
	movl	8(%ebp), %edx
	movl	%eax, 4(%esp)
	movl	%edx, (%esp)
	call	_ZN12wxStringBaseC2ERKS_
.LBE3:
	leave
	ret
.LFE1151:
	.size	_ZN8wxStringC1ERKS_, .-_ZN8wxStringC1ERKS_
	.section	.text._ZNK8wxStringcvPKwEv,"axG",@progbits,_ZNK8wxStringcvPKwEv,comdat
	.align 2
	.weak	_ZNK8wxStringcvPKwEv
	.type	_ZNK8wxStringcvPKwEv, @function
_ZNK8wxStringcvPKwEv:
.LFB1188:
	.loc 1 832 0
	pushl	%ebp
.LCFI23:
	movl	%esp, %ebp
.LCFI24:
	subl	$8, %esp
.LCFI25:
	.loc 1 832 0
	movl	8(%ebp), %eax
	movl	%eax, (%esp)
	call	_ZNK12wxStringBase5c_strEv
	leave
	ret
.LFE1188:
	.size	_ZNK8wxStringcvPKwEv, .-_ZNK8wxStringcvPKwEv
	.section	.text._ZNK10wxListBase8GetCountEv,"axG",@progbits,_ZNK10wxListBase8GetCountEv,comdat
	.align 2
	.weak	_ZNK10wxListBase8GetCountEv
	.type	_ZNK10wxListBase8GetCountEv, @function
_ZNK10wxListBase8GetCountEv:
.LFB1878:
	.file 2 "/usr/local/include/wx-2.8/wx/list.h"
	.loc 2 517 0
	pushl	%ebp
.LCFI26:
	movl	%esp, %ebp
.LCFI27:
	.loc 2 517 0
	movl	8(%ebp), %eax
	movl	8(%eax), %eax
	popl	%ebp
	ret
.LFE1878:
	.size	_ZNK10wxListBase8GetCountEv, .-_ZNK10wxListBase8GetCountEv
	.section	.text._ZN6wxSizeC1Eii,"axG",@progbits,_ZN6wxSizeC1Eii,comdat
	.align 2
	.weak	_ZN6wxSizeC1Eii
	.type	_ZN6wxSizeC1Eii, @function
_ZN6wxSizeC1Eii:
.LFB2205:
	.file 3 "/usr/local/include/wx-2.8/wx/gdicmn.h"
	.loc 3 215 0
	pushl	%ebp
.LCFI28:
	movl	%esp, %ebp
.LCFI29:
.LBB4:
	.loc 3 215 0
	movl	8(%ebp), %edx
	movl	12(%ebp), %eax
	movl	%eax, (%edx)
	movl	8(%ebp), %edx
	movl	16(%ebp), %eax
	movl	%eax, 4(%edx)
.LBE4:
	popl	%ebp
	ret
.LFE2205:
	.size	_ZN6wxSizeC1Eii, .-_ZN6wxSizeC1Eii
	.section	.text._ZNK6wxSize16IsFullySpecifiedEv,"axG",@progbits,_ZNK6wxSize16IsFullySpecifiedEv,comdat
	.align 2
	.weak	_ZNK6wxSize16IsFullySpecifiedEv
	.type	_ZNK6wxSize16IsFullySpecifiedEv, @function
_ZNK6wxSize16IsFullySpecifiedEv:
.LFB2230:
	.loc 3 257 0
	pushl	%ebp
.LCFI30:
	movl	%esp, %ebp
.LCFI31:
	subl	$4, %esp
.LCFI32:
	.loc 3 257 0
	movl	8(%ebp), %eax
	movl	(%eax), %eax
	cmpl	$-1, %eax
	je	.L31
	movl	8(%ebp), %eax
	movl	4(%eax), %eax
	cmpl	$-1, %eax
	je	.L31
	movb	$1, -1(%ebp)
	jmp	.L34
.L31:
	movb	$0, -1(%ebp)
.L34:
	movzbl	-1(%ebp), %eax
	leave
	ret
.LFE2230:
	.size	_ZNK6wxSize16IsFullySpecifiedEv, .-_ZNK6wxSize16IsFullySpecifiedEv
	.section	.text._ZN8wxThread6OnExitEv,"axG",@progbits,_ZN8wxThread6OnExitEv,comdat
	.align 2
	.weak	_ZN8wxThread6OnExitEv
	.type	_ZN8wxThread6OnExitEv, @function
_ZN8wxThread6OnExitEv:
.LFB2823:
	.file 4 "/usr/local/include/wx-2.8/wx/thread.h"
	.loc 4 554 0
	pushl	%ebp
.LCFI33:
	movl	%esp, %ebp
.LCFI34:
	.loc 4 554 0
	popl	%ebp
	ret
.LFE2823:
	.size	_ZN8wxThread6OnExitEv, .-_ZN8wxThread6OnExitEv
	.section	.text._ZN20wxThreadHelperThread5EntryEv,"axG",@progbits,_ZN20wxThreadHelperThread5EntryEv,comdat
	.align 2
	.weak	_ZN20wxThreadHelperThread5EntryEv
	.type	_ZN20wxThreadHelperThread5EntryEv, @function
_ZN20wxThreadHelperThread5EntryEv:
.LFB2837:
	.loc 4 663 0
	pushl	%ebp
.LCFI35:
	movl	%esp, %ebp
.LCFI36:
	subl	$8, %esp
.LCFI37:
	.loc 4 665 0
	movl	8(%ebp), %eax
	movl	16(%eax), %eax
	movl	(%eax), %eax
	addl	$8, %eax
	movl	(%eax), %edx
	movl	8(%ebp), %eax
	movl	16(%eax), %eax
	movl	%eax, (%esp)
	call	*%edx
	.loc 4 666 0
	leave
	ret
.LFE2837:
	.size	_ZN20wxThreadHelperThread5EntryEv, .-_ZN20wxThreadHelperThread5EntryEv
	.section	.text._ZN21wxEventTableEntryBaseC2EiiM8wxObjectFvR7wxEventEPS0_,"axG",@progbits,_ZN21wxEventTableEntryBaseC2EiiM8wxObjectFvR7wxEventEPS0_,comdat
	.align 2
	.weak	_ZN21wxEventTableEntryBaseC2EiiM8wxObjectFvR7wxEventEPS0_
	.type	_ZN21wxEventTableEntryBaseC2EiiM8wxObjectFvR7wxEventEPS0_, @function
_ZN21wxEventTableEntryBaseC2EiiM8wxObjectFvR7wxEventEPS0_:
.LFB3900:
	.file 5 "/usr/local/include/wx-2.8/wx/event.h"
	.loc 5 2238 0
	pushl	%ebp
.LCFI38:
	movl	%esp, %ebp
.LCFI39:
.LBB5:
	.loc 5 2242 0
	movl	8(%ebp), %edx
	movl	12(%ebp), %eax
	movl	%eax, (%edx)
	movl	8(%ebp), %edx
	movl	16(%ebp), %eax
	movl	%eax, 4(%edx)
	movl	8(%ebp), %ecx
	movl	20(%ebp), %eax
	movl	24(%ebp), %edx
	movl	%eax, 8(%ecx)
	movl	%edx, 12(%ecx)
	movl	8(%ebp), %edx
	movl	28(%ebp), %eax
	movl	%eax, 16(%edx)
.LBE5:
	.loc 5 2243 0
	popl	%ebp
	ret
.LFE3900:
	.size	_ZN21wxEventTableEntryBaseC2EiiM8wxObjectFvR7wxEventEPS0_, .-_ZN21wxEventTableEntryBaseC2EiiM8wxObjectFvR7wxEventEPS0_
	.section	.text._ZN17wxEventTableEntryC1ERKiiiM8wxObjectFvR7wxEventEPS2_,"axG",@progbits,_ZN17wxEventTableEntryC1ERKiiiM8wxObjectFvR7wxEventEPS2_,comdat
	.align 2
	.weak	_ZN17wxEventTableEntryC1ERKiiiM8wxObjectFvR7wxEventEPS2_
	.type	_ZN17wxEventTableEntryC1ERKiiiM8wxObjectFvR7wxEventEPS2_, @function
_ZN17wxEventTableEntryC1ERKiiiM8wxObjectFvR7wxEventEPS2_:
.LFB3907:
	.loc 5 2268 0
	pushl	%ebp
.LCFI40:
	movl	%esp, %ebp
.LCFI41:
	subl	$24, %esp
.LCFI42:
.LBB6:
	.loc 5 2270 0
	movl	8(%ebp), %ecx
	movl	32(%ebp), %eax
	movl	%eax, 20(%esp)
	movl	24(%ebp), %eax
	movl	28(%ebp), %edx
	movl	%eax, 12(%esp)
	movl	%edx, 16(%esp)
	movl	20(%ebp), %eax
	movl	%eax, 8(%esp)
	movl	16(%ebp), %eax
	movl	%eax, 4(%esp)
	movl	%ecx, (%esp)
	call	_ZN21wxEventTableEntryBaseC2EiiM8wxObjectFvR7wxEventEPS0_
	movl	8(%ebp), %edx
	movl	12(%ebp), %eax
	movl	%eax, 20(%edx)
.LBE6:
	.loc 5 2271 0
	leave
	ret
.LFE3907:
	.size	_ZN17wxEventTableEntryC1ERKiiiM8wxObjectFvR7wxEventEPS2_, .-_ZN17wxEventTableEntryC1ERKiiiM8wxObjectFvR7wxEventEPS2_
	.section	.text._ZNK12wxWindowBase7GetNameEv,"axG",@progbits,_ZNK12wxWindowBase7GetNameEv,comdat
	.align 2
	.weak	_ZNK12wxWindowBase7GetNameEv
	.type	_ZNK12wxWindowBase7GetNameEv, @function
_ZNK12wxWindowBase7GetNameEv:
.LFB4668:
	.file 6 "/usr/local/include/wx-2.8/wx/window.h"
	.loc 6 183 0
	pushl	%ebp
.LCFI43:
	movl	%esp, %ebp
.LCFI44:
	pushl	%ebx
.LCFI45:
	subl	$20, %esp
.LCFI46:
	movl	8(%ebp), %ebx
	.loc 6 183 0
	movl	%ebx, %edx
	movl	12(%ebp), %eax
	addl	$188, %eax
	movl	%eax, 4(%esp)
	movl	%edx, (%esp)
	call	_ZN8wxStringC1ERKS_
	movl	%ebx, %eax
	addl	$20, %esp
	popl	%ebx
	popl	%ebp
	ret	$4
.LFE4668:
	.size	_ZNK12wxWindowBase7GetNameEv, .-_ZNK12wxWindowBase7GetNameEv
	.section	.text._ZNK12wxWindowBase16GetWindowVariantEv,"axG",@progbits,_ZNK12wxWindowBase16GetWindowVariantEv,comdat
	.align 2
	.weak	_ZNK12wxWindowBase16GetWindowVariantEv
	.type	_ZNK12wxWindowBase16GetWindowVariantEv, @function
_ZNK12wxWindowBase16GetWindowVariantEv:
.LFB4669:
	.loc 6 188 0
	pushl	%ebp
.LCFI47:
	movl	%esp, %ebp
.LCFI48:
	.loc 6 188 0
	movl	8(%ebp), %eax
	movl	240(%eax), %eax
	popl	%ebp
	ret
.LFE4669:
	.size	_ZNK12wxWindowBase16GetWindowVariantEv, .-_ZNK12wxWindowBase16GetWindowVariantEv
	.section	.text._ZNK12wxWindowBase13GetClientSizeEv,"axG",@progbits,_ZNK12wxWindowBase13GetClientSizeEv,comdat
	.align 2
	.weak	_ZNK12wxWindowBase13GetClientSizeEv
	.type	_ZNK12wxWindowBase13GetClientSizeEv, @function
_ZNK12wxWindowBase13GetClientSizeEv:
.LFB4694:
	.loc 6 291 0
	pushl	%ebp
.LCFI49:
	movl	%esp, %ebp
.LCFI50:
	pushl	%ebx
.LCFI51:
	subl	$36, %esp
.LCFI52:
	movl	8(%ebp), %ebx
.LBB7:
	.loc 6 294 0
	movl	12(%ebp), %eax
	movl	(%eax), %eax
	addl	$536, %eax
	movl	(%eax), %edx
	leal	-12(%ebp), %eax
	movl	%eax, 8(%esp)
	leal	-8(%ebp), %eax
	movl	%eax, 4(%esp)
	movl	12(%ebp), %eax
	movl	%eax, (%esp)
	call	*%edx
	.loc 6 296 0
	movl	-12(%ebp), %eax
	movl	-8(%ebp), %edx
	movl	%eax, 8(%esp)
	movl	%edx, 4(%esp)
	movl	%ebx, (%esp)
	call	_ZN6wxSizeC1Eii
.LBE7:
	.loc 6 297 0
	movl	%ebx, %eax
	addl	$36, %esp
	popl	%ebx
	popl	%ebp
	ret	$4
.LFE4694:
	.size	_ZNK12wxWindowBase13GetClientSizeEv, .-_ZNK12wxWindowBase13GetClientSizeEv
	.section	.text._ZNK12wxWindowBase11GetBestSizeEv,"axG",@progbits,_ZNK12wxWindowBase11GetBestSizeEv,comdat
	.align 2
	.weak	_ZNK12wxWindowBase11GetBestSizeEv
	.type	_ZNK12wxWindowBase11GetBestSizeEv, @function
_ZNK12wxWindowBase11GetBestSizeEv:
.LFB4698:
	.loc 6 338 0
	pushl	%ebp
.LCFI53:
	movl	%esp, %ebp
.LCFI54:
	subl	$24, %esp
.LCFI55:
	.loc 6 340 0
	movl	12(%ebp), %eax
	addl	$244, %eax
	movl	%eax, (%esp)
	call	_ZNK6wxSize16IsFullySpecifiedEv
	testb	%al, %al
	je	.L51
	.loc 6 341 0
	movl	12(%ebp), %eax
	movl	248(%eax), %edx
	movl	244(%eax), %eax
	movl	8(%ebp), %ecx
	movl	%eax, (%ecx)
	movl	%edx, 4(%ecx)
	jmp	.L50
.L51:
	.loc 6 342 0
	movl	12(%ebp), %eax
	movl	(%eax), %eax
	addl	$540, %eax
	movl	(%eax), %ecx
	leal	-8(%ebp), %edx
	movl	12(%ebp), %eax
	movl	%eax, 4(%esp)
	movl	%edx, (%esp)
	call	*%ecx
	subl	$4, %esp
	movl	-8(%ebp), %eax
	movl	-4(%ebp), %edx
	movl	8(%ebp), %ecx
	movl	%eax, (%ecx)
	movl	%edx, 4(%ecx)
.L50:
	.loc 6 343 0
	movl	8(%ebp), %eax
	leave
	ret	$4
.LFE4698:
	.size	_ZNK12wxWindowBase11GetBestSizeEv, .-_ZNK12wxWindowBase11GetBestSizeEv
	.section	.text._ZN12wxWindowBase12SetSizeHintsEiiiiii,"axG",@progbits,_ZN12wxWindowBase12SetSizeHintsEiiiiii,comdat
	.align 2
	.weak	_ZN12wxWindowBase12SetSizeHintsEiiiiii
	.type	_ZN12wxWindowBase12SetSizeHintsEiiiiii, @function
_ZN12wxWindowBase12SetSizeHintsEiiiiii:
.LFB4707:
	.loc 6 401 0
	pushl	%ebp
.LCFI56:
	movl	%esp, %ebp
.LCFI57:
	subl	$40, %esp
.LCFI58:
	.loc 6 402 0
	movl	8(%ebp), %eax
	movl	(%eax), %eax
	addl	$116, %eax
	movl	(%eax), %edx
	movl	32(%ebp), %eax
	movl	%eax, 24(%esp)
	movl	28(%ebp), %eax
	movl	%eax, 20(%esp)
	movl	24(%ebp), %eax
	movl	%eax, 16(%esp)
	movl	20(%ebp), %eax
	movl	%eax, 12(%esp)
	movl	16(%ebp), %eax
	movl	%eax, 8(%esp)
	movl	12(%ebp), %eax
	movl	%eax, 4(%esp)
	movl	8(%ebp), %eax
	movl	%eax, (%esp)
	call	*%edx
	leave
	ret
.LFE4707:
	.size	_ZN12wxWindowBase12SetSizeHintsEiiiiii, .-_ZN12wxWindowBase12SetSizeHintsEiiiiii
	.section	.text._ZN12wxWindowBase12SetSizeHintsERK6wxSizeS2_S2_,"axG",@progbits,_ZN12wxWindowBase12SetSizeHintsERK6wxSizeS2_S2_,comdat
	.align 2
	.weak	_ZN12wxWindowBase12SetSizeHintsERK6wxSizeS2_S2_
	.type	_ZN12wxWindowBase12SetSizeHintsERK6wxSizeS2_S2_, @function
_ZN12wxWindowBase12SetSizeHintsERK6wxSizeS2_S2_:
.LFB4708:
	.loc 6 406 0
	pushl	%ebp
.LCFI59:
	movl	%esp, %ebp
.LCFI60:
	pushl	%edi
.LCFI61:
	pushl	%esi
.LCFI62:
	pushl	%ebx
.LCFI63:
	subl	$44, %esp
.LCFI64:
	.loc 6 407 0
	movl	8(%ebp), %eax
	movl	(%eax), %eax
	addl	$116, %eax
	movl	(%eax), %edi
	movl	20(%ebp), %eax
	movl	4(%eax), %eax
	movl	%eax, -16(%ebp)
	movl	20(%ebp), %eax
	movl	(%eax), %edx
	movl	16(%ebp), %eax
	movl	4(%eax), %ecx
	movl	16(%ebp), %eax
	movl	(%eax), %ebx
	movl	12(%ebp), %eax
	movl	4(%eax), %esi
	movl	12(%ebp), %eax
	movl	(%eax), %eax
	movl	%eax, -20(%ebp)
	movl	-16(%ebp), %eax
	movl	%eax, 24(%esp)
	movl	%edx, 20(%esp)
	movl	%ecx, 16(%esp)
	movl	%ebx, 12(%esp)
	movl	%esi, 8(%esp)
	movl	-20(%ebp), %eax
	movl	%eax, 4(%esp)
	movl	8(%ebp), %eax
	movl	%eax, (%esp)
	call	*%edi
	addl	$44, %esp
	popl	%ebx
	popl	%esi
	popl	%edi
	popl	%ebp
	ret
.LFE4708:
	.size	_ZN12wxWindowBase12SetSizeHintsERK6wxSizeS2_S2_, .-_ZN12wxWindowBase12SetSizeHintsERK6wxSizeS2_S2_
	.section	.text._ZN12wxWindowBase10SetMinSizeERK6wxSize,"axG",@progbits,_ZN12wxWindowBase10SetMinSizeERK6wxSize,comdat
	.align 2
	.weak	_ZN12wxWindowBase10SetMinSizeERK6wxSize
	.type	_ZN12wxWindowBase10SetMinSizeERK6wxSize, @function
_ZN12wxWindowBase10SetMinSizeERK6wxSize:
.LFB4710:
	.loc 6 428 0
	pushl	%ebp
.LCFI65:
	movl	%esp, %ebp
.LCFI66:
	.loc 6 428 0
	movl	12(%ebp), %eax
	movl	(%eax), %edx
	movl	8(%ebp), %eax
	movl	%edx, 76(%eax)
	movl	12(%ebp), %eax
	movl	4(%eax), %edx
	movl	8(%ebp), %eax
	movl	%edx, 80(%eax)
	popl	%ebp
	ret
.LFE4710:
	.size	_ZN12wxWindowBase10SetMinSizeERK6wxSize, .-_ZN12wxWindowBase10SetMinSizeERK6wxSize
	.section	.text._ZN12wxWindowBase10SetMaxSizeERK6wxSize,"axG",@progbits,_ZN12wxWindowBase10SetMaxSizeERK6wxSize,comdat
	.align 2
	.weak	_ZN12wxWindowBase10SetMaxSizeERK6wxSize
	.type	_ZN12wxWindowBase10SetMaxSizeERK6wxSize, @function
_ZN12wxWindowBase10SetMaxSizeERK6wxSize:
.LFB4711:
	.loc 6 429 0
	pushl	%ebp
.LCFI67:
	movl	%esp, %ebp
.LCFI68:
	.loc 6 429 0
	movl	12(%ebp), %eax
	movl	(%eax), %edx
	movl	8(%ebp), %eax
	movl	%edx, 84(%eax)
	movl	12(%ebp), %eax
	movl	4(%eax), %edx
	movl	8(%ebp), %eax
	movl	%edx, 88(%eax)
	popl	%ebp
	ret
.LFE4711:
	.size	_ZN12wxWindowBase10SetMaxSizeERK6wxSize, .-_ZN12wxWindowBase10SetMaxSizeERK6wxSize
	.section	.text._ZNK12wxWindowBase10GetMinSizeEv,"axG",@progbits,_ZNK12wxWindowBase10GetMinSizeEv,comdat
	.align 2
	.weak	_ZNK12wxWindowBase10GetMinSizeEv
	.type	_ZNK12wxWindowBase10GetMinSizeEv, @function
_ZNK12wxWindowBase10GetMinSizeEv:
.LFB4712:
	.loc 6 434 0
	pushl	%ebp
.LCFI69:
	movl	%esp, %ebp
.LCFI70:
	pushl	%ebx
.LCFI71:
	subl	$20, %esp
.LCFI72:
	movl	8(%ebp), %ebx
	.loc 6 434 0
	movl	12(%ebp), %eax
	movl	80(%eax), %edx
	movl	12(%ebp), %eax
	movl	76(%eax), %eax
	movl	%edx, 8(%esp)
	movl	%eax, 4(%esp)
	movl	%ebx, (%esp)
	call	_ZN6wxSizeC1Eii
	movl	%ebx, %eax
	addl	$20, %esp
	popl	%ebx
	popl	%ebp
	ret	$4
.LFE4712:
	.size	_ZNK12wxWindowBase10GetMinSizeEv, .-_ZNK12wxWindowBase10GetMinSizeEv
	.section	.text._ZNK12wxWindowBase10GetMaxSizeEv,"axG",@progbits,_ZNK12wxWindowBase10GetMaxSizeEv,comdat
	.align 2
	.weak	_ZNK12wxWindowBase10GetMaxSizeEv
	.type	_ZNK12wxWindowBase10GetMaxSizeEv, @function
_ZNK12wxWindowBase10GetMaxSizeEv:
.LFB4713:
	.loc 6 435 0
	pushl	%ebp
.LCFI73:
	movl	%esp, %ebp
.LCFI74:
	pushl	%ebx
.LCFI75:
	subl	$20, %esp
.LCFI76:
	movl	8(%ebp), %ebx
	.loc 6 435 0
	movl	12(%ebp), %eax
	movl	88(%eax), %edx
	movl	12(%ebp), %eax
	movl	84(%eax), %eax
	movl	%edx, 8(%esp)
	movl	%eax, 4(%esp)
	movl	%ebx, (%esp)
	call	_ZN6wxSizeC1Eii
	movl	%ebx, %eax
	addl	$20, %esp
	popl	%ebx
	popl	%ebp
	ret	$4
.LFE4713:
	.size	_ZNK12wxWindowBase10GetMaxSizeEv, .-_ZNK12wxWindowBase10GetMaxSizeEv
	.section	.text._ZNK12wxWindowBase18GetBestVirtualSizeEv,"axG",@progbits,_ZNK12wxWindowBase18GetBestVirtualSizeEv,comdat
	.align 2
	.weak	_ZNK12wxWindowBase18GetBestVirtualSizeEv
	.type	_ZNK12wxWindowBase18GetBestVirtualSizeEv, @function
_ZNK12wxWindowBase18GetBestVirtualSizeEv:
.LFB4722:
	.loc 6 474 0
	pushl	%ebp
.LCFI77:
	movl	%esp, %ebp
.LCFI78:
	subl	$56, %esp
.LCFI79:
.LBB8:
	.loc 6 476 0
	leal	-24(%ebp), %edx
	movl	12(%ebp), %eax
	movl	%eax, 4(%esp)
	movl	%edx, (%esp)
	call	_ZNK12wxWindowBase13GetClientSizeEv
	subl	$4, %esp
	movl	-24(%ebp), %eax
	movl	-20(%ebp), %edx
	movl	%eax, -8(%ebp)
	movl	%edx, -4(%ebp)
	.loc 6 477 0
	leal	-32(%ebp), %edx
	movl	12(%ebp), %eax
	movl	%eax, 4(%esp)
	movl	%edx, (%esp)
	call	_ZNK12wxWindowBase11GetBestSizeEv
	subl	$4, %esp
	movl	-32(%ebp), %eax
	movl	-28(%ebp), %edx
	movl	%eax, -16(%ebp)
	movl	%edx, -12(%ebp)
	.loc 6 479 0
	movl	-4(%ebp), %edx
	movl	-12(%ebp), %eax
	cmpl	%eax, %edx
	jle	.L68
	movl	-4(%ebp), %eax
	movl	%eax, -40(%ebp)
	jmp	.L70
.L68:
	movl	-12(%ebp), %eax
	movl	%eax, -40(%ebp)
.L70:
	movl	-8(%ebp), %edx
	movl	-16(%ebp), %eax
	cmpl	%eax, %edx
	jle	.L71
	movl	-8(%ebp), %eax
	movl	%eax, -36(%ebp)
	jmp	.L73
.L71:
	movl	-16(%ebp), %eax
	movl	%eax, -36(%ebp)
.L73:
	movl	-40(%ebp), %eax
	movl	%eax, 8(%esp)
	movl	-36(%ebp), %eax
	movl	%eax, 4(%esp)
	movl	8(%ebp), %eax
	movl	%eax, (%esp)
	call	_ZN6wxSizeC1Eii
.LBE8:
	.loc 6 480 0
	movl	8(%ebp), %eax
	leave
	ret	$4
.LFE4722:
	.size	_ZNK12wxWindowBase18GetBestVirtualSizeEv, .-_ZNK12wxWindowBase18GetBestVirtualSizeEv
	.section	.text._ZNK12wxWindowBase7IsShownEv,"axG",@progbits,_ZNK12wxWindowBase7IsShownEv,comdat
	.align 2
	.weak	_ZNK12wxWindowBase7IsShownEv
	.type	_ZNK12wxWindowBase7IsShownEv, @function
_ZNK12wxWindowBase7IsShownEv:
.LFB4725:
	.loc 6 499 0
	pushl	%ebp
.LCFI80:
	movl	%esp, %ebp
.LCFI81:
	.loc 6 499 0
	movl	8(%ebp), %eax
	movzbl	176(%eax), %eax
	shrb	%al
	andl	$1, %eax
	movzbl	%al, %eax
	popl	%ebp
	ret
.LFE4725:
	.size	_ZNK12wxWindowBase7IsShownEv, .-_ZNK12wxWindowBase7IsShownEv
	.section	.text._ZNK12wxWindowBase9IsEnabledEv,"axG",@progbits,_ZNK12wxWindowBase9IsEnabledEv,comdat
	.align 2
	.weak	_ZNK12wxWindowBase9IsEnabledEv
	.type	_ZNK12wxWindowBase9IsEnabledEv, @function
_ZNK12wxWindowBase9IsEnabledEv:
.LFB4726:
	.loc 6 500 0
	pushl	%ebp
.LCFI82:
	movl	%esp, %ebp
.LCFI83:
	.loc 6 500 0
	movl	8(%ebp), %eax
	movzbl	176(%eax), %eax
	shrb	$2, %al
	andl	$1, %eax
	movzbl	%al, %eax
	popl	%ebp
	ret
.LFE4726:
	.size	_ZNK12wxWindowBase9IsEnabledEv, .-_ZNK12wxWindowBase9IsEnabledEv
	.section	.text._ZNK12wxWindowBase18GetWindowStyleFlagEv,"axG",@progbits,_ZNK12wxWindowBase18GetWindowStyleFlagEv,comdat
	.align 2
	.weak	_ZNK12wxWindowBase18GetWindowStyleFlagEv
	.type	_ZNK12wxWindowBase18GetWindowStyleFlagEv, @function
_ZNK12wxWindowBase18GetWindowStyleFlagEv:
.LFB4728:
	.loc 6 509 0
	pushl	%ebp
.LCFI84:
	movl	%esp, %ebp
.LCFI85:
	.loc 6 509 0
	movl	8(%ebp), %eax
	movl	180(%eax), %eax
	popl	%ebp
	ret
.LFE4728:
	.size	_ZNK12wxWindowBase18GetWindowStyleFlagEv, .-_ZNK12wxWindowBase18GetWindowStyleFlagEv
	.section	.text._ZN12wxWindowBase13SetExtraStyleEl,"axG",@progbits,_ZN12wxWindowBase13SetExtraStyleEl,comdat
	.align 2
	.weak	_ZN12wxWindowBase13SetExtraStyleEl
	.type	_ZN12wxWindowBase13SetExtraStyleEl, @function
_ZN12wxWindowBase13SetExtraStyleEl:
.LFB4733:
	.loc 6 525 0
	pushl	%ebp
.LCFI86:
	movl	%esp, %ebp
.LCFI87:
	.loc 6 525 0
	movl	8(%ebp), %edx
	movl	12(%ebp), %eax
	movl	%eax, 184(%edx)
	popl	%ebp
	ret
.LFE4733:
	.size	_ZN12wxWindowBase13SetExtraStyleEl, .-_ZN12wxWindowBase13SetExtraStyleEl
	.section	.text._ZN12wxWindowBase15SetThemeEnabledEb,"axG",@progbits,_ZN12wxWindowBase15SetThemeEnabledEb,comdat
	.align 2
	.weak	_ZN12wxWindowBase15SetThemeEnabledEb
	.type	_ZN12wxWindowBase15SetThemeEnabledEb, @function
_ZN12wxWindowBase15SetThemeEnabledEb:
.LFB4735:
	.loc 6 535 0
	pushl	%ebp
.LCFI88:
	movl	%esp, %ebp
.LCFI89:
	subl	$4, %esp
.LCFI90:
	movl	12(%ebp), %eax
	movb	%al, -4(%ebp)
	.loc 6 535 0
	movl	8(%ebp), %edx
	movzbl	-4(%ebp), %eax
	movb	%al, 192(%edx)
	leave
	ret
.LFE4735:
	.size	_ZN12wxWindowBase15SetThemeEnabledEb, .-_ZN12wxWindowBase15SetThemeEnabledEb
	.section	.text._ZNK12wxWindowBase15GetThemeEnabledEv,"axG",@progbits,_ZNK12wxWindowBase15GetThemeEnabledEv,comdat
	.align 2
	.weak	_ZNK12wxWindowBase15GetThemeEnabledEv
	.type	_ZNK12wxWindowBase15GetThemeEnabledEv, @function
_ZNK12wxWindowBase15GetThemeEnabledEv:
.LFB4736:
	.loc 6 536 0
	pushl	%ebp
.LCFI91:
	movl	%esp, %ebp
.LCFI92:
	.loc 6 536 0
	movl	8(%ebp), %eax
	movzbl	192(%eax), %eax
	movzbl	%al, %eax
	popl	%ebp
	ret
.LFE4736:
	.size	_ZNK12wxWindowBase15GetThemeEnabledEv, .-_ZNK12wxWindowBase15GetThemeEnabledEv
	.section	.text._ZN12wxWindowBase15SetFocusFromKbdEv,"axG",@progbits,_ZN12wxWindowBase15SetFocusFromKbdEv,comdat
	.align 2
	.weak	_ZN12wxWindowBase15SetFocusFromKbdEv
	.type	_ZN12wxWindowBase15SetFocusFromKbdEv, @function
_ZN12wxWindowBase15SetFocusFromKbdEv:
.LFB4737:
	.loc 6 546 0
	pushl	%ebp
.LCFI93:
	movl	%esp, %ebp
.LCFI94:
	subl	$8, %esp
.LCFI95:
	.loc 6 546 0
	movl	8(%ebp), %eax
	movl	(%eax), %eax
	addl	$204, %eax
	movl	(%eax), %edx
	movl	8(%ebp), %eax
	movl	%eax, (%esp)
	call	*%edx
	leave
	ret
.LFE4737:
	.size	_ZN12wxWindowBase15SetFocusFromKbdEv, .-_ZN12wxWindowBase15SetFocusFromKbdEv
	.section	.text._ZNK12wxWindowBase24AcceptsFocusFromKeyboardEv,"axG",@progbits,_ZNK12wxWindowBase24AcceptsFocusFromKeyboardEv,comdat
	.align 2
	.weak	_ZNK12wxWindowBase24AcceptsFocusFromKeyboardEv
	.type	_ZNK12wxWindowBase24AcceptsFocusFromKeyboardEv, @function
_ZNK12wxWindowBase24AcceptsFocusFromKeyboardEv:
.LFB4739:
	.loc 6 559 0
	pushl	%ebp
.LCFI96:
	movl	%esp, %ebp
.LCFI97:
	subl	$8, %esp
.LCFI98:
	.loc 6 559 0
	movl	8(%ebp), %eax
	movl	(%eax), %eax
	addl	$212, %eax
	movl	(%eax), %edx
	movl	8(%ebp), %eax
	movl	%eax, (%esp)
	call	*%edx
	movzbl	%al, %eax
	leave
	ret
.LFE4739:
	.size	_ZNK12wxWindowBase24AcceptsFocusFromKeyboardEv, .-_ZNK12wxWindowBase24AcceptsFocusFromKeyboardEv
	.section	.text._ZN12wxWindowBase12GetValidatorEv,"axG",@progbits,_ZN12wxWindowBase12GetValidatorEv,comdat
	.align 2
	.weak	_ZN12wxWindowBase12GetValidatorEv
	.type	_ZN12wxWindowBase12GetValidatorEv, @function
_ZN12wxWindowBase12GetValidatorEv:
.LFB4751:
	.loc 6 650 0
	pushl	%ebp
.LCFI99:
	movl	%esp, %ebp
.LCFI100:
	.loc 6 650 0
	movl	8(%ebp), %eax
	movl	96(%eax), %eax
	popl	%ebp
	ret
.LFE4751:
	.size	_ZN12wxWindowBase12GetValidatorEv, .-_ZN12wxWindowBase12GetValidatorEv
	.section	.text._ZN12wxWindowBase6FreezeEv,"axG",@progbits,_ZN12wxWindowBase6FreezeEv,comdat
	.align 2
	.weak	_ZN12wxWindowBase6FreezeEv
	.type	_ZN12wxWindowBase6FreezeEv, @function
_ZN12wxWindowBase6FreezeEv:
.LFB4760:
	.loc 6 745 0
	pushl	%ebp
.LCFI101:
	movl	%esp, %ebp
.LCFI102:
	.loc 6 745 0
	popl	%ebp
	ret
.LFE4760:
	.size	_ZN12wxWindowBase6FreezeEv, .-_ZN12wxWindowBase6FreezeEv
	.section	.text._ZN12wxWindowBase4ThawEv,"axG",@progbits,_ZN12wxWindowBase4ThawEv,comdat
	.align 2
	.weak	_ZN12wxWindowBase4ThawEv
	.type	_ZN12wxWindowBase4ThawEv, @function
_ZN12wxWindowBase4ThawEv:
.LFB4761:
	.loc 6 748 0
	pushl	%ebp
.LCFI103:
	movl	%esp, %ebp
.LCFI104:
	.loc 6 748 0
	popl	%ebp
	ret
.LFE4761:
	.size	_ZN12wxWindowBase4ThawEv, .-_ZN12wxWindowBase4ThawEv
	.section	.text._ZNK12wxWindowBase8IsFrozenEv,"axG",@progbits,_ZNK12wxWindowBase8IsFrozenEv,comdat
	.align 2
	.weak	_ZNK12wxWindowBase8IsFrozenEv
	.type	_ZNK12wxWindowBase8IsFrozenEv, @function
_ZNK12wxWindowBase8IsFrozenEv:
.LFB4762:
	.loc 6 751 0
	pushl	%ebp
.LCFI105:
	movl	%esp, %ebp
.LCFI106:
	.loc 6 751 0
	movl	$0, %eax
	popl	%ebp
	ret
.LFE4762:
	.size	_ZNK12wxWindowBase8IsFrozenEv, .-_ZNK12wxWindowBase8IsFrozenEv
	.section	.text._ZN12wxWindowBase9PrepareDCER4wxDC,"axG",@progbits,_ZN12wxWindowBase9PrepareDCER4wxDC,comdat
	.align 2
	.weak	_ZN12wxWindowBase9PrepareDCER4wxDC
	.type	_ZN12wxWindowBase9PrepareDCER4wxDC, @function
_ZN12wxWindowBase9PrepareDCER4wxDC:
.LFB4763:
	.loc 6 754 0
	pushl	%ebp
.LCFI107:
	movl	%esp, %ebp
.LCFI108:
	.loc 6 754 0
	popl	%ebp
	ret
.LFE4763:
	.size	_ZN12wxWindowBase9PrepareDCER4wxDC, .-_ZN12wxWindowBase9PrepareDCER4wxDC
	.section	.text._ZNK12wxWindowBase18GetBackgroundStyleEv,"axG",@progbits,_ZNK12wxWindowBase18GetBackgroundStyleEv,comdat
	.align 2
	.weak	_ZNK12wxWindowBase18GetBackgroundStyleEv
	.type	_ZNK12wxWindowBase18GetBackgroundStyleEv, @function
_ZNK12wxWindowBase18GetBackgroundStyleEv:
.LFB4795:
	.loc 6 830 0
	pushl	%ebp
.LCFI109:
	movl	%esp, %ebp
.LCFI110:
	.loc 6 830 0
	movl	8(%ebp), %eax
	movl	196(%eax), %eax
	popl	%ebp
	ret
.LFE4795:
	.size	_ZNK12wxWindowBase18GetBackgroundStyleEv, .-_ZNK12wxWindowBase18GetBackgroundStyleEv
	.section	.text._ZN12wxWindowBase24HasTransparentBackgroundEv,"axG",@progbits,_ZN12wxWindowBase24HasTransparentBackgroundEv,comdat
	.align 2
	.weak	_ZN12wxWindowBase24HasTransparentBackgroundEv
	.type	_ZN12wxWindowBase24HasTransparentBackgroundEv, @function
_ZN12wxWindowBase24HasTransparentBackgroundEv:
.LFB4796:
	.loc 6 835 0
	pushl	%ebp
.LCFI111:
	movl	%esp, %ebp
.LCFI112:
	.loc 6 835 0
	movl	$0, %eax
	popl	%ebp
	ret
.LFE4796:
	.size	_ZN12wxWindowBase24HasTransparentBackgroundEv, .-_ZN12wxWindowBase24HasTransparentBackgroundEv
	.section	.text._ZNK12wxWindowBase16HasMultiplePagesEv,"axG",@progbits,_ZNK12wxWindowBase16HasMultiplePagesEv,comdat
	.align 2
	.weak	_ZNK12wxWindowBase16HasMultiplePagesEv
	.type	_ZNK12wxWindowBase16HasMultiplePagesEv, @function
_ZNK12wxWindowBase16HasMultiplePagesEv:
.LFB4809:
	.loc 6 930 0
	pushl	%ebp
.LCFI113:
	movl	%esp, %ebp
.LCFI114:
	.loc 6 930 0
	movl	$0, %eax
	popl	%ebp
	ret
.LFE4809:
	.size	_ZNK12wxWindowBase16HasMultiplePagesEv, .-_ZNK12wxWindowBase16HasMultiplePagesEv
	.section	.text._ZNK12wxWindowBase13GetDropTargetEv,"axG",@progbits,_ZNK12wxWindowBase13GetDropTargetEv,comdat
	.align 2
	.weak	_ZNK12wxWindowBase13GetDropTargetEv
	.type	_ZNK12wxWindowBase13GetDropTargetEv, @function
_ZNK12wxWindowBase13GetDropTargetEv:
.LFB4821:
	.loc 6 1029 0
	pushl	%ebp
.LCFI115:
	movl	%esp, %ebp
.LCFI116:
	.loc 6 1029 0
	movl	8(%ebp), %eax
	movl	100(%eax), %eax
	popl	%ebp
	ret
.LFE4821:
	.size	_ZNK12wxWindowBase13GetDropTargetEv, .-_ZNK12wxWindowBase13GetDropTargetEv
	.section	.text._ZN12wxWindowBase14SetTransparentEh,"axG",@progbits,_ZN12wxWindowBase14SetTransparentEh,comdat
	.align 2
	.weak	_ZN12wxWindowBase14SetTransparentEh
	.type	_ZN12wxWindowBase14SetTransparentEh, @function
_ZN12wxWindowBase14SetTransparentEh:
.LFB4828:
	.loc 6 1108 0
	pushl	%ebp
.LCFI117:
	movl	%esp, %ebp
.LCFI118:
	subl	$4, %esp
.LCFI119:
	movl	12(%ebp), %eax
	movb	%al, -4(%ebp)
	.loc 6 1108 0
	movl	$0, %eax
	leave
	ret
.LFE4828:
	.size	_ZN12wxWindowBase14SetTransparentEh, .-_ZN12wxWindowBase14SetTransparentEh
	.section	.text._ZN12wxWindowBase17CanSetTransparentEv,"axG",@progbits,_ZN12wxWindowBase17CanSetTransparentEv,comdat
	.align 2
	.weak	_ZN12wxWindowBase17CanSetTransparentEv
	.type	_ZN12wxWindowBase17CanSetTransparentEv, @function
_ZN12wxWindowBase17CanSetTransparentEv:
.LFB4829:
	.loc 6 1109 0
	pushl	%ebp
.LCFI120:
	movl	%esp, %ebp
.LCFI121:
	.loc 6 1109 0
	movl	$0, %eax
	popl	%ebp
	ret
.LFE4829:
	.size	_ZN12wxWindowBase17CanSetTransparentEv, .-_ZN12wxWindowBase17CanSetTransparentEv
	.section	.text._ZN12wxWindowBase15AssociateHandleEP10_GtkWidget,"axG",@progbits,_ZN12wxWindowBase15AssociateHandleEP10_GtkWidget,comdat
	.align 2
	.weak	_ZN12wxWindowBase15AssociateHandleEP10_GtkWidget
	.type	_ZN12wxWindowBase15AssociateHandleEP10_GtkWidget, @function
_ZN12wxWindowBase15AssociateHandleEP10_GtkWidget:
.LFB4831:
	.loc 6 1135 0
	pushl	%ebp
.LCFI122:
	movl	%esp, %ebp
.LCFI123:
	.loc 6 1135 0
	popl	%ebp
	ret
.LFE4831:
	.size	_ZN12wxWindowBase15AssociateHandleEP10_GtkWidget, .-_ZN12wxWindowBase15AssociateHandleEP10_GtkWidget
	.section	.text._ZN12wxWindowBase16DissociateHandleEv,"axG",@progbits,_ZN12wxWindowBase16DissociateHandleEv,comdat
	.align 2
	.weak	_ZN12wxWindowBase16DissociateHandleEv
	.type	_ZN12wxWindowBase16DissociateHandleEv, @function
_ZN12wxWindowBase16DissociateHandleEv:
.LFB4832:
	.loc 6 1137 0
	pushl	%ebp
.LCFI124:
	movl	%esp, %ebp
.LCFI125:
	.loc 6 1137 0
	popl	%ebp
	ret
.LFE4832:
	.size	_ZN12wxWindowBase16DissociateHandleEv, .-_ZN12wxWindowBase16DissociateHandleEv
	.section	.text._ZNK12wxWindowBase20ShouldInheritColoursEv,"axG",@progbits,_ZNK12wxWindowBase20ShouldInheritColoursEv,comdat
	.align 2
	.weak	_ZNK12wxWindowBase20ShouldInheritColoursEv
	.type	_ZNK12wxWindowBase20ShouldInheritColoursEv, @function
_ZNK12wxWindowBase20ShouldInheritColoursEv:
.LFB4841:
	.loc 6 1165 0
	pushl	%ebp
.LCFI126:
	movl	%esp, %ebp
.LCFI127:
	.loc 6 1165 0
	movl	$0, %eax
	popl	%ebp
	ret
.LFE4841:
	.size	_ZNK12wxWindowBase20ShouldInheritColoursEv, .-_ZNK12wxWindowBase20ShouldInheritColoursEv
	.section	.text._ZN12wxWindowBase31GetMainWindowOfCompositeControlEv,"axG",@progbits,_ZN12wxWindowBase31GetMainWindowOfCompositeControlEv,comdat
	.align 2
	.weak	_ZN12wxWindowBase31GetMainWindowOfCompositeControlEv
	.type	_ZN12wxWindowBase31GetMainWindowOfCompositeControlEv, @function
_ZN12wxWindowBase31GetMainWindowOfCompositeControlEv:
.LFB4842:
	.loc 6 1197 0
	pushl	%ebp
.LCFI128:
	movl	%esp, %ebp
.LCFI129:
	.loc 6 1198 0
	movl	8(%ebp), %eax
	popl	%ebp
	ret
.LFE4842:
	.size	_ZN12wxWindowBase31GetMainWindowOfCompositeControlEv, .-_ZN12wxWindowBase31GetMainWindowOfCompositeControlEv
	.section	.text._ZNK12wxWindowBase27GetWindowSizeForVirtualSizeERK6wxSize,"axG",@progbits,_ZNK12wxWindowBase27GetWindowSizeForVirtualSizeERK6wxSize,comdat
	.align 2
	.weak	_ZNK12wxWindowBase27GetWindowSizeForVirtualSizeERK6wxSize
	.type	_ZNK12wxWindowBase27GetWindowSizeForVirtualSizeERK6wxSize, @function
_ZNK12wxWindowBase27GetWindowSizeForVirtualSizeERK6wxSize:
.LFB4845:
	.loc 6 1368 0
	pushl	%ebp
.LCFI130:
	movl	%esp, %ebp
.LCFI131:
	movl	8(%ebp), %ecx
	.loc 6 1370 0
	movl	16(%ebp), %eax
	movl	4(%eax), %edx
	movl	(%eax), %eax
	movl	%eax, (%ecx)
	movl	%edx, 4(%ecx)
	.loc 6 1371 0
	movl	%ecx, %eax
	popl	%ebp
	ret	$4
.LFE4845:
	.size	_ZNK12wxWindowBase27GetWindowSizeForVirtualSizeERK6wxSize, .-_ZNK12wxWindowBase27GetWindowSizeForVirtualSizeERK6wxSize
	.section	.text._ZN8wxWindow8SetLabelERK8wxString,"axG",@progbits,_ZN8wxWindow8SetLabelERK8wxString,comdat
	.align 2
	.weak	_ZN8wxWindow8SetLabelERK8wxString
	.type	_ZN8wxWindow8SetLabelERK8wxString, @function
_ZN8wxWindow8SetLabelERK8wxString:
.LFB4937:
	.file 7 "/usr/local/include/wx-2.8/wx/gtk/window.h"
	.loc 7 55 0
	pushl	%ebp
.LCFI132:
	movl	%esp, %ebp
.LCFI133:
	.loc 7 55 0
	popl	%ebp
	ret
.LFE4937:
	.size	_ZN8wxWindow8SetLabelERK8wxString, .-_ZN8wxWindow8SetLabelERK8wxString
	.section	.text._ZNK8wxWindow9GetHandleEv,"axG",@progbits,_ZNK8wxWindow9GetHandleEv,comdat
	.align 2
	.weak	_ZNK8wxWindow9GetHandleEv
	.type	_ZNK8wxWindow9GetHandleEv, @function
_ZNK8wxWindow9GetHandleEv:
.LFB4939:
	.loc 7 132 0
	pushl	%ebp
.LCFI134:
	movl	%esp, %ebp
.LCFI135:
	.loc 7 132 0
	movl	8(%ebp), %eax
	movl	276(%eax), %eax
	popl	%ebp
	ret
.LFE4939:
	.size	_ZNK8wxWindow9GetHandleEv, .-_ZNK8wxWindow9GetHandleEv
	.section	.text._ZN8wxWindow14OnParentEnableEb,"axG",@progbits,_ZN8wxWindow14OnParentEnableEb,comdat
	.align 2
	.weak	_ZN8wxWindow14OnParentEnableEb
	.type	_ZN8wxWindow14OnParentEnableEb, @function
_ZN8wxWindow14OnParentEnableEb:
.LFB4941:
	.loc 7 147 0
	pushl	%ebp
.LCFI136:
	movl	%esp, %ebp
.LCFI137:
	subl	$4, %esp
.LCFI138:
	movl	12(%ebp), %eax
	movb	%al, -4(%ebp)
	.loc 7 147 0
	leave
	ret
.LFE4941:
	.size	_ZN8wxWindow14OnParentEnableEb, .-_ZN8wxWindow14OnParentEnableEb
	.section	.text._ZN8wxWindow15FixUpMouseEventEP10_GtkWidgetRiS2_,"axG",@progbits,_ZN8wxWindow15FixUpMouseEventEP10_GtkWidgetRiS2_,comdat
	.align 2
	.weak	_ZN8wxWindow15FixUpMouseEventEP10_GtkWidgetRiS2_
	.type	_ZN8wxWindow15FixUpMouseEventEP10_GtkWidgetRiS2_, @function
_ZN8wxWindow15FixUpMouseEventEP10_GtkWidgetRiS2_:
.LFB4944:
	.loc 7 240 0
	pushl	%ebp
.LCFI139:
	movl	%esp, %ebp
.LCFI140:
	.loc 7 240 0
	popl	%ebp
	ret
.LFE4944:
	.size	_ZN8wxWindow15FixUpMouseEventEP10_GtkWidgetRiS2_, .-_ZN8wxWindow15FixUpMouseEventEP10_GtkWidgetRiS2_
	.section	.text._ZNK8wxWindow21IsTransparentForMouseEv,"axG",@progbits,_ZNK8wxWindow21IsTransparentForMouseEv,comdat
	.align 2
	.weak	_ZNK8wxWindow21IsTransparentForMouseEv
	.type	_ZNK8wxWindow21IsTransparentForMouseEv, @function
_ZNK8wxWindow21IsTransparentForMouseEv:
.LFB4945:
	.loc 7 243 0
	pushl	%ebp
.LCFI141:
	movl	%esp, %ebp
.LCFI142:
	.loc 7 243 0
	movl	$0, %eax
	popl	%ebp
	ret
.LFE4945:
	.size	_ZNK8wxWindow21IsTransparentForMouseEv, .-_ZNK8wxWindow21IsTransparentForMouseEv
	.section	.text._ZNK8wxWindow13IsRadioButtonEv,"axG",@progbits,_ZNK8wxWindow13IsRadioButtonEv,comdat
	.align 2
	.weak	_ZNK8wxWindow13IsRadioButtonEv
	.type	_ZNK8wxWindow13IsRadioButtonEv, @function
_ZNK8wxWindow13IsRadioButtonEv:
.LFB4946:
	.loc 7 246 0
	pushl	%ebp
.LCFI143:
	movl	%esp, %ebp
.LCFI144:
	.loc 7 246 0
	movl	$0, %eax
	popl	%ebp
	ret
.LFE4946:
	.size	_ZNK8wxWindow13IsRadioButtonEv, .-_ZNK8wxWindow13IsRadioButtonEv
	.section	.text._ZNK9wxControl15UseGTKStyleBaseEv,"axG",@progbits,_ZNK9wxControl15UseGTKStyleBaseEv,comdat
	.align 2
	.weak	_ZNK9wxControl15UseGTKStyleBaseEv
	.type	_ZNK9wxControl15UseGTKStyleBaseEv, @function
_ZNK9wxControl15UseGTKStyleBaseEv:
.LFB4960:
	.file 8 "/usr/local/include/wx-2.8/wx/gtk/control.h"
	.loc 8 96 0
	pushl	%ebp
.LCFI145:
	movl	%esp, %ebp
.LCFI146:
	.loc 8 96 0
	movl	$0, %eax
	popl	%ebp
	ret
.LFE4960:
	.size	_ZNK9wxControl15UseGTKStyleBaseEv, .-_ZNK9wxControl15UseGTKStyleBaseEv
	.section	.text._ZN12wxButtonBase13SetImageLabelERK8wxBitmap,"axG",@progbits,_ZN12wxButtonBase13SetImageLabelERK8wxBitmap,comdat
	.align 2
	.weak	_ZN12wxButtonBase13SetImageLabelERK8wxBitmap
	.type	_ZN12wxButtonBase13SetImageLabelERK8wxBitmap, @function
_ZN12wxButtonBase13SetImageLabelERK8wxBitmap:
.LFB4968:
	.file 9 "/usr/local/include/wx-2.8/wx/button.h"
	.loc 9 62 0
	pushl	%ebp
.LCFI147:
	movl	%esp, %ebp
.LCFI148:
	.loc 9 62 0
	popl	%ebp
	ret
.LFE4968:
	.size	_ZN12wxButtonBase13SetImageLabelERK8wxBitmap, .-_ZN12wxButtonBase13SetImageLabelERK8wxBitmap
	.section	.text._ZN12wxButtonBase15SetImageMarginsEii,"axG",@progbits,_ZN12wxButtonBase15SetImageMarginsEii,comdat
	.align 2
	.weak	_ZN12wxButtonBase15SetImageMarginsEii
	.type	_ZN12wxButtonBase15SetImageMarginsEii, @function
_ZN12wxButtonBase15SetImageMarginsEii:
.LFB4969:
	.loc 9 65 0
	pushl	%ebp
.LCFI149:
	movl	%esp, %ebp
.LCFI150:
	.loc 9 65 0
	popl	%ebp
	ret
.LFE4969:
	.size	_ZN12wxButtonBase15SetImageMarginsEii, .-_ZN12wxButtonBase15SetImageMarginsEii
	.section	.text._ZN12wxButtonBase10SetDefaultEv,"axG",@progbits,_ZN12wxButtonBase10SetDefaultEv,comdat
	.align 2
	.weak	_ZN12wxButtonBase10SetDefaultEv
	.type	_ZN12wxButtonBase10SetDefaultEv, @function
_ZN12wxButtonBase10SetDefaultEv:
.LFB4970:
	.loc 9 69 0
	pushl	%ebp
.LCFI151:
	movl	%esp, %ebp
.LCFI152:
	.loc 9 69 0
	popl	%ebp
	ret
.LFE4970:
	.size	_ZN12wxButtonBase10SetDefaultEv, .-_ZN12wxButtonBase10SetDefaultEv
	.section	.text._ZNK12wxButtonBase20ShouldInheritColoursEv,"axG",@progbits,_ZNK12wxButtonBase20ShouldInheritColoursEv,comdat
	.align 2
	.weak	_ZNK12wxButtonBase20ShouldInheritColoursEv
	.type	_ZNK12wxButtonBase20ShouldInheritColoursEv, @function
_ZNK12wxButtonBase20ShouldInheritColoursEv:
.LFB4971:
	.loc 9 74 0
	pushl	%ebp
.LCFI153:
	movl	%esp, %ebp
.LCFI154:
	.loc 9 74 0
	movl	$0, %eax
	popl	%ebp
	ret
.LFE4971:
	.size	_ZNK12wxButtonBase20ShouldInheritColoursEv, .-_ZNK12wxButtonBase20ShouldInheritColoursEv
	.section	.text._ZN24wxItemContainerImmutableC2Ev,"axG",@progbits,_ZN24wxItemContainerImmutableC2Ev,comdat
	.align 2
	.weak	_ZN24wxItemContainerImmutableC2Ev
	.type	_ZN24wxItemContainerImmutableC2Ev, @function
_ZN24wxItemContainerImmutableC2Ev:
.LFB5606:
	.file 10 "/usr/local/include/wx-2.8/wx/ctrlsub.h"
	.loc 10 35 0
	pushl	%ebp
.LCFI155:
	movl	%esp, %ebp
.LCFI156:
.LBB9:
	.loc 10 35 0
	movl	$_ZTV24wxItemContainerImmutable+8, %edx
	movl	8(%ebp), %eax
	movl	%edx, (%eax)
.LBE9:
	popl	%ebp
	ret
.LFE5606:
	.size	_ZN24wxItemContainerImmutableC2Ev, .-_ZN24wxItemContainerImmutableC2Ev
	.section	.text._ZN15wxItemContainerC2Ev,"axG",@progbits,_ZN15wxItemContainerC2Ev,comdat
	.align 2
	.weak	_ZN15wxItemContainerC2Ev
	.type	_ZN15wxItemContainerC2Ev, @function
_ZN15wxItemContainerC2Ev:
.LFB5614:
	.loc 10 92 0
	pushl	%ebp
.LCFI157:
	movl	%esp, %ebp
.LCFI158:
	subl	$8, %esp
.LCFI159:
.LBB10:
	.loc 10 92 0
	movl	8(%ebp), %eax
	movl	%eax, (%esp)
	call	_ZN24wxItemContainerImmutableC2Ev
	movl	$_ZTV15wxItemContainer+8, %edx
	movl	8(%ebp), %eax
	movl	%edx, (%eax)
	movl	8(%ebp), %eax
	movl	$0, 4(%eax)
.LBE10:
	leave
	ret
.LFE5614:
	.size	_ZN15wxItemContainerC2Ev, .-_ZN15wxItemContainerC2Ev
	.section	.text._ZN14wxComboBoxBase20SetInsertionPointEndEv,"axG",@progbits,_ZN14wxComboBoxBase20SetInsertionPointEndEv,comdat
	.align 2
	.weak	_ZN14wxComboBoxBase20SetInsertionPointEndEv
	.type	_ZN14wxComboBoxBase20SetInsertionPointEndEv, @function
_ZN14wxComboBoxBase20SetInsertionPointEndEv:
.LFB5635:
	.file 11 "/usr/local/include/wx-2.8/wx/combobox.h"
	.loc 11 45 0
	pushl	%ebp
.LCFI160:
	movl	%esp, %ebp
.LCFI161:
	pushl	%ebx
.LCFI162:
	subl	$20, %esp
.LCFI163:
	.loc 11 46 0
	movl	8(%ebp), %eax
	movl	(%eax), %eax
	addl	$84, %eax
	movl	(%eax), %ebx
	movl	8(%ebp), %eax
	movl	(%eax), %eax
	addl	$92, %eax
	movl	(%eax), %edx
	movl	8(%ebp), %eax
	movl	%eax, (%esp)
	call	*%edx
	movl	%eax, 4(%esp)
	movl	8(%ebp), %eax
	movl	%eax, (%esp)
	call	*%ebx
	addl	$20, %esp
	popl	%ebx
	popl	%ebp
	ret
.LFE5635:
	.size	_ZN14wxComboBoxBase20SetInsertionPointEndEv, .-_ZN14wxComboBoxBase20SetInsertionPointEndEv
	.section	.text._ZNK14wxComboBoxBase19GetCurrentSelectionEv,"axG",@progbits,_ZNK14wxComboBoxBase19GetCurrentSelectionEv,comdat
	.align 2
	.weak	_ZNK14wxComboBoxBase19GetCurrentSelectionEv
	.type	_ZNK14wxComboBoxBase19GetCurrentSelectionEv, @function
_ZNK14wxComboBoxBase19GetCurrentSelectionEv:
.LFB5637:
	.loc 11 65 0
	pushl	%ebp
.LCFI164:
	movl	%esp, %ebp
.LCFI165:
	subl	$8, %esp
.LCFI166:
	.loc 11 65 0
	movl	8(%ebp), %eax
	movl	(%eax), %eax
	addl	$28, %eax
	movl	(%eax), %edx
	movl	8(%ebp), %eax
	movl	%eax, (%esp)
	call	*%edx
	leave
	ret
.LFE5637:
	.size	_ZNK14wxComboBoxBase19GetCurrentSelectionEv, .-_ZNK14wxComboBoxBase19GetCurrentSelectionEv
	.section	.text._ZN14wxComboBoxBaseC2Ev,"axG",@progbits,_ZN14wxComboBoxBaseC2Ev,comdat
	.align 2
	.weak	_ZN14wxComboBoxBaseC2Ev
	.type	_ZN14wxComboBoxBaseC2Ev, @function
_ZN14wxComboBoxBaseC2Ev:
.LFB5640:
	.loc 11 29 0
	pushl	%ebp
.LCFI167:
	movl	%esp, %ebp
.LCFI168:
	subl	$8, %esp
.LCFI169:
.LBB11:
	.loc 11 29 0
	movl	8(%ebp), %eax
	movl	%eax, (%esp)
	call	_ZN15wxItemContainerC2Ev
	movl	$_ZTV14wxComboBoxBase+8, %edx
	movl	8(%ebp), %eax
	movl	%edx, (%eax)
.LBE11:
	leave
	ret
.LFE5640:
	.size	_ZN14wxComboBoxBaseC2Ev, .-_ZN14wxComboBoxBaseC2Ev
	.section	.text._ZN7wxSizer3AddEP11wxSizerItem,"axG",@progbits,_ZN7wxSizer3AddEP11wxSizerItem,comdat
	.align 2
	.weak	_ZN7wxSizer3AddEP11wxSizerItem
	.type	_ZN7wxSizer3AddEP11wxSizerItem, @function
_ZN7wxSizer3AddEP11wxSizerItem:
.LFB5917:
	.file 12 "/usr/local/include/wx-2.8/wx/sizer.h"
	.loc 12 938 0
	pushl	%ebp
.LCFI170:
	movl	%esp, %ebp
.LCFI171:
	pushl	%ebx
.LCFI172:
	subl	$20, %esp
.LCFI173:
	.loc 12 940 0
	movl	8(%ebp), %eax
	movl	(%eax), %eax
	addl	$20, %eax
	movl	(%eax), %ebx
	movl	8(%ebp), %eax
	addl	$44, %eax
	movl	%eax, (%esp)
	call	_ZNK10wxListBase8GetCountEv
	movl	%eax, %edx
	movl	12(%ebp), %eax
	movl	%eax, 8(%esp)
	movl	%edx, 4(%esp)
	movl	8(%ebp), %eax
	movl	%eax, (%esp)
	call	*%ebx
	.loc 12 941 0
	addl	$20, %esp
	popl	%ebx
	popl	%ebp
	ret
.LFE5917:
	.size	_ZN7wxSizer3AddEP11wxSizerItem, .-_ZN7wxSizer3AddEP11wxSizerItem
	.section	.text._ZNK20wxTopLevelWindowBase20ShouldPreventAppExitEv,"axG",@progbits,_ZNK20wxTopLevelWindowBase20ShouldPreventAppExitEv,comdat
	.align 2
	.weak	_ZNK20wxTopLevelWindowBase20ShouldPreventAppExitEv
	.type	_ZNK20wxTopLevelWindowBase20ShouldPreventAppExitEv, @function
_ZNK20wxTopLevelWindowBase20ShouldPreventAppExitEv:
.LFB5992:
	.file 13 "/usr/local/include/wx-2.8/wx/toplevel.h"
	.loc 13 190 0
	pushl	%ebp
.LCFI174:
	movl	%esp, %ebp
.LCFI175:
	.loc 13 190 0
	movl	$1, %eax
	popl	%ebp
	ret
.LFE5992:
	.size	_ZNK20wxTopLevelWindowBase20ShouldPreventAppExitEv, .-_ZNK20wxTopLevelWindowBase20ShouldPreventAppExitEv
	.section	.text._ZNK20wxTopLevelWindowBase10IsTopLevelEv,"axG",@progbits,_ZNK20wxTopLevelWindowBase10IsTopLevelEv,comdat
	.align 2
	.weak	_ZNK20wxTopLevelWindowBase10IsTopLevelEv
	.type	_ZNK20wxTopLevelWindowBase10IsTopLevelEv, @function
_ZNK20wxTopLevelWindowBase10IsTopLevelEv:
.LFB5999:
	.loc 13 234 0
	pushl	%ebp
.LCFI176:
	movl	%esp, %ebp
.LCFI177:
	.loc 13 234 0
	movl	$1, %eax
	popl	%ebp
	ret
.LFE5999:
	.size	_ZNK20wxTopLevelWindowBase10IsTopLevelEv, .-_ZNK20wxTopLevelWindowBase10IsTopLevelEv
	.section	.text._ZNK20wxTopLevelWindowBase9IsVisibleEv,"axG",@progbits,_ZNK20wxTopLevelWindowBase9IsVisibleEv,comdat
	.align 2
	.weak	_ZNK20wxTopLevelWindowBase9IsVisibleEv
	.type	_ZNK20wxTopLevelWindowBase9IsVisibleEv, @function
_ZNK20wxTopLevelWindowBase9IsVisibleEv:
.LFB6000:
	.loc 13 235 0
	pushl	%ebp
.LCFI178:
	movl	%esp, %ebp
.LCFI179:
	subl	$8, %esp
.LCFI180:
	.loc 13 235 0
	movl	8(%ebp), %eax
	movl	(%eax), %eax
	addl	$164, %eax
	movl	(%eax), %edx
	movl	8(%ebp), %eax
	movl	%eax, (%esp)
	call	*%edx
	movzbl	%al, %eax
	leave
	ret
.LFE6000:
	.size	_ZNK20wxTopLevelWindowBase9IsVisibleEv, .-_ZNK20wxTopLevelWindowBase9IsVisibleEv
	.section	.text._ZNK20wxTopLevelWindowBase19DoGetScreenPositionEPiS0_,"axG",@progbits,_ZNK20wxTopLevelWindowBase19DoGetScreenPositionEPiS0_,comdat
	.align 2
	.weak	_ZNK20wxTopLevelWindowBase19DoGetScreenPositionEPiS0_
	.type	_ZNK20wxTopLevelWindowBase19DoGetScreenPositionEPiS0_, @function
_ZNK20wxTopLevelWindowBase19DoGetScreenPositionEPiS0_:
.LFB6003:
	.loc 13 271 0
	pushl	%ebp
.LCFI181:
	movl	%esp, %ebp
.LCFI182:
	subl	$24, %esp
.LCFI183:
	.loc 13 273 0
	movl	8(%ebp), %eax
	movl	(%eax), %eax
	addl	$524, %eax
	movl	(%eax), %ecx
	movl	8(%ebp), %edx
	movl	16(%ebp), %eax
	movl	%eax, 8(%esp)
	movl	12(%ebp), %eax
	movl	%eax, 4(%esp)
	movl	%edx, (%esp)
	call	*%ecx
	.loc 13 274 0
	leave
	ret
.LFE6003:
	.size	_ZNK20wxTopLevelWindowBase19DoGetScreenPositionEPiS0_, .-_ZNK20wxTopLevelWindowBase19DoGetScreenPositionEPiS0_
	.section	.text._ZNK20wxTopLevelWindowBase11IsOneOfBarsEPK8wxWindow,"axG",@progbits,_ZNK20wxTopLevelWindowBase11IsOneOfBarsEPK8wxWindow,comdat
	.align 2
	.weak	_ZNK20wxTopLevelWindowBase11IsOneOfBarsEPK8wxWindow
	.type	_ZNK20wxTopLevelWindowBase11IsOneOfBarsEPK8wxWindow, @function
_ZNK20wxTopLevelWindowBase11IsOneOfBarsEPK8wxWindow:
.LFB6004:
	.loc 13 278 0
	pushl	%ebp
.LCFI184:
	movl	%esp, %ebp
.LCFI185:
	.loc 13 279 0
	movl	$0, %eax
	popl	%ebp
	ret
.LFE6004:
	.size	_ZNK20wxTopLevelWindowBase11IsOneOfBarsEPK8wxWindow, .-_ZNK20wxTopLevelWindowBase11IsOneOfBarsEPK8wxWindow
	.section	.text._ZNK19wxTopLevelWindowGTK12IsFullScreenEv,"axG",@progbits,_ZNK19wxTopLevelWindowGTK12IsFullScreenEv,comdat
	.align 2
	.weak	_ZNK19wxTopLevelWindowGTK12IsFullScreenEv
	.type	_ZNK19wxTopLevelWindowGTK12IsFullScreenEv, @function
_ZNK19wxTopLevelWindowGTK12IsFullScreenEv:
.LFB6013:
	.file 14 "/usr/local/include/wx-2.8/wx/gtk/toplevel.h"
	.loc 14 57 0
	pushl	%ebp
.LCFI186:
	movl	%esp, %ebp
.LCFI187:
	.loc 14 57 0
	movl	8(%ebp), %eax
	movzbl	369(%eax), %eax
	movzbl	%al, %eax
	popl	%ebp
	ret
.LFE6013:
	.size	_ZNK19wxTopLevelWindowGTK12IsFullScreenEv, .-_ZNK19wxTopLevelWindowGTK12IsFullScreenEv
	.section	.text._ZNK19wxTopLevelWindowGTK8GetTitleEv,"axG",@progbits,_ZNK19wxTopLevelWindowGTK8GetTitleEv,comdat
	.align 2
	.weak	_ZNK19wxTopLevelWindowGTK8GetTitleEv
	.type	_ZNK19wxTopLevelWindowGTK8GetTitleEv, @function
_ZNK19wxTopLevelWindowGTK8GetTitleEv:
.LFB6014:
	.loc 14 72 0
	pushl	%ebp
.LCFI188:
	movl	%esp, %ebp
.LCFI189:
	pushl	%ebx
.LCFI190:
	subl	$20, %esp
.LCFI191:
	movl	8(%ebp), %ebx
	.loc 14 72 0
	movl	%ebx, %edx
	movl	12(%ebp), %eax
	addl	$412, %eax
	movl	%eax, 4(%esp)
	movl	%edx, (%esp)
	call	_ZN8wxStringC1ERKS_
	movl	%ebx, %eax
	addl	$20, %esp
	popl	%ebx
	popl	%ebp
	ret	$4
.LFE6014:
	.size	_ZNK19wxTopLevelWindowGTK8GetTitleEv, .-_ZNK19wxTopLevelWindowGTK8GetTitleEv
	.section	.text._ZNK19wxTopLevelWindowGTK9IsGrabbedEv,"axG",@progbits,_ZNK19wxTopLevelWindowGTK9IsGrabbedEv,comdat
	.align 2
	.weak	_ZNK19wxTopLevelWindowGTK9IsGrabbedEv
	.type	_ZNK19wxTopLevelWindowGTK9IsGrabbedEv, @function
_ZNK19wxTopLevelWindowGTK9IsGrabbedEv:
.LFB6015:
	.loc 14 81 0
	pushl	%ebp
.LCFI192:
	movl	%esp, %ebp
.LCFI193:
	.loc 14 81 0
	movl	8(%ebp), %eax
	movzbl	417(%eax), %eax
	movzbl	%al, %eax
	popl	%ebp
	ret
.LFE6015:
	.size	_ZNK19wxTopLevelWindowGTK9IsGrabbedEv, .-_ZNK19wxTopLevelWindowGTK9IsGrabbedEv
	.text
	.align 2
.globl _ZNK10TestDialog13GetEventTableEv
	.type	_ZNK10TestDialog13GetEventTableEv, @function
_ZNK10TestDialog13GetEventTableEv:
.LFB6093:
	.file 15 "TestDialog.cpp"
	.loc 15 9 0
	pushl	%ebp
.LCFI194:
	movl	%esp, %ebp
.LCFI195:
	.loc 15 9 0
	movl	$_ZN10TestDialog13sm_eventTableE, %eax
	popl	%ebp
	ret
.LFE6093:
	.size	_ZNK10TestDialog13GetEventTableEv, .-_ZNK10TestDialog13GetEventTableEv
	.align 2
.globl _ZNK10TestDialog17GetEventHashTableEv
	.type	_ZNK10TestDialog17GetEventHashTableEv, @function
_ZNK10TestDialog17GetEventHashTableEv:
.LFB6094:
	.loc 15 9 0
	pushl	%ebp
.LCFI196:
	movl	%esp, %ebp
.LCFI197:
	.loc 15 9 0
	movl	$_ZN10TestDialog17sm_eventHashTableE, %eax
	popl	%ebp
	ret
.LFE6094:
	.size	_ZNK10TestDialog17GetEventHashTableEv, .-_ZNK10TestDialog17GetEventHashTableEv
	.section	.text._ZN20wxThreadHelperThreadD0Ev,"axG",@progbits,_ZN20wxThreadHelperThreadD0Ev,comdat
	.align 2
	.weak	_ZN20wxThreadHelperThreadD0Ev
	.type	_ZN20wxThreadHelperThreadD0Ev, @function
_ZN20wxThreadHelperThreadD0Ev:
.LFB6142:
	.loc 4 594 0
	pushl	%ebp
.LCFI198:
	movl	%esp, %ebp
.LCFI199:
	subl	$8, %esp
.LCFI200:
	.loc 4 594 0
	movl	$_ZTV20wxThreadHelperThread+8, %edx
	movl	8(%ebp), %eax
	movl	%edx, (%eax)
	movl	8(%ebp), %eax
	movl	%eax, (%esp)
	call	_ZN8wxThreadD2Ev
	movl	$1, %eax
	testb	%al, %al
	je	.L181
	movl	8(%ebp), %eax
	movl	%eax, (%esp)
	call	_ZdlPv
.L181:
	leave
	ret
.LFE6142:
	.size	_ZN20wxThreadHelperThreadD0Ev, .-_ZN20wxThreadHelperThreadD0Ev
	.section	.text._ZN20wxThreadHelperThreadD1Ev,"axG",@progbits,_ZN20wxThreadHelperThreadD1Ev,comdat
	.align 2
	.weak	_ZN20wxThreadHelperThreadD1Ev
	.type	_ZN20wxThreadHelperThreadD1Ev, @function
_ZN20wxThreadHelperThreadD1Ev:
.LFB6141:
	.loc 4 594 0
	pushl	%ebp
.LCFI201:
	movl	%esp, %ebp
.LCFI202:
	subl	$8, %esp
.LCFI203:
	.loc 4 594 0
	movl	$_ZTV20wxThreadHelperThread+8, %edx
	movl	8(%ebp), %eax
	movl	%edx, (%eax)
	movl	8(%ebp), %eax
	movl	%eax, (%esp)
	call	_ZN8wxThreadD2Ev
	movl	$0, %eax
	testb	%al, %al
	je	.L186
	movl	8(%ebp), %eax
	movl	%eax, (%esp)
	call	_ZdlPv
.L186:
	leave
	ret
.LFE6141:
	.size	_ZN20wxThreadHelperThreadD1Ev, .-_ZN20wxThreadHelperThreadD1Ev
	.section	.text._ZN12wxWindowBase18SetInitialBestSizeERK6wxSize,"axG",@progbits,_ZN12wxWindowBase18SetInitialBestSizeERK6wxSize,comdat
	.align 2
	.weak	_ZN12wxWindowBase18SetInitialBestSizeERK6wxSize
	.type	_ZN12wxWindowBase18SetInitialBestSizeERK6wxSize, @function
_ZN12wxWindowBase18SetInitialBestSizeERK6wxSize:
.LFB4849:
	.loc 6 1453 0
	pushl	%ebp
.LCFI204:
	movl	%esp, %ebp
.LCFI205:
	subl	$8, %esp
.LCFI206:
	.loc 6 1455 0
	movl	12(%ebp), %eax
	movl	%eax, 4(%esp)
	movl	8(%ebp), %eax
	movl	%eax, (%esp)
	call	_ZN12wxWindowBase14SetInitialSizeERK6wxSize
	.loc 6 1456 0
	leave
	ret
.LFE4849:
	.size	_ZN12wxWindowBase18SetInitialBestSizeERK6wxSize, .-_ZN12wxWindowBase18SetInitialBestSizeERK6wxSize
	.section	.text._ZNK12wxWindowBase20GetDefaultAttributesEv,"axG",@progbits,_ZNK12wxWindowBase20GetDefaultAttributesEv,comdat
	.align 2
	.weak	_ZNK12wxWindowBase20GetDefaultAttributesEv
	.type	_ZNK12wxWindowBase20GetDefaultAttributesEv, @function
_ZNK12wxWindowBase20GetDefaultAttributesEv:
.LFB4771:
	.loc 6 791 0
	pushl	%ebp
.LCFI207:
	movl	%esp, %ebp
.LCFI208:
	pushl	%esi
.LCFI209:
	pushl	%ebx
.LCFI210:
	subl	$16, %esp
.LCFI211:
	movl	8(%ebp), %ebx
	.loc 6 793 0
	movl	%ebx, %esi
	movl	12(%ebp), %eax
	movl	%eax, (%esp)
	call	_ZNK12wxWindowBase16GetWindowVariantEv
	movl	%eax, 4(%esp)
	movl	%esi, (%esp)
	call	_ZN12wxWindowBase25GetClassDefaultAttributesE15wxWindowVariant
	subl	$4, %esp
	.loc 6 794 0
	movl	%ebx, %eax
	leal	-8(%ebp), %esp
	popl	%ebx
	popl	%esi
	popl	%ebp
	ret	$4
.LFE4771:
	.size	_ZNK12wxWindowBase20GetDefaultAttributesEv, .-_ZNK12wxWindowBase20GetDefaultAttributesEv
	.section	.text._ZNK12wxWindowBase10HasCaptureEv,"axG",@progbits,_ZNK12wxWindowBase10HasCaptureEv,comdat
	.align 2
	.weak	_ZNK12wxWindowBase10HasCaptureEv
	.type	_ZNK12wxWindowBase10HasCaptureEv, @function
_ZNK12wxWindowBase10HasCaptureEv:
.LFB4757:
	.loc 6 721 0
	pushl	%ebp
.LCFI212:
	movl	%esp, %ebp
.LCFI213:
	subl	$8, %esp
.LCFI214:
	.loc 6 722 0
	call	_ZN12wxWindowBase10GetCaptureEv
	movl	%eax, %edx
	movl	8(%ebp), %eax
	cmpl	%eax, %edx
	sete	%al
	movzbl	%al, %eax
	leave
	ret
.LFE4757:
	.size	_ZNK12wxWindowBase10HasCaptureEv, .-_ZNK12wxWindowBase10HasCaptureEv
	.section	.text._ZN8wxObjectaSERKS_,"axG",@progbits,_ZN8wxObjectaSERKS_,comdat
	.align 2
	.weak	_ZN8wxObjectaSERKS_
	.type	_ZN8wxObjectaSERKS_, @function
_ZN8wxObjectaSERKS_:
.LFB1402:
	.file 16 "/usr/local/include/wx-2.8/wx/object.h"
	.loc 16 422 0
	pushl	%ebp
.LCFI215:
	movl	%esp, %ebp
.LCFI216:
	subl	$8, %esp
.LCFI217:
	.loc 16 424 0
	movl	8(%ebp), %eax
	cmpl	12(%ebp), %eax
	je	.L194
	.loc 16 426 0
	movl	12(%ebp), %eax
	movl	%eax, 4(%esp)
	movl	8(%ebp), %eax
	movl	%eax, (%esp)
	call	_ZN8wxObject3RefERKS_
.L194:
	.loc 16 428 0
	movl	8(%ebp), %eax
	.loc 16 429 0
	leave
	ret
.LFE1402:
	.size	_ZN8wxObjectaSERKS_, .-_ZN8wxObjectaSERKS_
	.section	.text._ZN18wxAcceleratorTableaSERKS_,"axG",@progbits,_ZN18wxAcceleratorTableaSERKS_,comdat
	.align 2
	.weak	_ZN18wxAcceleratorTableaSERKS_
	.type	_ZN18wxAcceleratorTableaSERKS_, @function
_ZN18wxAcceleratorTableaSERKS_:
.LFB4753:
	.file 17 "/usr/local/include/wx-2.8/wx/generic/accel.h"
	.loc 17 20 0
	pushl	%ebp
.LCFI218:
	movl	%esp, %ebp
.LCFI219:
	subl	$8, %esp
.LCFI220:
	.loc 17 20 0
	movl	12(%ebp), %eax
	movl	8(%ebp), %edx
	movl	%eax, 4(%esp)
	movl	%edx, (%esp)
	call	_ZN8wxObjectaSERKS_
	movl	8(%ebp), %eax
	leave
	ret
.LFE4753:
	.size	_ZN18wxAcceleratorTableaSERKS_, .-_ZN18wxAcceleratorTableaSERKS_
	.section	.text._ZN12wxWindowBase19SetAcceleratorTableERK18wxAcceleratorTable,"axG",@progbits,_ZN12wxWindowBase19SetAcceleratorTableERK18wxAcceleratorTable,comdat
	.align 2
	.weak	_ZN12wxWindowBase19SetAcceleratorTableERK18wxAcceleratorTable
	.type	_ZN12wxWindowBase19SetAcceleratorTableERK18wxAcceleratorTable, @function
_ZN12wxWindowBase19SetAcceleratorTableERK18wxAcceleratorTable:
.LFB4752:
	.loc 6 669 0
	pushl	%ebp
.LCFI221:
	movl	%esp, %ebp
.LCFI222:
	subl	$8, %esp
.LCFI223:
	.loc 6 670 0
	movl	8(%ebp), %edx
	addl	$148, %edx
	movl	12(%ebp), %eax
	movl	%eax, 4(%esp)
	movl	%edx, (%esp)
	call	_ZN18wxAcceleratorTableaSERKS_
	leave
	ret
.LFE4752:
	.size	_ZN12wxWindowBase19SetAcceleratorTableERK18wxAcceleratorTable, .-_ZN12wxWindowBase19SetAcceleratorTableERK18wxAcceleratorTable
	.section	.text._ZN8wxStringaSERKS_,"axG",@progbits,_ZN8wxStringaSERKS_,comdat
	.align 2
	.weak	_ZN8wxStringaSERKS_
	.type	_ZN8wxStringaSERKS_, @function
_ZN8wxStringaSERKS_:
.LFB1226:
	.loc 1 660 0
	pushl	%ebp
.LCFI224:
	movl	%esp, %ebp
.LCFI225:
	subl	$8, %esp
.LCFI226:
	.loc 1 660 0
	movl	12(%ebp), %eax
	movl	8(%ebp), %edx
	movl	%eax, 4(%esp)
	movl	%edx, (%esp)
	call	_ZN12wxStringBaseaSERKS_
	movl	8(%ebp), %eax
	leave
	ret
.LFE1226:
	.size	_ZN8wxStringaSERKS_, .-_ZN8wxStringaSERKS_
	.section	.text._ZN12wxWindowBase7SetNameERK8wxString,"axG",@progbits,_ZN12wxWindowBase7SetNameERK8wxString,comdat
	.align 2
	.weak	_ZN12wxWindowBase7SetNameERK8wxString
	.type	_ZN12wxWindowBase7SetNameERK8wxString, @function
_ZN12wxWindowBase7SetNameERK8wxString:
.LFB4667:
	.loc 6 182 0
	pushl	%ebp
.LCFI227:
	movl	%esp, %ebp
.LCFI228:
	subl	$8, %esp
.LCFI229:
	.loc 6 182 0
	movl	8(%ebp), %edx
	addl	$188, %edx
	movl	12(%ebp), %eax
	movl	%eax, 4(%esp)
	movl	%edx, (%esp)
	call	_ZN8wxStringaSERKS_
	leave
	ret
.LFE4667:
	.size	_ZN12wxWindowBase7SetNameERK8wxString, .-_ZN12wxWindowBase7SetNameERK8wxString
	.section	.text._ZN12wxStringBaseC2EPKw,"axG",@progbits,_ZN12wxStringBaseC2EPKw,comdat
	.align 2
	.weak	_ZN12wxStringBaseC2EPKw
	.type	_ZN12wxStringBaseC2EPKw, @function
_ZN12wxStringBaseC2EPKw:
.LFB1079:
	.loc 1 367 0
	pushl	%ebp
.LCFI230:
	movl	%esp, %ebp
.LCFI231:
	subl	$24, %esp
.LCFI232:
.LBB12:
	.loc 1 368 0
	movl	_ZN12wxStringBase4nposE, %eax
	movl	%eax, 12(%esp)
	movl	$0, 8(%esp)
	movl	12(%ebp), %eax
	movl	%eax, 4(%esp)
	movl	8(%ebp), %eax
	movl	%eax, (%esp)
	call	_ZN12wxStringBase8InitWithEPKwjj
.LBE12:
	leave
	ret
.LFE1079:
	.size	_ZN12wxStringBaseC2EPKw, .-_ZN12wxStringBaseC2EPKw
	.section	.rodata
	.align 4
.LC0:
	.string	""
	.string	""
	.string	""
	.string	""
	.section	.text._ZN8wxStringC1EPKw,"axG",@progbits,_ZN8wxStringC1EPKw,comdat
	.align 2
	.weak	_ZN8wxStringC1EPKw
	.type	_ZN8wxStringC1EPKw, @function
_ZN8wxStringC1EPKw:
.LFB1160:
	.loc 1 698 0
	pushl	%ebp
.LCFI233:
	movl	%esp, %ebp
.LCFI234:
	subl	$24, %esp
.LCFI235:
.LBB13:
	.loc 1 699 0
	cmpl	$0, 12(%ebp)
	je	.L208
	movl	12(%ebp), %eax
	movl	%eax, -4(%ebp)
	jmp	.L210
.L208:
	movl	$.LC0, -4(%ebp)
.L210:
	movl	8(%ebp), %eax
	movl	-4(%ebp), %edx
	movl	%edx, 4(%esp)
	movl	%eax, (%esp)
	call	_ZN12wxStringBaseC2EPKw
.LBE13:
	leave
	ret
.LFE1160:
	.size	_ZN8wxStringC1EPKw, .-_ZN8wxStringC1EPKw
	.section	.text._ZNK8wxWindow8GetLabelEv,"axG",@progbits,_ZNK8wxWindow8GetLabelEv,comdat
	.align 2
	.weak	_ZNK8wxWindow8GetLabelEv
	.type	_ZNK8wxWindow8GetLabelEv, @function
_ZNK8wxWindow8GetLabelEv:
.LFB4938:
	.loc 7 56 0
	pushl	%ebp
.LCFI236:
	movl	%esp, %ebp
.LCFI237:
	pushl	%ebx
.LCFI238:
	subl	$20, %esp
.LCFI239:
	movl	8(%ebp), %ebx
	.loc 7 56 0
	movl	%ebx, %edx
	movl	wxEmptyString, %eax
	movl	%eax, 4(%esp)
	movl	%edx, (%esp)
	call	_ZN8wxStringC1EPKw
	movl	%ebx, %eax
	addl	$20, %esp
	popl	%ebx
	popl	%ebp
	ret	$4
.LFE4938:
	.size	_ZNK8wxWindow8GetLabelEv, .-_ZNK8wxWindow8GetLabelEv
	.text
	.align 2
	.type	_Z41__static_initialization_and_destruction_0ii, @function
_Z41__static_initialization_and_destruction_0ii:
.LFB6121:
	.loc 15 79 0
	pushl	%ebp
.LCFI240:
	movl	%esp, %ebp
.LCFI241:
	pushl	%ebx
.LCFI242:
	subl	$84, %esp
.LCFI243:
	movl	%eax, -12(%ebp)
	movl	%edx, -16(%ebp)
	.loc 15 79 0
	cmpl	$1, -12(%ebp)
	jne	.L218
	cmpl	$65535, -16(%ebp)
	jne	.L218
	.file 18 "/usr/lib/gcc/i386-redhat-linux/4.1.2/../../../../include/c++/4.1.2/iostream"
	.loc 18 76 0
	movl	$_ZSt8__ioinit, (%esp)
	call	_ZNSt8ios_base4InitC1Ev
	movl	$__dso_handle, 8(%esp)
	movl	$0, 4(%esp)
	movl	$__tcf_0, (%esp)
	call	__cxa_atexit
	.loc 15 9 0
	movl	$_ZN10TestDialog13sm_eventTableE, 4(%esp)
	movl	$_ZN10TestDialog17sm_eventHashTableE, (%esp)
	call	_ZN16wxEventHashTableC1ERK12wxEventTable
	movl	$__dso_handle, 8(%esp)
	movl	$0, 4(%esp)
	movl	$__tcf_1, (%esp)
	call	__cxa_atexit
	.loc 15 13 0
	movl	$_ZN10TestDialog20sm_eventTableEntriesE, %eax
	movl	%eax, %ebx
	movl	$_ZN10TestDialog15OnButtonClickOKER14wxCommandEvent, -48(%ebp)
	movl	$0, -44(%ebp)
	movl	-48(%ebp), %eax
	movl	-44(%ebp), %edx
	movl	$0, 24(%esp)
	movl	%eax, 16(%esp)
	movl	%edx, 20(%esp)
	movl	$-1, 12(%esp)
	movl	$5100, 8(%esp)
	movl	$wxEVT_COMMAND_BUTTON_CLICKED, 4(%esp)
	movl	%ebx, (%esp)
	call	_ZN17wxEventTableEntryC1ERKiiiM8wxObjectFvR7wxEventEPS2_
	addl	$24, %ebx
	movl	$_ZN10TestDialog19OnButtonClickCancelER14wxCommandEvent, -40(%ebp)
	movl	$0, -36(%ebp)
	movl	-40(%ebp), %eax
	movl	-36(%ebp), %edx
	movl	$0, 24(%esp)
	movl	%eax, 16(%esp)
	movl	%edx, 20(%esp)
	movl	$-1, 12(%esp)
	movl	$5101, 8(%esp)
	movl	$wxEVT_COMMAND_BUTTON_CLICKED, 4(%esp)
	movl	%ebx, (%esp)
	call	_ZN17wxEventTableEntryC1ERKiiiM8wxObjectFvR7wxEventEPS2_
	addl	$24, %ebx
	movl	$_ZN10TestDialog14OnButtonSelectER14wxCommandEvent, -32(%ebp)
	movl	$0, -28(%ebp)
	movl	-32(%ebp), %eax
	movl	-28(%ebp), %edx
	movl	$0, 24(%esp)
	movl	%eax, 16(%esp)
	movl	%edx, 20(%esp)
	movl	$-1, 12(%esp)
	movl	$1044, 8(%esp)
	movl	$wxEVT_COMMAND_BUTTON_CLICKED, 4(%esp)
	movl	%ebx, (%esp)
	call	_ZN17wxEventTableEntryC1ERKiiiM8wxObjectFvR7wxEventEPS2_
	addl	$24, %ebx
	movl	$0, -24(%ebp)
	movl	$0, -20(%ebp)
	movl	$0, 24(%esp)
	movl	-24(%ebp), %eax
	movl	-20(%ebp), %edx
	movl	%eax, 16(%esp)
	movl	%edx, 20(%esp)
	movl	$0, 12(%esp)
	movl	$0, 8(%esp)
	movl	$wxEVT_NULL, 4(%esp)
	movl	%ebx, (%esp)
	call	_ZN17wxEventTableEntryC1ERKiiiM8wxObjectFvR7wxEventEPS2_
.L218:
	.loc 15 79 0
	addl	$84, %esp
	popl	%ebx
	popl	%ebp
	ret
.LFE6121:
	.size	_Z41__static_initialization_and_destruction_0ii, .-_Z41__static_initialization_and_destruction_0ii
	.align 2
	.type	_GLOBAL__I__ZN10TestDialog13sm_eventTableE, @function
_GLOBAL__I__ZN10TestDialog13sm_eventTableE:
.LFB6147:
	.loc 15 80 0
	pushl	%ebp
.LCFI244:
	movl	%esp, %ebp
.LCFI245:
	subl	$8, %esp
.LCFI246:
	.loc 15 80 0
	movl	$65535, %edx
	movl	$1, %eax
	call	_Z41__static_initialization_and_destruction_0ii
	leave
	ret
.LFE6147:
	.size	_GLOBAL__I__ZN10TestDialog13sm_eventTableE, .-_GLOBAL__I__ZN10TestDialog13sm_eventTableE
	.align 2
	.type	__tcf_1, @function
__tcf_1:
.LFB6123:
	.loc 15 9 0
	pushl	%ebp
.LCFI247:
	movl	%esp, %ebp
.LCFI248:
	subl	$8, %esp
.LCFI249:
	.loc 15 9 0
	movl	$_ZN10TestDialog17sm_eventHashTableE, (%esp)
	call	_ZN16wxEventHashTableD1Ev
	leave
	ret
.LFE6123:
	.size	__tcf_1, .-__tcf_1
	.align 2
	.type	__tcf_0, @function
__tcf_0:
.LFB6122:
	.loc 18 76 0
	pushl	%ebp
.LCFI250:
	movl	%esp, %ebp
.LCFI251:
	subl	$8, %esp
.LCFI252:
	.loc 18 76 0
	movl	$_ZSt8__ioinit, (%esp)
	call	_ZNSt8ios_base4InitD1Ev
	leave
	ret
.LFE6122:
	.size	__tcf_0, .-__tcf_0
	.section	.text._ZN12wxStringData6UnlockEv,"axG",@progbits,_ZN12wxStringData6UnlockEv,comdat
	.align 2
	.weak	_ZN12wxStringData6UnlockEv
	.type	_ZN12wxStringData6UnlockEv, @function
_ZN12wxStringData6UnlockEv:
.LFB1037:
	.loc 1 243 0
	pushl	%ebp
.LCFI253:
	movl	%esp, %ebp
.LCFI254:
	subl	$8, %esp
.LCFI255:
	.loc 1 243 0
	movl	8(%ebp), %eax
	movl	%eax, (%esp)
	call	_ZNK12wxStringData7IsEmptyEv
	xorl	$1, %eax
	xorl	$1, %eax
	testb	%al, %al
	jne	.L226
	movl	8(%ebp), %eax
	movl	(%eax), %eax
	leal	-1(%eax), %edx
	movl	8(%ebp), %eax
	movl	%edx, (%eax)
	movl	8(%ebp), %eax
	movl	(%eax), %eax
	testl	%eax, %eax
	jne	.L226
	movb	$1, -1(%ebp)
	jmp	.L229
.L226:
	movb	$0, -1(%ebp)
.L229:
	movzbl	-1(%ebp), %eax
	testb	%al, %al
	je	.L232
	movl	8(%ebp), %eax
	movl	%eax, (%esp)
	call	free
.L232:
	leave
	ret
.LFE1037:
	.size	_ZN12wxStringData6UnlockEv, .-_ZN12wxStringData6UnlockEv
	.section	.text._ZN12wxStringBaseD2Ev,"axG",@progbits,_ZN12wxStringBaseD2Ev,comdat
	.align 2
	.weak	_ZN12wxStringBaseD2Ev
	.type	_ZN12wxStringBaseD2Ev, @function
_ZN12wxStringBaseD2Ev:
.LFB1091:
	.loc 1 388 0
	pushl	%ebp
.LCFI256:
	movl	%esp, %ebp
.LCFI257:
	subl	$8, %esp
.LCFI258:
	.loc 1 396 0
	movl	8(%ebp), %eax
	movl	%eax, (%esp)
	call	_ZNK12wxStringBase13GetStringDataEv
	movl	%eax, (%esp)
	call	_ZN12wxStringData6UnlockEv
	.loc 1 397 0
	leave
	ret
.LFE1091:
	.size	_ZN12wxStringBaseD2Ev, .-_ZN12wxStringBaseD2Ev
	.section	.text._ZN8wxStringD1Ev,"axG",@progbits,_ZN8wxStringD1Ev,comdat
	.align 2
	.weak	_ZN8wxStringD1Ev
	.type	_ZN8wxStringD1Ev, @function
_ZN8wxStringD1Ev:
.LFB1180:
	.loc 1 660 0
	pushl	%ebp
.LCFI259:
	movl	%esp, %ebp
.LCFI260:
	subl	$8, %esp
.LCFI261:
	.loc 1 660 0
	movl	8(%ebp), %eax
	movl	%eax, (%esp)
	call	_ZN12wxStringBaseD2Ev
	leave
	ret
.LFE1180:
	.size	_ZN8wxStringD1Ev, .-_ZN8wxStringD1Ev
	.section	.rodata
	.align 4
.LC1:
	.string	"i"
	.string	""
	.string	""
	.string	"m"
	.string	""
	.string	""
	.string	"p"
	.string	""
	.string	""
	.string	"l"
	.string	""
	.string	""
	.string	""
	.string	""
	.string	""
	.string	""
.globl _Unwind_Resume
	.text
	.align 2
.globl _ZN10TestDialog14OnButtonSelectER14wxCommandEvent
	.type	_ZN10TestDialog14OnButtonSelectER14wxCommandEvent, @function
_ZN10TestDialog14OnButtonSelectER14wxCommandEvent:
.LFB6104:
	.loc 15 76 0
	pushl	%ebp
.LCFI262:
	movl	%esp, %ebp
.LCFI263:
	pushl	%ebx
.LCFI264:
	subl	$52, %esp
.LCFI265:
	.loc 15 78 0
	movl	$wxMessageBoxCaptionStr, %eax
	movl	%eax, 4(%esp)
	leal	-12(%ebp), %eax
	movl	%eax, (%esp)
.LEHB0:
	call	_ZN8wxStringC1EPKw
.LEHE0:
	movl	$.LC1, 4(%esp)
	leal	-8(%ebp), %eax
	movl	%eax, (%esp)
.LEHB1:
	call	_ZN8wxStringC1EPKw
.LEHE1:
	movl	$-1, 20(%esp)
	movl	$-1, 16(%esp)
	movl	$0, 12(%esp)
	movl	$5, 8(%esp)
	leal	-12(%ebp), %eax
	movl	%eax, 4(%esp)
	leal	-8(%ebp), %eax
	movl	%eax, (%esp)
.LEHB2:
	call	_Z12wxMessageBoxRK8wxStringS1_lP8wxWindowii
.LEHE2:
	leal	-8(%ebp), %eax
	movl	%eax, (%esp)
	call	_ZN8wxStringD1Ev
	leal	-12(%ebp), %eax
	movl	%eax, (%esp)
	call	_ZN8wxStringD1Ev
	.loc 15 79 0
	jmp	.L242
.L243:
	movl	%eax, -24(%ebp)
.L240:
	movl	-24(%ebp), %ebx
	.loc 15 78 0
	leal	-8(%ebp), %eax
	movl	%eax, (%esp)
	call	_ZN8wxStringD1Ev
	movl	%ebx, -24(%ebp)
	jmp	.L241
.L244:
	movl	%eax, -24(%ebp)
.L241:
	movl	-24(%ebp), %ebx
	leal	-12(%ebp), %eax
	movl	%eax, (%esp)
	call	_ZN8wxStringD1Ev
	movl	%ebx, -24(%ebp)
	movl	-24(%ebp), %eax
	movl	%eax, (%esp)
.LEHB3:
	call	_Unwind_Resume
.LEHE3:
.L242:
	.loc 15 79 0
	addl	$52, %esp
	popl	%ebx
	popl	%ebp
	ret
.LFE6104:
	.size	_ZN10TestDialog14OnButtonSelectER14wxCommandEvent, .-_ZN10TestDialog14OnButtonSelectER14wxCommandEvent
	.section	.gcc_except_table,"a",@progbits
.LLSDA6104:
	.byte	0xff
	.byte	0xff
	.byte	0x1
	.uleb128 .LLSDACSE6104-.LLSDACSB6104
.LLSDACSB6104:
	.uleb128 .LEHB0-.LFB6104
	.uleb128 .LEHE0-.LEHB0
	.uleb128 0x0
	.uleb128 0x0
	.uleb128 .LEHB1-.LFB6104
	.uleb128 .LEHE1-.LEHB1
	.uleb128 .L244-.LFB6104
	.uleb128 0x0
	.uleb128 .LEHB2-.LFB6104
	.uleb128 .LEHE2-.LEHB2
	.uleb128 .L243-.LFB6104
	.uleb128 0x0
	.uleb128 .LEHB3-.LFB6104
	.uleb128 .LEHE3-.LEHB3
	.uleb128 0x0
	.uleb128 0x0
.LLSDACSE6104:
	.text
	.section	.text._ZN14wxComboBoxBase6RemoveEll,"axG",@progbits,_ZN14wxComboBoxBase6RemoveEll,comdat
	.align 2
	.weak	_ZN14wxComboBoxBase6RemoveEll
	.type	_ZN14wxComboBoxBase6RemoveEll, @function
_ZN14wxComboBoxBase6RemoveEll:
.LFB5636:
	.loc 11 47 0
	pushl	%ebp
.LCFI266:
	movl	%esp, %ebp
.LCFI267:
	pushl	%ebx
.LCFI268:
	subl	$36, %esp
.LCFI269:
	.loc 11 48 0
	movl	8(%ebp), %eax
	movl	(%eax), %eax
	addl	$96, %eax
	movl	(%eax), %ebx
	movl	wxEmptyString, %eax
	movl	%eax, 4(%esp)
	leal	-8(%ebp), %eax
	movl	%eax, (%esp)
.LEHB4:
	call	_ZN8wxStringC1EPKw
.LEHE4:
	leal	-8(%ebp), %eax
	movl	%eax, 12(%esp)
	movl	16(%ebp), %eax
	movl	%eax, 8(%esp)
	movl	12(%ebp), %eax
	movl	%eax, 4(%esp)
	movl	8(%ebp), %eax
	movl	%eax, (%esp)
.LEHB5:
	call	*%ebx
.LEHE5:
	leal	-8(%ebp), %eax
	movl	%eax, (%esp)
	call	_ZN8wxStringD1Ev
	jmp	.L247
.L248:
	movl	%eax, -24(%ebp)
.L246:
	movl	-24(%ebp), %ebx
	leal	-8(%ebp), %eax
	movl	%eax, (%esp)
	call	_ZN8wxStringD1Ev
	movl	%ebx, -24(%ebp)
	movl	-24(%ebp), %eax
	movl	%eax, (%esp)
.LEHB6:
	call	_Unwind_Resume
.LEHE6:
.L247:
	addl	$36, %esp
	popl	%ebx
	popl	%ebp
	ret
.LFE5636:
	.size	_ZN14wxComboBoxBase6RemoveEll, .-_ZN14wxComboBoxBase6RemoveEll
	.section	.gcc_except_table
.LLSDA5636:
	.byte	0xff
	.byte	0xff
	.byte	0x1
	.uleb128 .LLSDACSE5636-.LLSDACSB5636
.LLSDACSB5636:
	.uleb128 .LEHB4-.LFB5636
	.uleb128 .LEHE4-.LEHB4
	.uleb128 0x0
	.uleb128 0x0
	.uleb128 .LEHB5-.LFB5636
	.uleb128 .LEHE5-.LEHB5
	.uleb128 .L248-.LFB5636
	.uleb128 0x0
	.uleb128 .LEHB6-.LFB5636
	.uleb128 .LEHE6-.LEHB6
	.uleb128 0x0
	.uleb128 0x0
.LLSDACSE5636:
	.section	.text._ZN14wxComboBoxBase6RemoveEll,"axG",@progbits,_ZN14wxComboBoxBase6RemoveEll,comdat
	.text
	.align 2
.globl _ZN10TestDialog19OnButtonClickCancelER14wxCommandEvent
	.type	_ZN10TestDialog19OnButtonClickCancelER14wxCommandEvent, @function
_ZN10TestDialog19OnButtonClickCancelER14wxCommandEvent:
.LFB6103:
	.loc 15 70 0
	pushl	%ebp
.LCFI270:
	movl	%esp, %ebp
.LCFI271:
	subl	$8, %esp
.LCFI272:
	.loc 15 72 0
	movl	8(%ebp), %eax
	movl	$5101, 4(%esp)
	movl	%eax, (%esp)
	call	_ZN8wxDialog8EndModalEi
	.loc 15 73 0
	movl	$1, (%esp)
	call	exit
.LFE6103:
	.size	_ZN10TestDialog19OnButtonClickCancelER14wxCommandEvent, .-_ZN10TestDialog19OnButtonClickCancelER14wxCommandEvent
	.align 2
.globl _ZN10TestDialog15OnButtonClickOKER14wxCommandEvent
	.type	_ZN10TestDialog15OnButtonClickOKER14wxCommandEvent, @function
_ZN10TestDialog15OnButtonClickOKER14wxCommandEvent:
.LFB6102:
	.loc 15 63 0
	pushl	%ebp
.LCFI273:
	movl	%esp, %ebp
.LCFI274:
	subl	$8, %esp
.LCFI275:
	.loc 15 66 0
	movl	8(%ebp), %eax
	movl	$5100, 4(%esp)
	movl	%eax, (%esp)
	call	_ZN8wxDialog8EndModalEi
	.loc 15 67 0
	movl	$1, (%esp)
	call	exit
.LFE6102:
	.size	_ZN10TestDialog15OnButtonClickOKER14wxCommandEvent, .-_ZN10TestDialog15OnButtonClickOKER14wxCommandEvent
	.section	.text._ZN16wxTopLevelWindowD2Ev,"axG",@progbits,_ZN16wxTopLevelWindowD2Ev,comdat
	.align 2
	.weak	_ZN16wxTopLevelWindowD2Ev
	.type	_ZN16wxTopLevelWindowD2Ev, @function
_ZN16wxTopLevelWindowD2Ev:
.LFB6024:
	.loc 13 353 0
	pushl	%ebp
.LCFI276:
	movl	%esp, %ebp
.LCFI277:
	subl	$8, %esp
.LCFI278:
	.loc 13 353 0
	movl	$_ZTV16wxTopLevelWindow+8, %edx
	movl	8(%ebp), %eax
	movl	%edx, (%eax)
	movl	8(%ebp), %eax
	movl	%eax, (%esp)
	call	_ZN19wxTopLevelWindowGTKD2Ev
	movl	$0, %eax
	testb	%al, %al
	je	.L257
	movl	8(%ebp), %eax
	movl	%eax, (%esp)
	call	_ZdlPv
.L257:
	leave
	ret
.LFE6024:
	.size	_ZN16wxTopLevelWindowD2Ev, .-_ZN16wxTopLevelWindowD2Ev
	.section	.text._ZN12wxDialogBaseD2Ev,"axG",@progbits,_ZN12wxDialogBaseD2Ev,comdat
	.align 2
	.weak	_ZN12wxDialogBaseD2Ev
	.type	_ZN12wxDialogBaseD2Ev, @function
_ZN12wxDialogBaseD2Ev:
.LFB6030:
	.file 19 "/usr/local/include/wx-2.8/wx/dialog.h"
	.loc 19 42 0
	pushl	%ebp
.LCFI279:
	movl	%esp, %ebp
.LCFI280:
	subl	$8, %esp
.LCFI281:
	.loc 19 42 0
	movl	$_ZTV12wxDialogBase+8, %edx
	movl	8(%ebp), %eax
	movl	%edx, (%eax)
	movl	8(%ebp), %eax
	movl	%eax, (%esp)
	call	_ZN16wxTopLevelWindowD2Ev
	movl	$0, %eax
	testb	%al, %al
	je	.L262
	movl	8(%ebp), %eax
	movl	%eax, (%esp)
	call	_ZdlPv
.L262:
	leave
	ret
.LFE6030:
	.size	_ZN12wxDialogBaseD2Ev, .-_ZN12wxDialogBaseD2Ev
	.section	.text._ZN8wxDialogD2Ev,"axG",@progbits,_ZN8wxDialogD2Ev,comdat
	.align 2
	.weak	_ZN8wxDialogD2Ev
	.type	_ZN8wxDialogD2Ev, @function
_ZN8wxDialogD2Ev:
.LFB6041:
	.file 20 "/usr/local/include/wx-2.8/wx/gtk/dialog.h"
	.loc 20 48 0
	pushl	%ebp
.LCFI282:
	movl	%esp, %ebp
.LCFI283:
	subl	$8, %esp
.LCFI284:
	.loc 20 48 0
	movl	$_ZTV8wxDialog+8, %edx
	movl	8(%ebp), %eax
	movl	%edx, (%eax)
	movl	8(%ebp), %eax
	movl	%eax, (%esp)
	call	_ZN12wxDialogBaseD2Ev
	movl	$0, %eax
	testb	%al, %al
	je	.L267
	movl	8(%ebp), %eax
	movl	%eax, (%esp)
	call	_ZdlPv
.L267:
	leave
	ret
.LFE6041:
	.size	_ZN8wxDialogD2Ev, .-_ZN8wxDialogD2Ev
	.text
	.align 2
.globl _ZN10TestDialogD0Ev
	.type	_ZN10TestDialogD0Ev, @function
_ZN10TestDialogD0Ev:
.LFB6101:
	.loc 15 57 0
	pushl	%ebp
.LCFI285:
	movl	%esp, %ebp
.LCFI286:
	subl	$8, %esp
.LCFI287:
	.loc 15 57 0
	movl	$_ZTV10TestDialog+8, %edx
	movl	8(%ebp), %eax
	movl	%edx, (%eax)
	.loc 15 59 0
	movl	8(%ebp), %eax
	movl	%eax, (%esp)
	call	_ZN8wxDialogD2Ev
	movl	$1, %eax
	testb	%al, %al
	je	.L272
	movl	8(%ebp), %eax
	movl	%eax, (%esp)
	call	_ZdlPv
.L272:
	leave
	ret
.LFE6101:
	.size	_ZN10TestDialogD0Ev, .-_ZN10TestDialogD0Ev
	.align 2
.globl _ZN10TestDialogD1Ev
	.type	_ZN10TestDialogD1Ev, @function
_ZN10TestDialogD1Ev:
.LFB6100:
	.loc 15 57 0
	pushl	%ebp
.LCFI288:
	movl	%esp, %ebp
.LCFI289:
	subl	$8, %esp
.LCFI290:
	.loc 15 57 0
	movl	$_ZTV10TestDialog+8, %edx
	movl	8(%ebp), %eax
	movl	%edx, (%eax)
	.loc 15 59 0
	movl	8(%ebp), %eax
	movl	%eax, (%esp)
	call	_ZN8wxDialogD2Ev
	movl	$0, %eax
	testb	%al, %al
	je	.L277
	movl	8(%ebp), %eax
	movl	%eax, (%esp)
	call	_ZdlPv
.L277:
	leave
	ret
.LFE6100:
	.size	_ZN10TestDialogD1Ev, .-_ZN10TestDialogD1Ev
	.align 2
.globl _ZN10TestDialogD2Ev
	.type	_ZN10TestDialogD2Ev, @function
_ZN10TestDialogD2Ev:
.LFB6099:
	.loc 15 57 0
	pushl	%ebp
.LCFI291:
	movl	%esp, %ebp
.LCFI292:
	subl	$8, %esp
.LCFI293:
	.loc 15 57 0
	movl	$_ZTV10TestDialog+8, %edx
	movl	8(%ebp), %eax
	movl	%edx, (%eax)
	.loc 15 59 0
	movl	8(%ebp), %eax
	movl	%eax, (%esp)
	call	_ZN8wxDialogD2Ev
	movl	$0, %eax
	testb	%al, %al
	je	.L282
	movl	8(%ebp), %eax
	movl	%eax, (%esp)
	call	_ZdlPv
.L282:
	leave
	ret
.LFE6099:
	.size	_ZN10TestDialogD2Ev, .-_ZN10TestDialogD2Ev
	.section	.text._ZN12wxButtonBaseC2Ev,"axG",@progbits,_ZN12wxButtonBaseC2Ev,comdat
	.align 2
	.weak	_ZN12wxButtonBaseC2Ev
	.type	_ZN12wxButtonBaseC2Ev, @function
_ZN12wxButtonBaseC2Ev:
.LFB4966:
	.loc 9 59 0
	pushl	%ebp
.LCFI294:
	movl	%esp, %ebp
.LCFI295:
	subl	$8, %esp
.LCFI296:
.LBB14:
	.loc 9 59 0
	movl	8(%ebp), %eax
	movl	%eax, (%esp)
	call	_ZN9wxControlC2Ev
	movl	$_ZTV12wxButtonBase+8, %edx
	movl	8(%ebp), %eax
	movl	%edx, (%eax)
.LBE14:
	leave
	ret
.LFE4966:
	.size	_ZN12wxButtonBaseC2Ev, .-_ZN12wxButtonBaseC2Ev
	.section	.text._ZNK8wxString8IsSameAsEPKwb,"axG",@progbits,_ZNK8wxString8IsSameAsEPKwb,comdat
	.align 2
	.weak	_ZNK8wxString8IsSameAsEPKwb
	.type	_ZNK8wxString8IsSameAsEPKwb, @function
_ZNK8wxString8IsSameAsEPKwb:
.LFB1239:
	.loc 1 1101 0
	pushl	%ebp
.LCFI297:
	movl	%esp, %ebp
.LCFI298:
	subl	$24, %esp
.LCFI299:
	movl	16(%ebp), %eax
	movb	%al, -4(%ebp)
	.loc 1 1102 0
	cmpb	$0, -4(%ebp)
	je	.L286
	movl	12(%ebp), %eax
	movl	%eax, 4(%esp)
	movl	8(%ebp), %eax
	movl	%eax, (%esp)
	call	_ZNK8wxString3CmpEPKw
	testl	%eax, %eax
	sete	%al
	movzbl	%al, %eax
	movl	%eax, -8(%ebp)
	jmp	.L288
.L286:
	movl	12(%ebp), %eax
	movl	%eax, 4(%esp)
	movl	8(%ebp), %eax
	movl	%eax, (%esp)
	call	_ZNK8wxString9CmpNoCaseEPKw
	testl	%eax, %eax
	sete	%al
	movzbl	%al, %eax
	movl	%eax, -8(%ebp)
.L288:
	movl	-8(%ebp), %eax
	leave
	ret
.LFE1239:
	.size	_ZNK8wxString8IsSameAsEPKwb, .-_ZNK8wxString8IsSameAsEPKwb
	.section	.text._ZNK24wxItemContainerImmutable10FindStringERK8wxStringb,"axG",@progbits,_ZNK24wxItemContainerImmutable10FindStringERK8wxStringb,comdat
	.align 2
	.weak	_ZNK24wxItemContainerImmutable10FindStringERK8wxStringb
	.type	_ZNK24wxItemContainerImmutable10FindStringERK8wxStringb, @function
_ZNK24wxItemContainerImmutable10FindStringERK8wxStringb:
.LFB5609:
	.loc 10 51 0
	pushl	%ebp
.LCFI300:
	movl	%esp, %ebp
.LCFI301:
	pushl	%esi
.LCFI302:
	pushl	%ebx
.LCFI303:
	subl	$48, %esp
.LCFI304:
	movl	16(%ebp), %eax
	movb	%al, -28(%ebp)
.LBB15:
	.loc 10 53 0
	movl	8(%ebp), %eax
	movl	(%eax), %eax
	addl	$8, %eax
	movl	(%eax), %edx
	movl	8(%ebp), %eax
	movl	%eax, (%esp)
.LEHB7:
	call	*%edx
	movl	%eax, -16(%ebp)
.LBB16:
	.loc 10 55 0
	movl	$0, -12(%ebp)
	jmp	.L291
.L292:
	.loc 10 57 0
	movzbl	-28(%ebp), %ebx
	movl	12(%ebp), %eax
	movl	%eax, (%esp)
	call	_ZNK8wxStringcvPKwEv
	movl	%eax, %esi
	movl	8(%ebp), %eax
	movl	(%eax), %eax
	addl	$12, %eax
	movl	(%eax), %ecx
	leal	-20(%ebp), %edx
	movl	-12(%ebp), %eax
	movl	%eax, 8(%esp)
	movl	8(%ebp), %eax
	movl	%eax, 4(%esp)
	movl	%edx, (%esp)
	call	*%ecx
.LEHE7:
	subl	$4, %esp
	movl	%ebx, 8(%esp)
	movl	%esi, 4(%esp)
	leal	-20(%ebp), %eax
	movl	%eax, (%esp)
.LEHB8:
	call	_ZNK8wxString8IsSameAsEPKwb
.LEHE8:
	movl	%eax, %ebx
	leal	-20(%ebp), %eax
	movl	%eax, (%esp)
	call	_ZN8wxStringD1Ev
	testb	%bl, %bl
	jne	.L293
	jmp	.L294
.L299:
	movl	%eax, -36(%ebp)
.L295:
	movl	-36(%ebp), %ebx
	leal	-20(%ebp), %eax
	movl	%eax, (%esp)
	call	_ZN8wxStringD1Ev
	movl	%ebx, -36(%ebp)
	movl	-36(%ebp), %eax
	movl	%eax, (%esp)
.LEHB9:
	call	_Unwind_Resume
.LEHE9:
.L293:
	.loc 10 58 0
	movl	-12(%ebp), %eax
	movl	%eax, -32(%ebp)
	jmp	.L296
.L294:
	.loc 10 55 0
	addl	$1, -12(%ebp)
.L291:
	movl	-12(%ebp), %eax
	cmpl	-16(%ebp), %eax
	jb	.L292
.LBE16:
	.loc 10 61 0
	movl	$-1, -32(%ebp)
.L296:
	movl	-32(%ebp), %eax
.LBE15:
	.loc 10 62 0
	leal	-8(%ebp), %esp
	popl	%ebx
	popl	%esi
	popl	%ebp
	ret
.LFE5609:
	.size	_ZNK24wxItemContainerImmutable10FindStringERK8wxStringb, .-_ZNK24wxItemContainerImmutable10FindStringERK8wxStringb
	.section	.gcc_except_table
.LLSDA5609:
	.byte	0xff
	.byte	0xff
	.byte	0x1
	.uleb128 .LLSDACSE5609-.LLSDACSB5609
.LLSDACSB5609:
	.uleb128 .LEHB7-.LFB5609
	.uleb128 .LEHE7-.LEHB7
	.uleb128 0x0
	.uleb128 0x0
	.uleb128 .LEHB8-.LFB5609
	.uleb128 .LEHE8-.LEHB8
	.uleb128 .L299-.LFB5609
	.uleb128 0x0
	.uleb128 .LEHB9-.LFB5609
	.uleb128 .LEHE9-.LEHB9
	.uleb128 0x0
	.uleb128 0x0
.LLSDACSE5609:
	.section	.text._ZNK24wxItemContainerImmutable10FindStringERK8wxStringb,"axG",@progbits,_ZNK24wxItemContainerImmutable10FindStringERK8wxStringb,comdat
	.section	.text._ZN14wxComboBoxBaseD0Ev,"axG",@progbits,_ZN14wxComboBoxBaseD0Ev,comdat
	.align 2
	.weak	_ZN14wxComboBoxBaseD0Ev
	.type	_ZN14wxComboBoxBaseD0Ev, @function
_ZN14wxComboBoxBaseD0Ev:
.LFB5645:
	.loc 11 29 0
	pushl	%ebp
.LCFI305:
	movl	%esp, %ebp
.LCFI306:
	subl	$8, %esp
.LCFI307:
	.loc 11 29 0
	movl	$_ZTV14wxComboBoxBase+8, %edx
	movl	8(%ebp), %eax
	movl	%edx, (%eax)
	movl	8(%ebp), %eax
	movl	%eax, (%esp)
	call	_ZN15wxItemContainerD2Ev
	movl	$1, %eax
	testb	%al, %al
	je	.L304
	movl	8(%ebp), %eax
	movl	%eax, (%esp)
	call	_ZdlPv
.L304:
	leave
	ret
.LFE5645:
	.size	_ZN14wxComboBoxBaseD0Ev, .-_ZN14wxComboBoxBaseD0Ev
	.section	.text._ZN14wxComboBoxBaseD1Ev,"axG",@progbits,_ZN14wxComboBoxBaseD1Ev,comdat
	.align 2
	.weak	_ZN14wxComboBoxBaseD1Ev
	.type	_ZN14wxComboBoxBaseD1Ev, @function
_ZN14wxComboBoxBaseD1Ev:
.LFB5644:
	.loc 11 29 0
	pushl	%ebp
.LCFI308:
	movl	%esp, %ebp
.LCFI309:
	subl	$8, %esp
.LCFI310:
	.loc 11 29 0
	movl	$_ZTV14wxComboBoxBase+8, %edx
	movl	8(%ebp), %eax
	movl	%edx, (%eax)
	movl	8(%ebp), %eax
	movl	%eax, (%esp)
	call	_ZN15wxItemContainerD2Ev
	movl	$0, %eax
	testb	%al, %al
	je	.L309
	movl	8(%ebp), %eax
	movl	%eax, (%esp)
	call	_ZdlPv
.L309:
	leave
	ret
.LFE5644:
	.size	_ZN14wxComboBoxBaseD1Ev, .-_ZN14wxComboBoxBaseD1Ev
	.section	.text._ZN14wxComboBoxBaseD2Ev,"axG",@progbits,_ZN14wxComboBoxBaseD2Ev,comdat
	.align 2
	.weak	_ZN14wxComboBoxBaseD2Ev
	.type	_ZN14wxComboBoxBaseD2Ev, @function
_ZN14wxComboBoxBaseD2Ev:
.LFB5643:
	.loc 11 29 0
	pushl	%ebp
.LCFI311:
	movl	%esp, %ebp
.LCFI312:
	subl	$8, %esp
.LCFI313:
	.loc 11 29 0
	movl	$_ZTV14wxComboBoxBase+8, %edx
	movl	8(%ebp), %eax
	movl	%edx, (%eax)
	movl	8(%ebp), %eax
	movl	%eax, (%esp)
	call	_ZN15wxItemContainerD2Ev
	movl	$0, %eax
	testb	%al, %al
	je	.L314
	movl	8(%ebp), %eax
	movl	%eax, (%esp)
	call	_ZdlPv
.L314:
	leave
	ret
.LFE5643:
	.size	_ZN14wxComboBoxBaseD2Ev, .-_ZN14wxComboBoxBaseD2Ev
	.section	.text._ZN12wxObjectListD2Ev,"axG",@progbits,_ZN12wxObjectListD2Ev,comdat
	.align 2
	.weak	_ZN12wxObjectListD2Ev
	.type	_ZN12wxObjectListD2Ev, @function
_ZN12wxObjectListD2Ev:
.LFB2040:
	.loc 2 1185 0
	pushl	%ebp
.LCFI314:
	movl	%esp, %ebp
.LCFI315:
	subl	$8, %esp
.LCFI316:
	.loc 2 1185 0
	movl	$_ZTV12wxObjectList+8, %edx
	movl	8(%ebp), %eax
	movl	%edx, (%eax)
	movl	8(%ebp), %eax
	movl	%eax, (%esp)
	call	_ZN10wxListBaseD2Ev
	movl	$0, %eax
	testb	%al, %al
	je	.L319
	movl	8(%ebp), %eax
	movl	%eax, (%esp)
	call	_ZdlPv
.L319:
	leave
	ret
.LFE2040:
	.size	_ZN12wxObjectListD2Ev, .-_ZN12wxObjectListD2Ev
	.section	.text._ZN6wxListD1Ev,"axG",@progbits,_ZN6wxListD1Ev,comdat
	.align 2
	.weak	_ZN6wxListD1Ev
	.type	_ZN6wxListD1Ev, @function
_ZN6wxListD1Ev:
.LFB2044:
	.loc 2 1199 0
	pushl	%ebp
.LCFI317:
	movl	%esp, %ebp
.LCFI318:
	subl	$8, %esp
.LCFI319:
	.loc 2 1199 0
	movl	$_ZTV6wxList+8, %edx
	movl	8(%ebp), %eax
	movl	%edx, (%eax)
	movl	8(%ebp), %eax
	movl	%eax, (%esp)
	call	_ZN12wxObjectListD2Ev
	movl	$0, %eax
	testb	%al, %al
	je	.L324
	movl	8(%ebp), %eax
	movl	%eax, (%esp)
	call	_ZdlPv
.L324:
	leave
	ret
.LFE2044:
	.size	_ZN6wxListD1Ev, .-_ZN6wxListD1Ev
	.section	.text._ZN12wxObjectListD0Ev,"axG",@progbits,_ZN12wxObjectListD0Ev,comdat
	.align 2
	.weak	_ZN12wxObjectListD0Ev
	.type	_ZN12wxObjectListD0Ev, @function
_ZN12wxObjectListD0Ev:
.LFB2042:
	.loc 2 1185 0
	pushl	%ebp
.LCFI320:
	movl	%esp, %ebp
.LCFI321:
	subl	$8, %esp
.LCFI322:
	.loc 2 1185 0
	movl	$_ZTV12wxObjectList+8, %edx
	movl	8(%ebp), %eax
	movl	%edx, (%eax)
	movl	8(%ebp), %eax
	movl	%eax, (%esp)
	call	_ZN10wxListBaseD2Ev
	movl	$1, %eax
	testb	%al, %al
	je	.L329
	movl	8(%ebp), %eax
	movl	%eax, (%esp)
	call	_ZdlPv
.L329:
	leave
	ret
.LFE2042:
	.size	_ZN12wxObjectListD0Ev, .-_ZN12wxObjectListD0Ev
	.section	.text._ZN12wxObjectListD1Ev,"axG",@progbits,_ZN12wxObjectListD1Ev,comdat
	.align 2
	.weak	_ZN12wxObjectListD1Ev
	.type	_ZN12wxObjectListD1Ev, @function
_ZN12wxObjectListD1Ev:
.LFB2041:
	.loc 2 1185 0
	pushl	%ebp
.LCFI323:
	movl	%esp, %ebp
.LCFI324:
	subl	$8, %esp
.LCFI325:
	.loc 2 1185 0
	movl	$_ZTV12wxObjectList+8, %edx
	movl	8(%ebp), %eax
	movl	%edx, (%eax)
	movl	8(%ebp), %eax
	movl	%eax, (%esp)
	call	_ZN10wxListBaseD2Ev
	movl	$0, %eax
	testb	%al, %al
	je	.L334
	movl	8(%ebp), %eax
	movl	%eax, (%esp)
	call	_ZdlPv
.L334:
	leave
	ret
.LFE2041:
	.size	_ZN12wxObjectListD1Ev, .-_ZN12wxObjectListD1Ev
	.section	.text._ZNK12wxObjectList4FindERK9wxListKey,"axG",@progbits,_ZNK12wxObjectList4FindERK9wxListKey,comdat
	.align 2
	.weak	_ZNK12wxObjectList4FindERK9wxListKey
	.type	_ZNK12wxObjectList4FindERK9wxListKey, @function
_ZNK12wxObjectList4FindERK9wxListKey:
.LFB1936:
	.loc 2 1185 0
	pushl	%ebp
.LCFI326:
	movl	%esp, %ebp
.LCFI327:
	subl	$8, %esp
.LCFI328:
	.loc 2 1185 0
	movl	8(%ebp), %edx
	movl	12(%ebp), %eax
	movl	%eax, 4(%esp)
	movl	%edx, (%esp)
	call	_ZNK10wxListBase4FindERK9wxListKey
	leave
	ret
.LFE1936:
	.size	_ZNK12wxObjectList4FindERK9wxListKey, .-_ZNK12wxObjectList4FindERK9wxListKey
	.section	.text._ZN16wxObjectListNodeC1EP10wxListBasePS_S2_P8wxObjectRK9wxListKey,"axG",@progbits,_ZN16wxObjectListNodeC1EP10wxListBasePS_S2_P8wxObjectRK9wxListKey,comdat
	.align 2
	.weak	_ZN16wxObjectListNodeC1EP10wxListBasePS_S2_P8wxObjectRK9wxListKey
	.type	_ZN16wxObjectListNodeC1EP10wxListBasePS_S2_P8wxObjectRK9wxListKey, @function
_ZN16wxObjectListNodeC1EP10wxListBasePS_S2_P8wxObjectRK9wxListKey:
.LFB1901:
	.loc 2 1185 0
	pushl	%ebp
.LCFI329:
	movl	%esp, %ebp
.LCFI330:
	pushl	%ebx
.LCFI331:
	subl	$36, %esp
.LCFI332:
.LBB17:
	.loc 2 1185 0
	movl	20(%ebp), %edx
	movl	16(%ebp), %ecx
	movl	8(%ebp), %ebx
	movl	28(%ebp), %eax
	movl	%eax, 20(%esp)
	movl	24(%ebp), %eax
	movl	%eax, 16(%esp)
	movl	%edx, 12(%esp)
	movl	%ecx, 8(%esp)
	movl	12(%ebp), %eax
	movl	%eax, 4(%esp)
	movl	%ebx, (%esp)
	call	_ZN10wxNodeBaseC2EP10wxListBasePS_S2_PvRK9wxListKey
	movl	$_ZTV16wxObjectListNode+8, %edx
	movl	8(%ebp), %eax
	movl	%edx, (%eax)
.LBE17:
	addl	$36, %esp
	popl	%ebx
	popl	%ebp
	ret
.LFE1901:
	.size	_ZN16wxObjectListNodeC1EP10wxListBasePS_S2_P8wxObjectRK9wxListKey, .-_ZN16wxObjectListNodeC1EP10wxListBasePS_S2_P8wxObjectRK9wxListKey
	.section	.text._ZN12wxObjectList10CreateNodeEP10wxNodeBaseS1_PvRK9wxListKey,"axG",@progbits,_ZN12wxObjectList10CreateNodeEP10wxNodeBaseS1_PvRK9wxListKey,comdat
	.align 2
	.weak	_ZN12wxObjectList10CreateNodeEP10wxNodeBaseS1_PvRK9wxListKey
	.type	_ZN12wxObjectList10CreateNodeEP10wxNodeBaseS1_PvRK9wxListKey, @function
_ZN12wxObjectList10CreateNodeEP10wxNodeBaseS1_PvRK9wxListKey:
.LFB1940:
	.loc 2 1185 0
	pushl	%ebp
.LCFI333:
	movl	%esp, %ebp
.LCFI334:
	pushl	%esi
.LCFI335:
	pushl	%ebx
.LCFI336:
	subl	$48, %esp
.LCFI337:
	.loc 2 1185 0
	movl	$24, (%esp)
.LEHB10:
	call	_Znwj
.LEHE10:
	movl	%eax, -12(%ebp)
	movl	20(%ebp), %edx
	movl	16(%ebp), %ecx
	movl	12(%ebp), %ebx
	movl	8(%ebp), %esi
	movl	24(%ebp), %eax
	movl	%eax, 20(%esp)
	movl	%edx, 16(%esp)
	movl	%ecx, 12(%esp)
	movl	%ebx, 8(%esp)
	movl	%esi, 4(%esp)
	movl	-12(%ebp), %eax
	movl	%eax, (%esp)
.LEHB11:
	call	_ZN16wxObjectListNodeC1EP10wxListBasePS_S2_P8wxObjectRK9wxListKey
.LEHE11:
	movl	-12(%ebp), %eax
	movl	%eax, -16(%ebp)
	jmp	.L339
.L342:
	movl	%eax, -20(%ebp)
.L340:
	movl	-20(%ebp), %ebx
	movl	-12(%ebp), %eax
	movl	%eax, (%esp)
	call	_ZdlPv
	movl	%ebx, -20(%ebp)
	movl	-20(%ebp), %eax
	movl	%eax, (%esp)
.LEHB12:
	call	_Unwind_Resume
.LEHE12:
.L339:
	movl	-16(%ebp), %eax
	addl	$48, %esp
	popl	%ebx
	popl	%esi
	popl	%ebp
	ret
.LFE1940:
	.size	_ZN12wxObjectList10CreateNodeEP10wxNodeBaseS1_PvRK9wxListKey, .-_ZN12wxObjectList10CreateNodeEP10wxNodeBaseS1_PvRK9wxListKey
	.section	.gcc_except_table
.LLSDA1940:
	.byte	0xff
	.byte	0xff
	.byte	0x1
	.uleb128 .LLSDACSE1940-.LLSDACSB1940
.LLSDACSB1940:
	.uleb128 .LEHB10-.LFB1940
	.uleb128 .LEHE10-.LEHB10
	.uleb128 0x0
	.uleb128 0x0
	.uleb128 .LEHB11-.LFB1940
	.uleb128 .LEHE11-.LEHB11
	.uleb128 .L342-.LFB1940
	.uleb128 0x0
	.uleb128 .LEHB12-.LFB1940
	.uleb128 .LEHE12-.LEHB12
	.uleb128 0x0
	.uleb128 0x0
.LLSDACSE1940:
	.section	.text._ZN12wxObjectList10CreateNodeEP10wxNodeBaseS1_PvRK9wxListKey,"axG",@progbits,_ZN12wxObjectList10CreateNodeEP10wxNodeBaseS1_PvRK9wxListKey,comdat
	.section	.text._ZN9wxControlD2Ev,"axG",@progbits,_ZN9wxControlD2Ev,comdat
	.align 2
	.weak	_ZN9wxControlD2Ev
	.type	_ZN9wxControlD2Ev, @function
_ZN9wxControlD2Ev:
.LFB4963:
	.loc 8 28 0
	pushl	%ebp
.LCFI338:
	movl	%esp, %ebp
.LCFI339:
	subl	$8, %esp
.LCFI340:
	.loc 8 28 0
	movl	$_ZTV9wxControl+8, %edx
	movl	8(%ebp), %eax
	movl	%edx, (%eax)
	movl	8(%ebp), %eax
	addl	$336, %eax
	movl	%eax, (%esp)
	call	_ZN8wxStringD1Ev
	movl	8(%ebp), %eax
	movl	%eax, (%esp)
	call	_ZN13wxControlBaseD2Ev
	movl	$0, %eax
	testb	%al, %al
	je	.L347
	movl	8(%ebp), %eax
	movl	%eax, (%esp)
	call	_ZdlPv
.L347:
	leave
	ret
.LFE4963:
	.size	_ZN9wxControlD2Ev, .-_ZN9wxControlD2Ev
	.section	.text._ZN10wxComboBoxC1EP8wxWindowiRK8wxStringRK7wxPointRK6wxSizeiPS3_lRK11wxValidatorS4_,"axG",@progbits,_ZN10wxComboBoxC1EP8wxWindowiRK8wxStringRK7wxPointRK6wxSizeiPS3_lRK11wxValidatorS4_,comdat
	.align 2
	.weak	_ZN10wxComboBoxC1EP8wxWindowiRK8wxStringRK7wxPointRK6wxSizeiPS3_lRK11wxValidatorS4_
	.type	_ZN10wxComboBoxC1EP8wxWindowiRK8wxStringRK7wxPointRK6wxSizeiPS3_lRK11wxValidatorS4_, @function
_ZN10wxComboBoxC1EP8wxWindowiRK8wxStringRK7wxPointRK6wxSizeiPS3_lRK11wxValidatorS4_:
.LFB5650:
	.file 21 "/usr/local/include/wx-2.8/wx/gtk/combobox.h"
	.loc 21 29 0
	pushl	%ebp
.LCFI341:
	movl	%esp, %ebp
.LCFI342:
	pushl	%ebx
.LCFI343:
	subl	$52, %esp
.LCFI344:
.LBB18:
	.loc 21 30 0
	movl	8(%ebp), %eax
	movl	%eax, (%esp)
.LEHB13:
	call	_ZN9wxControlC2Ev
.LEHE13:
	movl	8(%ebp), %eax
	addl	$340, %eax
	movl	%eax, (%esp)
	call	_ZN14wxComboBoxBaseC2Ev
	movl	$_ZTV10wxComboBox+8, %edx
	movl	8(%ebp), %eax
	movl	%edx, (%eax)
	movl	$_ZTV10wxComboBox+800, %edx
	movl	8(%ebp), %eax
	movl	%edx, 340(%eax)
	movl	8(%ebp), %eax
	addl	$352, %eax
	movl	$0, 4(%esp)
	movl	%eax, (%esp)
.LEHB14:
	call	_ZN6wxListC1Ei
.LEHE14:
	movl	8(%ebp), %eax
	addl	$380, %eax
	movl	$0, 4(%esp)
	movl	%eax, (%esp)
.LEHB15:
	call	_ZN6wxListC1Ei
.LEHE15:
	.loc 21 31 0
	movl	48(%ebp), %eax
	movl	%eax, 40(%esp)
	movl	44(%ebp), %eax
	movl	%eax, 36(%esp)
	movl	40(%ebp), %eax
	movl	%eax, 32(%esp)
	movl	36(%ebp), %eax
	movl	%eax, 28(%esp)
	movl	32(%ebp), %eax
	movl	%eax, 24(%esp)
	movl	28(%ebp), %eax
	movl	%eax, 20(%esp)
	movl	24(%ebp), %eax
	movl	%eax, 16(%esp)
	movl	20(%ebp), %eax
	movl	%eax, 12(%esp)
	movl	16(%ebp), %eax
	movl	%eax, 8(%esp)
	movl	12(%ebp), %eax
	movl	%eax, 4(%esp)
	movl	8(%ebp), %eax
	movl	%eax, (%esp)
.LEHB16:
	call	_ZN10wxComboBox6CreateEP8wxWindowiRK8wxStringRK7wxPointRK6wxSizeiPS3_lRK11wxValidatorS4_
.LEHE16:
	.loc 21 32 0
	jmp	.L353
.L354:
	movl	%eax, -8(%ebp)
.L349:
	movl	-8(%ebp), %ebx
	movl	8(%ebp), %eax
	addl	$380, %eax
	movl	%eax, (%esp)
	call	_ZN6wxListD1Ev
	movl	%ebx, -8(%ebp)
	jmp	.L350
.L355:
	movl	%eax, -8(%ebp)
.L350:
	movl	-8(%ebp), %ebx
	movl	8(%ebp), %eax
	addl	$352, %eax
	movl	%eax, (%esp)
	call	_ZN6wxListD1Ev
	movl	%ebx, -8(%ebp)
	jmp	.L351
.L356:
	movl	%eax, -8(%ebp)
.L351:
	movl	-8(%ebp), %ebx
	movl	$340, %eax
	addl	8(%ebp), %eax
	movl	%eax, (%esp)
	call	_ZN14wxComboBoxBaseD2Ev
	movl	%ebx, -8(%ebp)
.L357:
.L352:
	movl	-8(%ebp), %ebx
	movl	8(%ebp), %eax
	movl	%eax, (%esp)
	call	_ZN9wxControlD2Ev
	movl	%ebx, -8(%ebp)
	movl	-8(%ebp), %eax
	movl	%eax, (%esp)
.LEHB17:
	call	_Unwind_Resume
.LEHE17:
.L353:
.LBE18:
	addl	$52, %esp
	popl	%ebx
	popl	%ebp
	ret
.LFE5650:
	.size	_ZN10wxComboBoxC1EP8wxWindowiRK8wxStringRK7wxPointRK6wxSizeiPS3_lRK11wxValidatorS4_, .-_ZN10wxComboBoxC1EP8wxWindowiRK8wxStringRK7wxPointRK6wxSizeiPS3_lRK11wxValidatorS4_
	.section	.gcc_except_table
.LLSDA5650:
	.byte	0xff
	.byte	0xff
	.byte	0x1
	.uleb128 .LLSDACSE5650-.LLSDACSB5650
.LLSDACSB5650:
	.uleb128 .LEHB13-.LFB5650
	.uleb128 .LEHE13-.LEHB13
	.uleb128 0x0
	.uleb128 0x0
	.uleb128 .LEHB14-.LFB5650
	.uleb128 .LEHE14-.LEHB14
	.uleb128 .L356-.LFB5650
	.uleb128 0x0
	.uleb128 .LEHB15-.LFB5650
	.uleb128 .LEHE15-.LEHB15
	.uleb128 .L355-.LFB5650
	.uleb128 0x0
	.uleb128 .LEHB16-.LFB5650
	.uleb128 .LEHE16-.LEHB16
	.uleb128 .L354-.LFB5650
	.uleb128 0x0
	.uleb128 .LEHB17-.LFB5650
	.uleb128 .LEHE17-.LEHB17
	.uleb128 0x0
	.uleb128 0x0
.LLSDACSE5650:
	.section	.text._ZN10wxComboBoxC1EP8wxWindowiRK8wxStringRK7wxPointRK6wxSizeiPS3_lRK11wxValidatorS4_,"axG",@progbits,_ZN10wxComboBoxC1EP8wxWindowiRK8wxStringRK7wxPointRK6wxSizeiPS3_lRK11wxValidatorS4_,comdat
	.section	.text._ZN12wxButtonBaseD0Ev,"axG",@progbits,_ZN12wxButtonBaseD0Ev,comdat
	.align 2
	.weak	_ZN12wxButtonBaseD0Ev
	.type	_ZN12wxButtonBaseD0Ev, @function
_ZN12wxButtonBaseD0Ev:
.LFB4976:
	.loc 9 57 0
	pushl	%ebp
.LCFI345:
	movl	%esp, %ebp
.LCFI346:
	subl	$8, %esp
.LCFI347:
	.loc 9 57 0
	movl	$_ZTV12wxButtonBase+8, %edx
	movl	8(%ebp), %eax
	movl	%edx, (%eax)
	movl	8(%ebp), %eax
	movl	%eax, (%esp)
	call	_ZN9wxControlD2Ev
	movl	$1, %eax
	testb	%al, %al
	je	.L362
	movl	8(%ebp), %eax
	movl	%eax, (%esp)
	call	_ZdlPv
.L362:
	leave
	ret
.LFE4976:
	.size	_ZN12wxButtonBaseD0Ev, .-_ZN12wxButtonBaseD0Ev
	.section	.text._ZN12wxButtonBaseD1Ev,"axG",@progbits,_ZN12wxButtonBaseD1Ev,comdat
	.align 2
	.weak	_ZN12wxButtonBaseD1Ev
	.type	_ZN12wxButtonBaseD1Ev, @function
_ZN12wxButtonBaseD1Ev:
.LFB4975:
	.loc 9 57 0
	pushl	%ebp
.LCFI348:
	movl	%esp, %ebp
.LCFI349:
	subl	$8, %esp
.LCFI350:
	.loc 9 57 0
	movl	$_ZTV12wxButtonBase+8, %edx
	movl	8(%ebp), %eax
	movl	%edx, (%eax)
	movl	8(%ebp), %eax
	movl	%eax, (%esp)
	call	_ZN9wxControlD2Ev
	movl	$0, %eax
	testb	%al, %al
	je	.L367
	movl	8(%ebp), %eax
	movl	%eax, (%esp)
	call	_ZdlPv
.L367:
	leave
	ret
.LFE4975:
	.size	_ZN12wxButtonBaseD1Ev, .-_ZN12wxButtonBaseD1Ev
	.section	.text._ZN12wxButtonBaseD2Ev,"axG",@progbits,_ZN12wxButtonBaseD2Ev,comdat
	.align 2
	.weak	_ZN12wxButtonBaseD2Ev
	.type	_ZN12wxButtonBaseD2Ev, @function
_ZN12wxButtonBaseD2Ev:
.LFB4974:
	.loc 9 57 0
	pushl	%ebp
.LCFI351:
	movl	%esp, %ebp
.LCFI352:
	subl	$8, %esp
.LCFI353:
	.loc 9 57 0
	movl	$_ZTV12wxButtonBase+8, %edx
	movl	8(%ebp), %eax
	movl	%edx, (%eax)
	movl	8(%ebp), %eax
	movl	%eax, (%esp)
	call	_ZN9wxControlD2Ev
	movl	$0, %eax
	testb	%al, %al
	je	.L372
	movl	8(%ebp), %eax
	movl	%eax, (%esp)
	call	_ZdlPv
.L372:
	leave
	ret
.LFE4974:
	.size	_ZN12wxButtonBaseD2Ev, .-_ZN12wxButtonBaseD2Ev
	.section	.text._Z16wxGetTranslationPKwS0_,"axG",@progbits,_Z16wxGetTranslationPKwS0_,comdat
	.align 2
	.weak	_Z16wxGetTranslationPKwS0_
	.type	_Z16wxGetTranslationPKwS0_, @function
_Z16wxGetTranslationPKwS0_:
.LFB4492:
	.file 22 "/usr/local/include/wx-2.8/wx/intl.h"
	.loc 22 579 0
	pushl	%ebp
.LCFI354:
	movl	%esp, %ebp
.LCFI355:
	subl	$40, %esp
.LCFI356:
.LBB19:
	.loc 22 581 0
	call	_Z11wxGetLocalev
	movl	%eax, -4(%ebp)
	.loc 22 582 0
	cmpl	$0, -4(%ebp)
	je	.L374
	.loc 22 583 0
	movl	-4(%ebp), %eax
	movl	(%eax), %eax
	addl	$8, %eax
	movl	(%eax), %edx
	movl	12(%ebp), %eax
	movl	%eax, 8(%esp)
	movl	8(%ebp), %eax
	movl	%eax, 4(%esp)
	movl	-4(%ebp), %eax
	movl	%eax, (%esp)
	call	*%edx
	movl	%eax, -20(%ebp)
	jmp	.L376
.L374:
	.loc 22 585 0
	movl	8(%ebp), %eax
	movl	%eax, -20(%ebp)
.L376:
	movl	-20(%ebp), %eax
.LBE19:
	.loc 22 586 0
	leave
	ret
.LFE4492:
	.size	_Z16wxGetTranslationPKwS0_, .-_Z16wxGetTranslationPKwS0_
	.section	.text._ZN8wxButtonC1EP8wxWindowiRK8wxStringRK7wxPointRK6wxSizelRK11wxValidatorS4_,"axG",@progbits,_ZN8wxButtonC1EP8wxWindowiRK8wxStringRK7wxPointRK6wxSizelRK11wxValidatorS4_,comdat
	.align 2
	.weak	_ZN8wxButtonC1EP8wxWindowiRK8wxStringRK7wxPointRK6wxSizelRK11wxValidatorS4_
	.type	_ZN8wxButtonC1EP8wxWindowiRK8wxStringRK7wxPointRK6wxSizelRK11wxValidatorS4_, @function
_ZN8wxButtonC1EP8wxWindowiRK8wxStringRK7wxPointRK6wxSizelRK11wxValidatorS4_:
.LFB4978:
	.file 23 "/usr/local/include/wx-2.8/wx/gtk/button.h"
	.loc 23 26 0
	pushl	%ebp
.LCFI357:
	movl	%esp, %ebp
.LCFI358:
	pushl	%ebx
.LCFI359:
	subl	$52, %esp
.LCFI360:
.LBB20:
	.loc 23 27 0
	movl	8(%ebp), %eax
	movl	%eax, (%esp)
.LEHB18:
	call	_ZN12wxButtonBaseC2Ev
.LEHE18:
	movl	$_ZTV8wxButton+8, %edx
	movl	8(%ebp), %eax
	movl	%edx, (%eax)
	.loc 23 28 0
	movl	40(%ebp), %eax
	movl	%eax, 32(%esp)
	movl	36(%ebp), %eax
	movl	%eax, 28(%esp)
	movl	32(%ebp), %eax
	movl	%eax, 24(%esp)
	movl	28(%ebp), %eax
	movl	%eax, 20(%esp)
	movl	24(%ebp), %eax
	movl	%eax, 16(%esp)
	movl	20(%ebp), %eax
	movl	%eax, 12(%esp)
	movl	16(%ebp), %eax
	movl	%eax, 8(%esp)
	movl	12(%ebp), %eax
	movl	%eax, 4(%esp)
	movl	8(%ebp), %eax
	movl	%eax, (%esp)
.LEHB19:
	call	_ZN8wxButton6CreateEP8wxWindowiRK8wxStringRK7wxPointRK6wxSizelRK11wxValidatorS4_
.LEHE19:
	.loc 23 29 0
	jmp	.L380
.L381:
	movl	%eax, -8(%ebp)
.L379:
	movl	-8(%ebp), %ebx
	movl	8(%ebp), %eax
	movl	%eax, (%esp)
	call	_ZN12wxButtonBaseD2Ev
	movl	%ebx, -8(%ebp)
	movl	-8(%ebp), %eax
	movl	%eax, (%esp)
.LEHB20:
	call	_Unwind_Resume
.LEHE20:
.L380:
.LBE20:
	addl	$52, %esp
	popl	%ebx
	popl	%ebp
	ret
.LFE4978:
	.size	_ZN8wxButtonC1EP8wxWindowiRK8wxStringRK7wxPointRK6wxSizelRK11wxValidatorS4_, .-_ZN8wxButtonC1EP8wxWindowiRK8wxStringRK7wxPointRK6wxSizelRK11wxValidatorS4_
	.section	.gcc_except_table
.LLSDA4978:
	.byte	0xff
	.byte	0xff
	.byte	0x1
	.uleb128 .LLSDACSE4978-.LLSDACSB4978
.LLSDACSB4978:
	.uleb128 .LEHB18-.LFB4978
	.uleb128 .LEHE18-.LEHB18
	.uleb128 0x0
	.uleb128 0x0
	.uleb128 .LEHB19-.LFB4978
	.uleb128 .LEHE19-.LEHB19
	.uleb128 .L381-.LFB4978
	.uleb128 0x0
	.uleb128 .LEHB20-.LFB4978
	.uleb128 .LEHE20-.LEHB20
	.uleb128 0x0
	.uleb128 0x0
.LLSDACSE4978:
	.section	.text._ZN8wxButtonC1EP8wxWindowiRK8wxStringRK7wxPointRK6wxSizelRK11wxValidatorS4_,"axG",@progbits,_ZN8wxButtonC1EP8wxWindowiRK8wxStringRK7wxPointRK6wxSizelRK11wxValidatorS4_,comdat
	.section	.text._ZN7wxSizer3AddEP8wxWindowiiiP8wxObject,"axG",@progbits,_ZN7wxSizer3AddEP8wxWindowiiiP8wxObject,comdat
	.align 2
	.weak	_ZN7wxSizer3AddEP8wxWindowiiiP8wxObject
	.type	_ZN7wxSizer3AddEP8wxWindowiiiP8wxObject, @function
_ZN7wxSizer3AddEP8wxWindowiiiP8wxObject:
.LFB5918:
	.loc 12 944 0
	pushl	%ebp
.LCFI361:
	movl	%esp, %ebp
.LCFI362:
	pushl	%ebx
.LCFI363:
	subl	$36, %esp
.LCFI364:
	.loc 12 946 0
	movl	$68, (%esp)
.LEHB21:
	call	_Znwj
.LEHE21:
	movl	%eax, -8(%ebp)
	movl	28(%ebp), %eax
	movl	%eax, 20(%esp)
	movl	24(%ebp), %eax
	movl	%eax, 16(%esp)
	movl	20(%ebp), %eax
	movl	%eax, 12(%esp)
	movl	16(%ebp), %eax
	movl	%eax, 8(%esp)
	movl	12(%ebp), %eax
	movl	%eax, 4(%esp)
	movl	-8(%ebp), %eax
	movl	%eax, (%esp)
.LEHB22:
	call	_ZN11wxSizerItemC1EP8wxWindowiiiP8wxObject
.LEHE22:
	movl	-8(%ebp), %eax
	movl	%eax, 4(%esp)
	movl	8(%ebp), %eax
	movl	%eax, (%esp)
.LEHB23:
	call	_ZN7wxSizer3AddEP11wxSizerItem
	movl	%eax, -12(%ebp)
	jmp	.L382
.L385:
	movl	%eax, -16(%ebp)
.L383:
	movl	-16(%ebp), %ebx
	movl	-8(%ebp), %eax
	movl	%eax, (%esp)
	call	_ZdlPv
	movl	%ebx, -16(%ebp)
	movl	-16(%ebp), %eax
	movl	%eax, (%esp)
	call	_Unwind_Resume
.LEHE23:
.L382:
	.loc 12 947 0
	movl	-12(%ebp), %eax
	addl	$36, %esp
	popl	%ebx
	popl	%ebp
	ret
.LFE5918:
	.size	_ZN7wxSizer3AddEP8wxWindowiiiP8wxObject, .-_ZN7wxSizer3AddEP8wxWindowiiiP8wxObject
	.section	.gcc_except_table
.LLSDA5918:
	.byte	0xff
	.byte	0xff
	.byte	0x1
	.uleb128 .LLSDACSE5918-.LLSDACSB5918
.LLSDACSB5918:
	.uleb128 .LEHB21-.LFB5918
	.uleb128 .LEHE21-.LEHB21
	.uleb128 0x0
	.uleb128 0x0
	.uleb128 .LEHB22-.LFB5918
	.uleb128 .LEHE22-.LEHB22
	.uleb128 .L385-.LFB5918
	.uleb128 0x0
	.uleb128 .LEHB23-.LFB5918
	.uleb128 .LEHE23-.LEHB23
	.uleb128 0x0
	.uleb128 0x0
.LLSDACSE5918:
	.section	.text._ZN7wxSizer3AddEP8wxWindowiiiP8wxObject,"axG",@progbits,_ZN7wxSizer3AddEP8wxWindowiiiP8wxObject,comdat
	.section	.text._ZN7wxSizer3AddEPS_iiiP8wxObject,"axG",@progbits,_ZN7wxSizer3AddEPS_iiiP8wxObject,comdat
	.align 2
	.weak	_ZN7wxSizer3AddEPS_iiiP8wxObject
	.type	_ZN7wxSizer3AddEPS_iiiP8wxObject, @function
_ZN7wxSizer3AddEPS_iiiP8wxObject:
.LFB5919:
	.loc 12 950 0
	pushl	%ebp
.LCFI365:
	movl	%esp, %ebp
.LCFI366:
	pushl	%ebx
.LCFI367:
	subl	$36, %esp
.LCFI368:
	.loc 12 952 0
	movl	$68, (%esp)
.LEHB24:
	call	_Znwj
.LEHE24:
	movl	%eax, -8(%ebp)
	movl	28(%ebp), %eax
	movl	%eax, 20(%esp)
	movl	24(%ebp), %eax
	movl	%eax, 16(%esp)
	movl	20(%ebp), %eax
	movl	%eax, 12(%esp)
	movl	16(%ebp), %eax
	movl	%eax, 8(%esp)
	movl	12(%ebp), %eax
	movl	%eax, 4(%esp)
	movl	-8(%ebp), %eax
	movl	%eax, (%esp)
.LEHB25:
	call	_ZN11wxSizerItemC1EP7wxSizeriiiP8wxObject
.LEHE25:
	movl	-8(%ebp), %eax
	movl	%eax, 4(%esp)
	movl	8(%ebp), %eax
	movl	%eax, (%esp)
.LEHB26:
	call	_ZN7wxSizer3AddEP11wxSizerItem
	movl	%eax, -12(%ebp)
	jmp	.L386
.L389:
	movl	%eax, -16(%ebp)
.L387:
	movl	-16(%ebp), %ebx
	movl	-8(%ebp), %eax
	movl	%eax, (%esp)
	call	_ZdlPv
	movl	%ebx, -16(%ebp)
	movl	-16(%ebp), %eax
	movl	%eax, (%esp)
	call	_Unwind_Resume
.LEHE26:
.L386:
	.loc 12 953 0
	movl	-12(%ebp), %eax
	addl	$36, %esp
	popl	%ebx
	popl	%ebp
	ret
.LFE5919:
	.size	_ZN7wxSizer3AddEPS_iiiP8wxObject, .-_ZN7wxSizer3AddEPS_iiiP8wxObject
	.section	.gcc_except_table
.LLSDA5919:
	.byte	0xff
	.byte	0xff
	.byte	0x1
	.uleb128 .LLSDACSE5919-.LLSDACSB5919
.LLSDACSB5919:
	.uleb128 .LEHB24-.LFB5919
	.uleb128 .LEHE24-.LEHB24
	.uleb128 0x0
	.uleb128 0x0
	.uleb128 .LEHB25-.LFB5919
	.uleb128 .LEHE25-.LEHB25
	.uleb128 .L389-.LFB5919
	.uleb128 0x0
	.uleb128 .LEHB26-.LFB5919
	.uleb128 .LEHE26-.LEHB26
	.uleb128 0x0
	.uleb128 0x0
.LLSDACSE5919:
	.section	.text._ZN7wxSizer3AddEPS_iiiP8wxObject,"axG",@progbits,_ZN7wxSizer3AddEPS_iiiP8wxObject,comdat
	.section	.rodata
	.align 4
.LC2:
	.string	"C"
	.string	""
	.string	""
	.string	"o"
	.string	""
	.string	""
	.string	"m"
	.string	""
	.string	""
	.string	"b"
	.string	""
	.string	""
	.string	"o"
	.string	""
	.string	""
	.string	"!"
	.string	""
	.string	""
	.string	""
	.string	""
	.string	""
	.string	""
	.align 4
.LC3:
	.string	"D"
	.string	""
	.string	""
	.string	"e"
	.string	""
	.string	""
	.string	"m"
	.string	""
	.string	""
	.string	"o"
	.string	""
	.string	""
	.string	""
	.string	""
	.string	""
	.string	""
	.align 4
.LC4:
	.string	"W"
	.string	""
	.string	""
	.string	"x"
	.string	""
	.string	""
	.string	"B"
	.string	""
	.string	""
	.string	"u"
	.string	""
	.string	""
	.string	"t"
	.string	""
	.string	""
	.string	"t"
	.string	""
	.string	""
	.string	"o"
	.string	""
	.string	""
	.string	"n"
	.string	""
	.string	""
	.string	"4"
	.string	""
	.string	""
	.string	""
	.string	""
	.string	""
	.string	""
	.align 4
.LC5:
	.string	"O"
	.string	""
	.string	""
	.string	"K"
	.string	""
	.string	""
	.string	""
	.string	""
	.string	""
	.string	""
	.align 4
.LC6:
	.string	"C"
	.string	""
	.string	""
	.string	"a"
	.string	""
	.string	""
	.string	"n"
	.string	""
	.string	""
	.string	"c"
	.string	""
	.string	""
	.string	"e"
	.string	""
	.string	""
	.string	"l"
	.string	""
	.string	""
	.string	""
	.string	""
	.string	""
	.string	""
	.text
	.align 2
.globl _ZN10TestDialogC1EP8wxWindowiRK8wxStringRK7wxPointRK6wxSizel
	.type	_ZN10TestDialogC1EP8wxWindowiRK8wxStringRK7wxPointRK6wxSizel, @function
_ZN10TestDialogC1EP8wxWindowiRK8wxStringRK7wxPointRK6wxSizel:
.LFB6097:
	.loc 15 17 0
	pushl	%ebp
.LCFI369:
	movl	%esp, %ebp
.LCFI370:
	pushl	%ebx
.LCFI371:
	subl	$212, %esp
.LCFI372:
.LBB21:
	.loc 15 17 0
	movl	$wxDialogNameStr, %eax
	movl	%eax, 4(%esp)
	leal	-60(%ebp), %eax
	movl	%eax, (%esp)
.LEHB27:
	call	_ZN8wxStringC1EPKw
.LEHE27:
	movl	8(%ebp), %edx
	leal	-60(%ebp), %eax
	movl	%eax, 28(%esp)
	movl	32(%ebp), %eax
	movl	%eax, 24(%esp)
	movl	28(%ebp), %eax
	movl	%eax, 20(%esp)
	movl	24(%ebp), %eax
	movl	%eax, 16(%esp)
	movl	20(%ebp), %eax
	movl	%eax, 12(%esp)
	movl	16(%ebp), %eax
	movl	%eax, 8(%esp)
	movl	12(%ebp), %eax
	movl	%eax, 4(%esp)
	movl	%edx, (%esp)
.LEHB28:
	call	_ZN8wxDialogC2EP8wxWindowiRK8wxStringRK7wxPointRK6wxSizelS4_
.LEHE28:
	leal	-60(%ebp), %eax
	movl	%eax, (%esp)
	call	_ZN8wxStringD1Ev
	movl	$_ZTV10TestDialog+8, %edx
	movl	8(%ebp), %eax
	movl	%edx, (%eax)
.LBB22:
	.loc 15 19 0
	movl	8(%ebp), %eax
	movl	$wxDefaultSize, 12(%esp)
	movl	$wxDefaultSize, 8(%esp)
	movl	$wxDefaultSize, 4(%esp)
	movl	%eax, (%esp)
.LEHB29:
	call	_ZN12wxWindowBase12SetSizeHintsERK6wxSizeS2_S2_
.LEHE29:
	jmp	.L391
.L436:
	movl	%eax, -164(%ebp)
.L392:
	movl	-164(%ebp), %ebx
.LBE22:
	.loc 15 17 0
	leal	-60(%ebp), %eax
	movl	%eax, (%esp)
	call	_ZN8wxStringD1Ev
	movl	%ebx, -164(%ebp)
	movl	-164(%ebp), %eax
	movl	%eax, (%esp)
.LEHB30:
	call	_Unwind_Resume
.LEHE30:
.L391:
.LBB23:
	.loc 15 22 0
	movl	$100, (%esp)
.LEHB31:
	call	_Znwj
.LEHE31:
	movl	%eax, -160(%ebp)
	movl	$8, 4(%esp)
	movl	-160(%ebp), %edx
	movl	%edx, (%esp)
.LEHB32:
	call	_ZN10wxBoxSizerC1Ei
.LEHE32:
	movl	-160(%ebp), %eax
	movl	%eax, -24(%ebp)
	.loc 15 25 0
	movl	$100, (%esp)
.LEHB33:
	call	_Znwj
.LEHE33:
	movl	%eax, -152(%ebp)
	jmp	.L393
.L434:
	movl	%eax, -164(%ebp)
.L394:
	movl	-164(%ebp), %ebx
	.loc 15 22 0
	movl	-160(%ebp), %edx
	movl	%edx, (%esp)
	call	_ZdlPv
	movl	%ebx, -164(%ebp)
	jmp	.L417
.L393:
	.loc 15 25 0
	movl	-152(%ebp), %eax
	movl	%eax, -156(%ebp)
	movl	$4, 4(%esp)
	movl	-156(%ebp), %edx
	movl	%edx, (%esp)
.LEHB34:
	call	_ZN10wxBoxSizerC1Ei
.LEHE34:
	movl	-156(%ebp), %eax
	movl	%eax, -20(%ebp)
	.loc 15 31 0
	movl	$.LC2, 4(%esp)
	leal	-56(%ebp), %eax
	movl	%eax, (%esp)
.LEHB35:
	call	_ZN8wxStringC1EPKw
.LEHE35:
	jmp	.L395
.L433:
	movl	%eax, -164(%ebp)
.L396:
	movl	-164(%ebp), %ebx
	.loc 15 25 0
	movl	-156(%ebp), %edx
	movl	%edx, (%esp)
	call	_ZdlPv
	movl	%ebx, -164(%ebp)
	jmp	.L417
.L395:
	.loc 15 31 0
	leal	-56(%ebp), %eax
	movl	%eax, -148(%ebp)
	movl	$wxComboBoxNameStr, %eax
	movl	%eax, 4(%esp)
	leal	-52(%ebp), %eax
	movl	%eax, (%esp)
.LEHB36:
	call	_ZN8wxStringC1EPKw
.LEHE36:
	leal	-52(%ebp), %edx
	movl	%edx, -144(%ebp)
	movl	$412, (%esp)
.LEHB37:
	call	_Znwj
.LEHE37:
	movl	%eax, -140(%ebp)
	movl	8(%ebp), %eax
	movl	-144(%ebp), %edx
	movl	%edx, 40(%esp)
	movl	$wxDefaultValidator, 36(%esp)
	movl	$0, 32(%esp)
	movl	$0, 28(%esp)
	movl	$0, 24(%esp)
	movl	$wxDefaultSize, 20(%esp)
	movl	$wxDefaultPosition, 16(%esp)
	movl	-148(%ebp), %edx
	movl	%edx, 12(%esp)
	movl	$-1, 8(%esp)
	movl	%eax, 4(%esp)
	movl	-140(%ebp), %eax
	movl	%eax, (%esp)
.LEHB38:
	call	_ZN10wxComboBoxC1EP8wxWindowiRK8wxStringRK7wxPointRK6wxSizeiPS3_lRK11wxValidatorS4_
.LEHE38:
	movl	8(%ebp), %eax
	movl	-140(%ebp), %edx
	movl	%edx, 452(%eax)
	leal	-52(%ebp), %eax
	movl	%eax, (%esp)
	call	_ZN8wxStringD1Ev
	leal	-56(%ebp), %eax
	movl	%eax, (%esp)
	call	_ZN8wxStringD1Ev
	.loc 15 32 0
	movl	8(%ebp), %eax
	movl	452(%eax), %eax
	movl	-20(%ebp), %edx
	movl	$0, 20(%esp)
	movl	$5, 16(%esp)
	movl	$240, 12(%esp)
	movl	$0, 8(%esp)
	movl	%eax, 4(%esp)
	movl	%edx, (%esp)
.LEHB39:
	call	_ZN7wxSizer3AddEP8wxWindowiiiP8wxObject
	jmp	.L397
.L430:
	movl	%eax, -164(%ebp)
.L398:
	movl	-164(%ebp), %ebx
	.loc 15 31 0
	movl	-140(%ebp), %eax
	movl	%eax, (%esp)
	call	_ZdlPv
	movl	%ebx, -164(%ebp)
	jmp	.L399
.L431:
	movl	%eax, -164(%ebp)
.L399:
	movl	-164(%ebp), %ebx
	leal	-52(%ebp), %eax
	movl	%eax, (%esp)
	call	_ZN8wxStringD1Ev
	movl	%ebx, -164(%ebp)
	jmp	.L400
.L432:
	movl	%eax, -164(%ebp)
.L400:
	movl	-164(%ebp), %ebx
	leal	-56(%ebp), %eax
	movl	%eax, (%esp)
	call	_ZN8wxStringD1Ev
	movl	%ebx, -164(%ebp)
	jmp	.L417
.L397:
	.loc 15 33 0
	movl	-20(%ebp), %eax
	movl	-24(%ebp), %edx
	movl	$0, 20(%esp)
	movl	$5, 16(%esp)
	movl	$8192, 12(%esp)
	movl	$1, 8(%esp)
	movl	%eax, 4(%esp)
	movl	%edx, (%esp)
	call	_ZN7wxSizer3AddEPS_iiiP8wxObject
	.loc 15 36 0
	movl	$100, (%esp)
	call	_Znwj
.LEHE39:
	movl	%eax, -136(%ebp)
	movl	$4, 4(%esp)
	movl	-136(%ebp), %edx
	movl	%edx, (%esp)
.LEHB40:
	call	_ZN10wxBoxSizerC1Ei
.LEHE40:
	movl	-136(%ebp), %eax
	movl	%eax, -16(%ebp)
	.loc 15 37 0
	movl	$0, 4(%esp)
	movl	$.LC3, (%esp)
.LEHB41:
	call	_Z16wxGetTranslationPKwS0_
	movl	%eax, -128(%ebp)
	jmp	.L401
.L429:
	movl	%eax, -164(%ebp)
.L402:
	movl	-164(%ebp), %ebx
	.loc 15 36 0
	movl	-136(%ebp), %edx
	movl	%edx, (%esp)
	call	_ZdlPv
	movl	%ebx, -164(%ebp)
	jmp	.L417
.L401:
	.loc 15 37 0
	movl	-128(%ebp), %eax
	movl	%eax, 4(%esp)
	leal	-48(%ebp), %eax
	movl	%eax, (%esp)
	call	_ZN8wxStringC1EPKw
.LEHE41:
	leal	-48(%ebp), %edx
	movl	%edx, -132(%ebp)
	movl	$.LC4, 4(%esp)
	leal	-44(%ebp), %eax
	movl	%eax, (%esp)
.LEHB42:
	call	_ZN8wxStringC1EPKw
.LEHE42:
	leal	-44(%ebp), %eax
	movl	%eax, -124(%ebp)
	movl	$340, (%esp)
.LEHB43:
	call	_Znwj
.LEHE43:
	movl	%eax, -120(%ebp)
	movl	8(%ebp), %eax
	movl	-124(%ebp), %edx
	movl	%edx, 32(%esp)
	movl	$wxDefaultValidator, 28(%esp)
	movl	$0, 24(%esp)
	movl	$wxDefaultSize, 20(%esp)
	movl	$wxDefaultPosition, 16(%esp)
	movl	-132(%ebp), %edx
	movl	%edx, 12(%esp)
	movl	$1044, 8(%esp)
	movl	%eax, 4(%esp)
	movl	-120(%ebp), %eax
	movl	%eax, (%esp)
.LEHB44:
	call	_ZN8wxButtonC1EP8wxWindowiRK8wxStringRK7wxPointRK6wxSizelRK11wxValidatorS4_
.LEHE44:
	movl	8(%ebp), %eax
	movl	-120(%ebp), %edx
	movl	%edx, 456(%eax)
	leal	-44(%ebp), %eax
	movl	%eax, (%esp)
	call	_ZN8wxStringD1Ev
	leal	-48(%ebp), %eax
	movl	%eax, (%esp)
	call	_ZN8wxStringD1Ev
	.loc 15 38 0
	movl	8(%ebp), %eax
	movl	456(%eax), %eax
	movl	-16(%ebp), %edx
	movl	$0, 20(%esp)
	movl	$10, 16(%esp)
	movl	$240, 12(%esp)
	movl	$0, 8(%esp)
	movl	%eax, 4(%esp)
	movl	%edx, (%esp)
.LEHB45:
	call	_ZN7wxSizer3AddEP8wxWindowiiiP8wxObject
	jmp	.L403
.L426:
	movl	%eax, -164(%ebp)
.L404:
	movl	-164(%ebp), %ebx
	.loc 15 37 0
	movl	-120(%ebp), %eax
	movl	%eax, (%esp)
	call	_ZdlPv
	movl	%ebx, -164(%ebp)
	jmp	.L405
.L427:
	movl	%eax, -164(%ebp)
.L405:
	movl	-164(%ebp), %ebx
	leal	-44(%ebp), %eax
	movl	%eax, (%esp)
	call	_ZN8wxStringD1Ev
	movl	%ebx, -164(%ebp)
	jmp	.L406
.L428:
	movl	%eax, -164(%ebp)
.L406:
	movl	-164(%ebp), %ebx
	leal	-48(%ebp), %eax
	movl	%eax, (%esp)
	call	_ZN8wxStringD1Ev
	movl	%ebx, -164(%ebp)
	jmp	.L417
.L403:
	.loc 15 39 0
	movl	-16(%ebp), %eax
	movl	-24(%ebp), %edx
	movl	$0, 20(%esp)
	movl	$0, 16(%esp)
	movl	$2304, 12(%esp)
	movl	$0, 8(%esp)
	movl	%eax, 4(%esp)
	movl	%edx, (%esp)
	call	_ZN7wxSizer3AddEPS_iiiP8wxObject
	.loc 15 42 0
	movl	$100, (%esp)
	call	_Znwj
.LEHE45:
	movl	%eax, -116(%ebp)
	movl	$4, 4(%esp)
	movl	-116(%ebp), %edx
	movl	%edx, (%esp)
.LEHB46:
	call	_ZN10wxBoxSizerC1Ei
.LEHE46:
	movl	-116(%ebp), %eax
	movl	%eax, -12(%ebp)
	.loc 15 43 0
	movl	$0, 4(%esp)
	movl	$.LC5, (%esp)
.LEHB47:
	call	_Z16wxGetTranslationPKwS0_
	movl	%eax, -108(%ebp)
	jmp	.L407
.L425:
	movl	%eax, -164(%ebp)
.L408:
	movl	-164(%ebp), %ebx
	.loc 15 42 0
	movl	-116(%ebp), %edx
	movl	%edx, (%esp)
	call	_ZdlPv
	movl	%ebx, -164(%ebp)
	jmp	.L417
.L407:
	.loc 15 43 0
	movl	-108(%ebp), %eax
	movl	%eax, 4(%esp)
	leal	-40(%ebp), %eax
	movl	%eax, (%esp)
	call	_ZN8wxStringC1EPKw
.LEHE47:
	leal	-40(%ebp), %edx
	movl	%edx, -112(%ebp)
	movl	$.LC4, 4(%esp)
	leal	-36(%ebp), %eax
	movl	%eax, (%esp)
.LEHB48:
	call	_ZN8wxStringC1EPKw
.LEHE48:
	leal	-36(%ebp), %eax
	movl	%eax, -104(%ebp)
	movl	$340, (%esp)
.LEHB49:
	call	_Znwj
.LEHE49:
	movl	%eax, -100(%ebp)
	movl	8(%ebp), %eax
	movl	-104(%ebp), %edx
	movl	%edx, 32(%esp)
	movl	$wxDefaultValidator, 28(%esp)
	movl	$0, 24(%esp)
	movl	$wxDefaultSize, 20(%esp)
	movl	$wxDefaultPosition, 16(%esp)
	movl	-112(%ebp), %edx
	movl	%edx, 12(%esp)
	movl	$5100, 8(%esp)
	movl	%eax, 4(%esp)
	movl	-100(%ebp), %eax
	movl	%eax, (%esp)
.LEHB50:
	call	_ZN8wxButtonC1EP8wxWindowiRK8wxStringRK7wxPointRK6wxSizelRK11wxValidatorS4_
.LEHE50:
	movl	8(%ebp), %eax
	movl	-100(%ebp), %edx
	movl	%edx, 460(%eax)
	leal	-36(%ebp), %eax
	movl	%eax, (%esp)
	call	_ZN8wxStringD1Ev
	leal	-40(%ebp), %eax
	movl	%eax, (%esp)
	call	_ZN8wxStringD1Ev
	.loc 15 44 0
	movl	$0, 4(%esp)
	movl	$.LC6, (%esp)
.LEHB51:
	call	_Z16wxGetTranslationPKwS0_
	movl	%eax, -92(%ebp)
	jmp	.L409
.L422:
	movl	%eax, -164(%ebp)
.L410:
	movl	-164(%ebp), %ebx
	.loc 15 43 0
	movl	-100(%ebp), %eax
	movl	%eax, (%esp)
	call	_ZdlPv
	movl	%ebx, -164(%ebp)
	jmp	.L411
.L423:
	movl	%eax, -164(%ebp)
.L411:
	movl	-164(%ebp), %ebx
	leal	-36(%ebp), %eax
	movl	%eax, (%esp)
	call	_ZN8wxStringD1Ev
	movl	%ebx, -164(%ebp)
	jmp	.L412
.L424:
	movl	%eax, -164(%ebp)
.L412:
	movl	-164(%ebp), %ebx
	leal	-40(%ebp), %eax
	movl	%eax, (%esp)
	call	_ZN8wxStringD1Ev
	movl	%ebx, -164(%ebp)
	jmp	.L417
.L409:
	.loc 15 44 0
	movl	-92(%ebp), %edx
	movl	%edx, 4(%esp)
	leal	-32(%ebp), %eax
	movl	%eax, (%esp)
	call	_ZN8wxStringC1EPKw
.LEHE51:
	leal	-32(%ebp), %eax
	movl	%eax, -96(%ebp)
	movl	$.LC4, 4(%esp)
	leal	-28(%ebp), %eax
	movl	%eax, (%esp)
.LEHB52:
	call	_ZN8wxStringC1EPKw
.LEHE52:
	leal	-28(%ebp), %edx
	movl	%edx, -88(%ebp)
	movl	$340, (%esp)
.LEHB53:
	call	_Znwj
.LEHE53:
	movl	%eax, -84(%ebp)
	movl	8(%ebp), %eax
	movl	-88(%ebp), %edx
	movl	%edx, 32(%esp)
	movl	$wxDefaultValidator, 28(%esp)
	movl	$0, 24(%esp)
	movl	$wxDefaultSize, 20(%esp)
	movl	$wxDefaultPosition, 16(%esp)
	movl	-96(%ebp), %edx
	movl	%edx, 12(%esp)
	movl	$5101, 8(%esp)
	movl	%eax, 4(%esp)
	movl	-84(%ebp), %eax
	movl	%eax, (%esp)
.LEHB54:
	call	_ZN8wxButtonC1EP8wxWindowiRK8wxStringRK7wxPointRK6wxSizelRK11wxValidatorS4_
.LEHE54:
	movl	8(%ebp), %eax
	movl	-84(%ebp), %edx
	movl	%edx, 464(%eax)
	leal	-28(%ebp), %eax
	movl	%eax, (%esp)
	call	_ZN8wxStringD1Ev
	leal	-32(%ebp), %eax
	movl	%eax, (%esp)
	call	_ZN8wxStringD1Ev
	.loc 15 45 0
	movl	8(%ebp), %eax
	movl	460(%eax), %eax
	movl	-12(%ebp), %edx
	movl	$0, 20(%esp)
	movl	$10, 16(%esp)
	movl	$240, 12(%esp)
	movl	$0, 8(%esp)
	movl	%eax, 4(%esp)
	movl	%edx, (%esp)
.LEHB55:
	call	_ZN7wxSizer3AddEP8wxWindowiiiP8wxObject
	jmp	.L413
.L419:
	movl	%eax, -164(%ebp)
.L414:
	movl	-164(%ebp), %ebx
	.loc 15 44 0
	movl	-84(%ebp), %eax
	movl	%eax, (%esp)
	call	_ZdlPv
	movl	%ebx, -164(%ebp)
	jmp	.L415
.L420:
	movl	%eax, -164(%ebp)
.L415:
	movl	-164(%ebp), %ebx
	leal	-28(%ebp), %eax
	movl	%eax, (%esp)
	call	_ZN8wxStringD1Ev
	movl	%ebx, -164(%ebp)
	jmp	.L416
.L421:
	movl	%eax, -164(%ebp)
.L416:
	movl	-164(%ebp), %ebx
	leal	-32(%ebp), %eax
	movl	%eax, (%esp)
	call	_ZN8wxStringD1Ev
	movl	%ebx, -164(%ebp)
	jmp	.L417
.L413:
	.loc 15 46 0
	movl	8(%ebp), %eax
	movl	464(%eax), %eax
	movl	-12(%ebp), %edx
	movl	$0, 20(%esp)
	movl	$10, 16(%esp)
	movl	$240, 12(%esp)
	movl	$0, 8(%esp)
	movl	%eax, 4(%esp)
	movl	%edx, (%esp)
	call	_ZN7wxSizer3AddEP8wxWindowiiiP8wxObject
	.loc 15 47 0
	movl	-12(%ebp), %eax
	movl	-24(%ebp), %edx
	movl	$0, 20(%esp)
	movl	$0, 16(%esp)
	movl	$2304, 12(%esp)
	movl	$0, 8(%esp)
	movl	%eax, 4(%esp)
	movl	%edx, (%esp)
	call	_ZN7wxSizer3AddEPS_iiiP8wxObject
	.loc 15 52 0
	movl	-24(%ebp), %eax
	movl	8(%ebp), %edx
	movl	$1, 8(%esp)
	movl	%eax, 4(%esp)
	movl	%edx, (%esp)
	call	_ZN12wxWindowBase8SetSizerEP7wxSizerb
	.loc 15 53 0
	movl	8(%ebp), %eax
	movl	%eax, (%esp)
	call	_ZN12wxWindowBase6LayoutEv
	.loc 15 54 0
	movl	8(%ebp), %eax
	movl	-24(%ebp), %edx
	leal	-80(%ebp), %ecx
	movl	%eax, 8(%esp)
	movl	%edx, 4(%esp)
	movl	%ecx, (%esp)
	call	_ZN7wxSizer3FitEP8wxWindow
.LEHE55:
	subl	$4, %esp
	.loc 15 55 0
	jmp	.L418
.L435:
	movl	%eax, -164(%ebp)
.L417:
	movl	-164(%ebp), %ebx
.LBE23:
	movl	8(%ebp), %eax
	movl	%eax, (%esp)
	call	_ZN8wxDialogD2Ev
	movl	%ebx, -164(%ebp)
	movl	-164(%ebp), %edx
	movl	%edx, (%esp)
.LEHB56:
	call	_Unwind_Resume
.LEHE56:
.L418:
.LBE21:
	movl	-4(%ebp), %ebx
	leave
	ret
.LFE6097:
	.size	_ZN10TestDialogC1EP8wxWindowiRK8wxStringRK7wxPointRK6wxSizel, .-_ZN10TestDialogC1EP8wxWindowiRK8wxStringRK7wxPointRK6wxSizel
	.section	.gcc_except_table
.LLSDA6097:
	.byte	0xff
	.byte	0xff
	.byte	0x1
	.uleb128 .LLSDACSE6097-.LLSDACSB6097
.LLSDACSB6097:
	.uleb128 .LEHB27-.LFB6097
	.uleb128 .LEHE27-.LEHB27
	.uleb128 0x0
	.uleb128 0x0
	.uleb128 .LEHB28-.LFB6097
	.uleb128 .LEHE28-.LEHB28
	.uleb128 .L436-.LFB6097
	.uleb128 0x0
	.uleb128 .LEHB29-.LFB6097
	.uleb128 .LEHE29-.LEHB29
	.uleb128 .L435-.LFB6097
	.uleb128 0x0
	.uleb128 .LEHB30-.LFB6097
	.uleb128 .LEHE30-.LEHB30
	.uleb128 0x0
	.uleb128 0x0
	.uleb128 .LEHB31-.LFB6097
	.uleb128 .LEHE31-.LEHB31
	.uleb128 .L435-.LFB6097
	.uleb128 0x0
	.uleb128 .LEHB32-.LFB6097
	.uleb128 .LEHE32-.LEHB32
	.uleb128 .L434-.LFB6097
	.uleb128 0x0
	.uleb128 .LEHB33-.LFB6097
	.uleb128 .LEHE33-.LEHB33
	.uleb128 .L435-.LFB6097
	.uleb128 0x0
	.uleb128 .LEHB34-.LFB6097
	.uleb128 .LEHE34-.LEHB34
	.uleb128 .L433-.LFB6097
	.uleb128 0x0
	.uleb128 .LEHB35-.LFB6097
	.uleb128 .LEHE35-.LEHB35
	.uleb128 .L435-.LFB6097
	.uleb128 0x0
	.uleb128 .LEHB36-.LFB6097
	.uleb128 .LEHE36-.LEHB36
	.uleb128 .L432-.LFB6097
	.uleb128 0x0
	.uleb128 .LEHB37-.LFB6097
	.uleb128 .LEHE37-.LEHB37
	.uleb128 .L431-.LFB6097
	.uleb128 0x0
	.uleb128 .LEHB38-.LFB6097
	.uleb128 .LEHE38-.LEHB38
	.uleb128 .L430-.LFB6097
	.uleb128 0x0
	.uleb128 .LEHB39-.LFB6097
	.uleb128 .LEHE39-.LEHB39
	.uleb128 .L435-.LFB6097
	.uleb128 0x0
	.uleb128 .LEHB40-.LFB6097
	.uleb128 .LEHE40-.LEHB40
	.uleb128 .L429-.LFB6097
	.uleb128 0x0
	.uleb128 .LEHB41-.LFB6097
	.uleb128 .LEHE41-.LEHB41
	.uleb128 .L435-.LFB6097
	.uleb128 0x0
	.uleb128 .LEHB42-.LFB6097
	.uleb128 .LEHE42-.LEHB42
	.uleb128 .L428-.LFB6097
	.uleb128 0x0
	.uleb128 .LEHB43-.LFB6097
	.uleb128 .LEHE43-.LEHB43
	.uleb128 .L427-.LFB6097
	.uleb128 0x0
	.uleb128 .LEHB44-.LFB6097
	.uleb128 .LEHE44-.LEHB44
	.uleb128 .L426-.LFB6097
	.uleb128 0x0
	.uleb128 .LEHB45-.LFB6097
	.uleb128 .LEHE45-.LEHB45
	.uleb128 .L435-.LFB6097
	.uleb128 0x0
	.uleb128 .LEHB46-.LFB6097
	.uleb128 .LEHE46-.LEHB46
	.uleb128 .L425-.LFB6097
	.uleb128 0x0
	.uleb128 .LEHB47-.LFB6097
	.uleb128 .LEHE47-.LEHB47
	.uleb128 .L435-.LFB6097
	.uleb128 0x0
	.uleb128 .LEHB48-.LFB6097
	.uleb128 .LEHE48-.LEHB48
	.uleb128 .L424-.LFB6097
	.uleb128 0x0
	.uleb128 .LEHB49-.LFB6097
	.uleb128 .LEHE49-.LEHB49
	.uleb128 .L423-.LFB6097
	.uleb128 0x0
	.uleb128 .LEHB50-.LFB6097
	.uleb128 .LEHE50-.LEHB50
	.uleb128 .L422-.LFB6097
	.uleb128 0x0
	.uleb128 .LEHB51-.LFB6097
	.uleb128 .LEHE51-.LEHB51
	.uleb128 .L435-.LFB6097
	.uleb128 0x0
	.uleb128 .LEHB52-.LFB6097
	.uleb128 .LEHE52-.LEHB52
	.uleb128 .L421-.LFB6097
	.uleb128 0x0
	.uleb128 .LEHB53-.LFB6097
	.uleb128 .LEHE53-.LEHB53
	.uleb128 .L420-.LFB6097
	.uleb128 0x0
	.uleb128 .LEHB54-.LFB6097
	.uleb128 .LEHE54-.LEHB54
	.uleb128 .L419-.LFB6097
	.uleb128 0x0
	.uleb128 .LEHB55-.LFB6097
	.uleb128 .LEHE55-.LEHB55
	.uleb128 .L435-.LFB6097
	.uleb128 0x0
	.uleb128 .LEHB56-.LFB6097
	.uleb128 .LEHE56-.LEHB56
	.uleb128 0x0
	.uleb128 0x0
.LLSDACSE6097:
	.text
	.align 2
.globl _ZN10TestDialogC2EP8wxWindowiRK8wxStringRK7wxPointRK6wxSizel
	.type	_ZN10TestDialogC2EP8wxWindowiRK8wxStringRK7wxPointRK6wxSizel, @function
_ZN10TestDialogC2EP8wxWindowiRK8wxStringRK7wxPointRK6wxSizel:
.LFB6096:
	.loc 15 17 0
	pushl	%ebp
.LCFI373:
	movl	%esp, %ebp
.LCFI374:
	pushl	%ebx
.LCFI375:
	subl	$212, %esp
.LCFI376:
.LBB24:
	.loc 15 17 0
	movl	$wxDialogNameStr, %eax
	movl	%eax, 4(%esp)
	leal	-60(%ebp), %eax
	movl	%eax, (%esp)
.LEHB57:
	call	_ZN8wxStringC1EPKw
.LEHE57:
	movl	8(%ebp), %edx
	leal	-60(%ebp), %eax
	movl	%eax, 28(%esp)
	movl	32(%ebp), %eax
	movl	%eax, 24(%esp)
	movl	28(%ebp), %eax
	movl	%eax, 20(%esp)
	movl	24(%ebp), %eax
	movl	%eax, 16(%esp)
	movl	20(%ebp), %eax
	movl	%eax, 12(%esp)
	movl	16(%ebp), %eax
	movl	%eax, 8(%esp)
	movl	12(%ebp), %eax
	movl	%eax, 4(%esp)
	movl	%edx, (%esp)
.LEHB58:
	call	_ZN8wxDialogC2EP8wxWindowiRK8wxStringRK7wxPointRK6wxSizelS4_
.LEHE58:
	leal	-60(%ebp), %eax
	movl	%eax, (%esp)
	call	_ZN8wxStringD1Ev
	movl	$_ZTV10TestDialog+8, %edx
	movl	8(%ebp), %eax
	movl	%edx, (%eax)
.LBB25:
	.loc 15 19 0
	movl	8(%ebp), %eax
	movl	$wxDefaultSize, 12(%esp)
	movl	$wxDefaultSize, 8(%esp)
	movl	$wxDefaultSize, 4(%esp)
	movl	%eax, (%esp)
.LEHB59:
	call	_ZN12wxWindowBase12SetSizeHintsERK6wxSizeS2_S2_
.LEHE59:
	jmp	.L438
.L483:
	movl	%eax, -164(%ebp)
.L439:
	movl	-164(%ebp), %ebx
.LBE25:
	.loc 15 17 0
	leal	-60(%ebp), %eax
	movl	%eax, (%esp)
	call	_ZN8wxStringD1Ev
	movl	%ebx, -164(%ebp)
	movl	-164(%ebp), %eax
	movl	%eax, (%esp)
.LEHB60:
	call	_Unwind_Resume
.LEHE60:
.L438:
.LBB26:
	.loc 15 22 0
	movl	$100, (%esp)
.LEHB61:
	call	_Znwj
.LEHE61:
	movl	%eax, -160(%ebp)
	movl	$8, 4(%esp)
	movl	-160(%ebp), %edx
	movl	%edx, (%esp)
.LEHB62:
	call	_ZN10wxBoxSizerC1Ei
.LEHE62:
	movl	-160(%ebp), %eax
	movl	%eax, -24(%ebp)
	.loc 15 25 0
	movl	$100, (%esp)
.LEHB63:
	call	_Znwj
.LEHE63:
	movl	%eax, -152(%ebp)
	jmp	.L440
.L481:
	movl	%eax, -164(%ebp)
.L441:
	movl	-164(%ebp), %ebx
	.loc 15 22 0
	movl	-160(%ebp), %edx
	movl	%edx, (%esp)
	call	_ZdlPv
	movl	%ebx, -164(%ebp)
	jmp	.L464
.L440:
	.loc 15 25 0
	movl	-152(%ebp), %eax
	movl	%eax, -156(%ebp)
	movl	$4, 4(%esp)
	movl	-156(%ebp), %edx
	movl	%edx, (%esp)
.LEHB64:
	call	_ZN10wxBoxSizerC1Ei
.LEHE64:
	movl	-156(%ebp), %eax
	movl	%eax, -20(%ebp)
	.loc 15 31 0
	movl	$.LC2, 4(%esp)
	leal	-56(%ebp), %eax
	movl	%eax, (%esp)
.LEHB65:
	call	_ZN8wxStringC1EPKw
.LEHE65:
	jmp	.L442
.L480:
	movl	%eax, -164(%ebp)
.L443:
	movl	-164(%ebp), %ebx
	.loc 15 25 0
	movl	-156(%ebp), %edx
	movl	%edx, (%esp)
	call	_ZdlPv
	movl	%ebx, -164(%ebp)
	jmp	.L464
.L442:
	.loc 15 31 0
	leal	-56(%ebp), %eax
	movl	%eax, -148(%ebp)
	movl	$wxComboBoxNameStr, %eax
	movl	%eax, 4(%esp)
	leal	-52(%ebp), %eax
	movl	%eax, (%esp)
.LEHB66:
	call	_ZN8wxStringC1EPKw
.LEHE66:
	leal	-52(%ebp), %edx
	movl	%edx, -144(%ebp)
	movl	$412, (%esp)
.LEHB67:
	call	_Znwj
.LEHE67:
	movl	%eax, -140(%ebp)
	movl	8(%ebp), %eax
	movl	-144(%ebp), %edx
	movl	%edx, 40(%esp)
	movl	$wxDefaultValidator, 36(%esp)
	movl	$0, 32(%esp)
	movl	$0, 28(%esp)
	movl	$0, 24(%esp)
	movl	$wxDefaultSize, 20(%esp)
	movl	$wxDefaultPosition, 16(%esp)
	movl	-148(%ebp), %edx
	movl	%edx, 12(%esp)
	movl	$-1, 8(%esp)
	movl	%eax, 4(%esp)
	movl	-140(%ebp), %eax
	movl	%eax, (%esp)
.LEHB68:
	call	_ZN10wxComboBoxC1EP8wxWindowiRK8wxStringRK7wxPointRK6wxSizeiPS3_lRK11wxValidatorS4_
.LEHE68:
	movl	8(%ebp), %eax
	movl	-140(%ebp), %edx
	movl	%edx, 452(%eax)
	leal	-52(%ebp), %eax
	movl	%eax, (%esp)
	call	_ZN8wxStringD1Ev
	leal	-56(%ebp), %eax
	movl	%eax, (%esp)
	call	_ZN8wxStringD1Ev
	.loc 15 32 0
	movl	8(%ebp), %eax
	movl	452(%eax), %eax
	movl	-20(%ebp), %edx
	movl	$0, 20(%esp)
	movl	$5, 16(%esp)
	movl	$240, 12(%esp)
	movl	$0, 8(%esp)
	movl	%eax, 4(%esp)
	movl	%edx, (%esp)
.LEHB69:
	call	_ZN7wxSizer3AddEP8wxWindowiiiP8wxObject
	jmp	.L444
.L477:
	movl	%eax, -164(%ebp)
.L445:
	movl	-164(%ebp), %ebx
	.loc 15 31 0
	movl	-140(%ebp), %eax
	movl	%eax, (%esp)
	call	_ZdlPv
	movl	%ebx, -164(%ebp)
	jmp	.L446
.L478:
	movl	%eax, -164(%ebp)
.L446:
	movl	-164(%ebp), %ebx
	leal	-52(%ebp), %eax
	movl	%eax, (%esp)
	call	_ZN8wxStringD1Ev
	movl	%ebx, -164(%ebp)
	jmp	.L447
.L479:
	movl	%eax, -164(%ebp)
.L447:
	movl	-164(%ebp), %ebx
	leal	-56(%ebp), %eax
	movl	%eax, (%esp)
	call	_ZN8wxStringD1Ev
	movl	%ebx, -164(%ebp)
	jmp	.L464
.L444:
	.loc 15 33 0
	movl	-20(%ebp), %eax
	movl	-24(%ebp), %edx
	movl	$0, 20(%esp)
	movl	$5, 16(%esp)
	movl	$8192, 12(%esp)
	movl	$1, 8(%esp)
	movl	%eax, 4(%esp)
	movl	%edx, (%esp)
	call	_ZN7wxSizer3AddEPS_iiiP8wxObject
	.loc 15 36 0
	movl	$100, (%esp)
	call	_Znwj
.LEHE69:
	movl	%eax, -136(%ebp)
	movl	$4, 4(%esp)
	movl	-136(%ebp), %edx
	movl	%edx, (%esp)
.LEHB70:
	call	_ZN10wxBoxSizerC1Ei
.LEHE70:
	movl	-136(%ebp), %eax
	movl	%eax, -16(%ebp)
	.loc 15 37 0
	movl	$0, 4(%esp)
	movl	$.LC3, (%esp)
.LEHB71:
	call	_Z16wxGetTranslationPKwS0_
	movl	%eax, -128(%ebp)
	jmp	.L448
.L476:
	movl	%eax, -164(%ebp)
.L449:
	movl	-164(%ebp), %ebx
	.loc 15 36 0
	movl	-136(%ebp), %edx
	movl	%edx, (%esp)
	call	_ZdlPv
	movl	%ebx, -164(%ebp)
	jmp	.L464
.L448:
	.loc 15 37 0
	movl	-128(%ebp), %eax
	movl	%eax, 4(%esp)
	leal	-48(%ebp), %eax
	movl	%eax, (%esp)
	call	_ZN8wxStringC1EPKw
.LEHE71:
	leal	-48(%ebp), %edx
	movl	%edx, -132(%ebp)
	movl	$.LC4, 4(%esp)
	leal	-44(%ebp), %eax
	movl	%eax, (%esp)
.LEHB72:
	call	_ZN8wxStringC1EPKw
.LEHE72:
	leal	-44(%ebp), %eax
	movl	%eax, -124(%ebp)
	movl	$340, (%esp)
.LEHB73:
	call	_Znwj
.LEHE73:
	movl	%eax, -120(%ebp)
	movl	8(%ebp), %eax
	movl	-124(%ebp), %edx
	movl	%edx, 32(%esp)
	movl	$wxDefaultValidator, 28(%esp)
	movl	$0, 24(%esp)
	movl	$wxDefaultSize, 20(%esp)
	movl	$wxDefaultPosition, 16(%esp)
	movl	-132(%ebp), %edx
	movl	%edx, 12(%esp)
	movl	$1044, 8(%esp)
	movl	%eax, 4(%esp)
	movl	-120(%ebp), %eax
	movl	%eax, (%esp)
.LEHB74:
	call	_ZN8wxButtonC1EP8wxWindowiRK8wxStringRK7wxPointRK6wxSizelRK11wxValidatorS4_
.LEHE74:
	movl	8(%ebp), %eax
	movl	-120(%ebp), %edx
	movl	%edx, 456(%eax)
	leal	-44(%ebp), %eax
	movl	%eax, (%esp)
	call	_ZN8wxStringD1Ev
	leal	-48(%ebp), %eax
	movl	%eax, (%esp)
	call	_ZN8wxStringD1Ev
	.loc 15 38 0
	movl	8(%ebp), %eax
	movl	456(%eax), %eax
	movl	-16(%ebp), %edx
	movl	$0, 20(%esp)
	movl	$10, 16(%esp)
	movl	$240, 12(%esp)
	movl	$0, 8(%esp)
	movl	%eax, 4(%esp)
	movl	%edx, (%esp)
.LEHB75:
	call	_ZN7wxSizer3AddEP8wxWindowiiiP8wxObject
	jmp	.L450
.L473:
	movl	%eax, -164(%ebp)
.L451:
	movl	-164(%ebp), %ebx
	.loc 15 37 0
	movl	-120(%ebp), %eax
	movl	%eax, (%esp)
	call	_ZdlPv
	movl	%ebx, -164(%ebp)
	jmp	.L452
.L474:
	movl	%eax, -164(%ebp)
.L452:
	movl	-164(%ebp), %ebx
	leal	-44(%ebp), %eax
	movl	%eax, (%esp)
	call	_ZN8wxStringD1Ev
	movl	%ebx, -164(%ebp)
	jmp	.L453
.L475:
	movl	%eax, -164(%ebp)
.L453:
	movl	-164(%ebp), %ebx
	leal	-48(%ebp), %eax
	movl	%eax, (%esp)
	call	_ZN8wxStringD1Ev
	movl	%ebx, -164(%ebp)
	jmp	.L464
.L450:
	.loc 15 39 0
	movl	-16(%ebp), %eax
	movl	-24(%ebp), %edx
	movl	$0, 20(%esp)
	movl	$0, 16(%esp)
	movl	$2304, 12(%esp)
	movl	$0, 8(%esp)
	movl	%eax, 4(%esp)
	movl	%edx, (%esp)
	call	_ZN7wxSizer3AddEPS_iiiP8wxObject
	.loc 15 42 0
	movl	$100, (%esp)
	call	_Znwj
.LEHE75:
	movl	%eax, -116(%ebp)
	movl	$4, 4(%esp)
	movl	-116(%ebp), %edx
	movl	%edx, (%esp)
.LEHB76:
	call	_ZN10wxBoxSizerC1Ei
.LEHE76:
	movl	-116(%ebp), %eax
	movl	%eax, -12(%ebp)
	.loc 15 43 0
	movl	$0, 4(%esp)
	movl	$.LC5, (%esp)
.LEHB77:
	call	_Z16wxGetTranslationPKwS0_
	movl	%eax, -108(%ebp)
	jmp	.L454
.L472:
	movl	%eax, -164(%ebp)
.L455:
	movl	-164(%ebp), %ebx
	.loc 15 42 0
	movl	-116(%ebp), %edx
	movl	%edx, (%esp)
	call	_ZdlPv
	movl	%ebx, -164(%ebp)
	jmp	.L464
.L454:
	.loc 15 43 0
	movl	-108(%ebp), %eax
	movl	%eax, 4(%esp)
	leal	-40(%ebp), %eax
	movl	%eax, (%esp)
	call	_ZN8wxStringC1EPKw
.LEHE77:
	leal	-40(%ebp), %edx
	movl	%edx, -112(%ebp)
	movl	$.LC4, 4(%esp)
	leal	-36(%ebp), %eax
	movl	%eax, (%esp)
.LEHB78:
	call	_ZN8wxStringC1EPKw
.LEHE78:
	leal	-36(%ebp), %eax
	movl	%eax, -104(%ebp)
	movl	$340, (%esp)
.LEHB79:
	call	_Znwj
.LEHE79:
	movl	%eax, -100(%ebp)
	movl	8(%ebp), %eax
	movl	-104(%ebp), %edx
	movl	%edx, 32(%esp)
	movl	$wxDefaultValidator, 28(%esp)
	movl	$0, 24(%esp)
	movl	$wxDefaultSize, 20(%esp)
	movl	$wxDefaultPosition, 16(%esp)
	movl	-112(%ebp), %edx
	movl	%edx, 12(%esp)
	movl	$5100, 8(%esp)
	movl	%eax, 4(%esp)
	movl	-100(%ebp), %eax
	movl	%eax, (%esp)
.LEHB80:
	call	_ZN8wxButtonC1EP8wxWindowiRK8wxStringRK7wxPointRK6wxSizelRK11wxValidatorS4_
.LEHE80:
	movl	8(%ebp), %eax
	movl	-100(%ebp), %edx
	movl	%edx, 460(%eax)
	leal	-36(%ebp), %eax
	movl	%eax, (%esp)
	call	_ZN8wxStringD1Ev
	leal	-40(%ebp), %eax
	movl	%eax, (%esp)
	call	_ZN8wxStringD1Ev
	.loc 15 44 0
	movl	$0, 4(%esp)
	movl	$.LC6, (%esp)
.LEHB81:
	call	_Z16wxGetTranslationPKwS0_
	movl	%eax, -92(%ebp)
	jmp	.L456
.L469:
	movl	%eax, -164(%ebp)
.L457:
	movl	-164(%ebp), %ebx
	.loc 15 43 0
	movl	-100(%ebp), %eax
	movl	%eax, (%esp)
	call	_ZdlPv
	movl	%ebx, -164(%ebp)
	jmp	.L458
.L470:
	movl	%eax, -164(%ebp)
.L458:
	movl	-164(%ebp), %ebx
	leal	-36(%ebp), %eax
	movl	%eax, (%esp)
	call	_ZN8wxStringD1Ev
	movl	%ebx, -164(%ebp)
	jmp	.L459
.L471:
	movl	%eax, -164(%ebp)
.L459:
	movl	-164(%ebp), %ebx
	leal	-40(%ebp), %eax
	movl	%eax, (%esp)
	call	_ZN8wxStringD1Ev
	movl	%ebx, -164(%ebp)
	jmp	.L464
.L456:
	.loc 15 44 0
	movl	-92(%ebp), %edx
	movl	%edx, 4(%esp)
	leal	-32(%ebp), %eax
	movl	%eax, (%esp)
	call	_ZN8wxStringC1EPKw
.LEHE81:
	leal	-32(%ebp), %eax
	movl	%eax, -96(%ebp)
	movl	$.LC4, 4(%esp)
	leal	-28(%ebp), %eax
	movl	%eax, (%esp)
.LEHB82:
	call	_ZN8wxStringC1EPKw
.LEHE82:
	leal	-28(%ebp), %edx
	movl	%edx, -88(%ebp)
	movl	$340, (%esp)
.LEHB83:
	call	_Znwj
.LEHE83:
	movl	%eax, -84(%ebp)
	movl	8(%ebp), %eax
	movl	-88(%ebp), %edx
	movl	%edx, 32(%esp)
	movl	$wxDefaultValidator, 28(%esp)
	movl	$0, 24(%esp)
	movl	$wxDefaultSize, 20(%esp)
	movl	$wxDefaultPosition, 16(%esp)
	movl	-96(%ebp), %edx
	movl	%edx, 12(%esp)
	movl	$5101, 8(%esp)
	movl	%eax, 4(%esp)
	movl	-84(%ebp), %eax
	movl	%eax, (%esp)
.LEHB84:
	call	_ZN8wxButtonC1EP8wxWindowiRK8wxStringRK7wxPointRK6wxSizelRK11wxValidatorS4_
.LEHE84:
	movl	8(%ebp), %eax
	movl	-84(%ebp), %edx
	movl	%edx, 464(%eax)
	leal	-28(%ebp), %eax
	movl	%eax, (%esp)
	call	_ZN8wxStringD1Ev
	leal	-32(%ebp), %eax
	movl	%eax, (%esp)
	call	_ZN8wxStringD1Ev
	.loc 15 45 0
	movl	8(%ebp), %eax
	movl	460(%eax), %eax
	movl	-12(%ebp), %edx
	movl	$0, 20(%esp)
	movl	$10, 16(%esp)
	movl	$240, 12(%esp)
	movl	$0, 8(%esp)
	movl	%eax, 4(%esp)
	movl	%edx, (%esp)
.LEHB85:
	call	_ZN7wxSizer3AddEP8wxWindowiiiP8wxObject
	jmp	.L460
.L466:
	movl	%eax, -164(%ebp)
.L461:
	movl	-164(%ebp), %ebx
	.loc 15 44 0
	movl	-84(%ebp), %eax
	movl	%eax, (%esp)
	call	_ZdlPv
	movl	%ebx, -164(%ebp)
	jmp	.L462
.L467:
	movl	%eax, -164(%ebp)
.L462:
	movl	-164(%ebp), %ebx
	leal	-28(%ebp), %eax
	movl	%eax, (%esp)
	call	_ZN8wxStringD1Ev
	movl	%ebx, -164(%ebp)
	jmp	.L463
.L468:
	movl	%eax, -164(%ebp)
.L463:
	movl	-164(%ebp), %ebx
	leal	-32(%ebp), %eax
	movl	%eax, (%esp)
	call	_ZN8wxStringD1Ev
	movl	%ebx, -164(%ebp)
	jmp	.L464
.L460:
	.loc 15 46 0
	movl	8(%ebp), %eax
	movl	464(%eax), %eax
	movl	-12(%ebp), %edx
	movl	$0, 20(%esp)
	movl	$10, 16(%esp)
	movl	$240, 12(%esp)
	movl	$0, 8(%esp)
	movl	%eax, 4(%esp)
	movl	%edx, (%esp)
	call	_ZN7wxSizer3AddEP8wxWindowiiiP8wxObject
	.loc 15 47 0
	movl	-12(%ebp), %eax
	movl	-24(%ebp), %edx
	movl	$0, 20(%esp)
	movl	$0, 16(%esp)
	movl	$2304, 12(%esp)
	movl	$0, 8(%esp)
	movl	%eax, 4(%esp)
	movl	%edx, (%esp)
	call	_ZN7wxSizer3AddEPS_iiiP8wxObject
	.loc 15 52 0
	movl	-24(%ebp), %eax
	movl	8(%ebp), %edx
	movl	$1, 8(%esp)
	movl	%eax, 4(%esp)
	movl	%edx, (%esp)
	call	_ZN12wxWindowBase8SetSizerEP7wxSizerb
	.loc 15 53 0
	movl	8(%ebp), %eax
	movl	%eax, (%esp)
	call	_ZN12wxWindowBase6LayoutEv
	.loc 15 54 0
	movl	8(%ebp), %eax
	movl	-24(%ebp), %edx
	leal	-80(%ebp), %ecx
	movl	%eax, 8(%esp)
	movl	%edx, 4(%esp)
	movl	%ecx, (%esp)
	call	_ZN7wxSizer3FitEP8wxWindow
.LEHE85:
	subl	$4, %esp
	.loc 15 55 0
	jmp	.L465
.L482:
	movl	%eax, -164(%ebp)
.L464:
	movl	-164(%ebp), %ebx
.LBE26:
	movl	8(%ebp), %eax
	movl	%eax, (%esp)
	call	_ZN8wxDialogD2Ev
	movl	%ebx, -164(%ebp)
	movl	-164(%ebp), %edx
	movl	%edx, (%esp)
.LEHB86:
	call	_Unwind_Resume
.LEHE86:
.L465:
.LBE24:
	movl	-4(%ebp), %ebx
	leave
	ret
.LFE6096:
	.size	_ZN10TestDialogC2EP8wxWindowiRK8wxStringRK7wxPointRK6wxSizel, .-_ZN10TestDialogC2EP8wxWindowiRK8wxStringRK7wxPointRK6wxSizel
	.section	.gcc_except_table
.LLSDA6096:
	.byte	0xff
	.byte	0xff
	.byte	0x1
	.uleb128 .LLSDACSE6096-.LLSDACSB6096
.LLSDACSB6096:
	.uleb128 .LEHB57-.LFB6096
	.uleb128 .LEHE57-.LEHB57
	.uleb128 0x0
	.uleb128 0x0
	.uleb128 .LEHB58-.LFB6096
	.uleb128 .LEHE58-.LEHB58
	.uleb128 .L483-.LFB6096
	.uleb128 0x0
	.uleb128 .LEHB59-.LFB6096
	.uleb128 .LEHE59-.LEHB59
	.uleb128 .L482-.LFB6096
	.uleb128 0x0
	.uleb128 .LEHB60-.LFB6096
	.uleb128 .LEHE60-.LEHB60
	.uleb128 0x0
	.uleb128 0x0
	.uleb128 .LEHB61-.LFB6096
	.uleb128 .LEHE61-.LEHB61
	.uleb128 .L482-.LFB6096
	.uleb128 0x0
	.uleb128 .LEHB62-.LFB6096
	.uleb128 .LEHE62-.LEHB62
	.uleb128 .L481-.LFB6096
	.uleb128 0x0
	.uleb128 .LEHB63-.LFB6096
	.uleb128 .LEHE63-.LEHB63
	.uleb128 .L482-.LFB6096
	.uleb128 0x0
	.uleb128 .LEHB64-.LFB6096
	.uleb128 .LEHE64-.LEHB64
	.uleb128 .L480-.LFB6096
	.uleb128 0x0
	.uleb128 .LEHB65-.LFB6096
	.uleb128 .LEHE65-.LEHB65
	.uleb128 .L482-.LFB6096
	.uleb128 0x0
	.uleb128 .LEHB66-.LFB6096
	.uleb128 .LEHE66-.LEHB66
	.uleb128 .L479-.LFB6096
	.uleb128 0x0
	.uleb128 .LEHB67-.LFB6096
	.uleb128 .LEHE67-.LEHB67
	.uleb128 .L478-.LFB6096
	.uleb128 0x0
	.uleb128 .LEHB68-.LFB6096
	.uleb128 .LEHE68-.LEHB68
	.uleb128 .L477-.LFB6096
	.uleb128 0x0
	.uleb128 .LEHB69-.LFB6096
	.uleb128 .LEHE69-.LEHB69
	.uleb128 .L482-.LFB6096
	.uleb128 0x0
	.uleb128 .LEHB70-.LFB6096
	.uleb128 .LEHE70-.LEHB70
	.uleb128 .L476-.LFB6096
	.uleb128 0x0
	.uleb128 .LEHB71-.LFB6096
	.uleb128 .LEHE71-.LEHB71
	.uleb128 .L482-.LFB6096
	.uleb128 0x0
	.uleb128 .LEHB72-.LFB6096
	.uleb128 .LEHE72-.LEHB72
	.uleb128 .L475-.LFB6096
	.uleb128 0x0
	.uleb128 .LEHB73-.LFB6096
	.uleb128 .LEHE73-.LEHB73
	.uleb128 .L474-.LFB6096
	.uleb128 0x0
	.uleb128 .LEHB74-.LFB6096
	.uleb128 .LEHE74-.LEHB74
	.uleb128 .L473-.LFB6096
	.uleb128 0x0
	.uleb128 .LEHB75-.LFB6096
	.uleb128 .LEHE75-.LEHB75
	.uleb128 .L482-.LFB6096
	.uleb128 0x0
	.uleb128 .LEHB76-.LFB6096
	.uleb128 .LEHE76-.LEHB76
	.uleb128 .L472-.LFB6096
	.uleb128 0x0
	.uleb128 .LEHB77-.LFB6096
	.uleb128 .LEHE77-.LEHB77
	.uleb128 .L482-.LFB6096
	.uleb128 0x0
	.uleb128 .LEHB78-.LFB6096
	.uleb128 .LEHE78-.LEHB78
	.uleb128 .L471-.LFB6096
	.uleb128 0x0
	.uleb128 .LEHB79-.LFB6096
	.uleb128 .LEHE79-.LEHB79
	.uleb128 .L470-.LFB6096
	.uleb128 0x0
	.uleb128 .LEHB80-.LFB6096
	.uleb128 .LEHE80-.LEHB80
	.uleb128 .L469-.LFB6096
	.uleb128 0x0
	.uleb128 .LEHB81-.LFB6096
	.uleb128 .LEHE81-.LEHB81
	.uleb128 .L482-.LFB6096
	.uleb128 0x0
	.uleb128 .LEHB82-.LFB6096
	.uleb128 .LEHE82-.LEHB82
	.uleb128 .L468-.LFB6096
	.uleb128 0x0
	.uleb128 .LEHB83-.LFB6096
	.uleb128 .LEHE83-.LEHB83
	.uleb128 .L467-.LFB6096
	.uleb128 0x0
	.uleb128 .LEHB84-.LFB6096
	.uleb128 .LEHE84-.LEHB84
	.uleb128 .L466-.LFB6096
	.uleb128 0x0
	.uleb128 .LEHB85-.LFB6096
	.uleb128 .LEHE85-.LEHB85
	.uleb128 .L482-.LFB6096
	.uleb128 0x0
	.uleb128 .LEHB86-.LFB6096
	.uleb128 .LEHE86-.LEHB86
	.uleb128 0x0
	.uleb128 0x0
.LLSDACSE6096:
	.text
.globl _ZN10TestDialog13sm_eventTableE
	.section	.rodata
	.align 4
	.type	_ZN10TestDialog13sm_eventTableE, @object
	.size	_ZN10TestDialog13sm_eventTableE, 8
_ZN10TestDialog13sm_eventTableE:
	.long	_ZN12wxDialogBase13sm_eventTableE
	.long	_ZN10TestDialog20sm_eventTableEntriesE
.globl _ZN10TestDialog17sm_eventHashTableE
	.bss
	.align 4
	.type	_ZN10TestDialog17sm_eventHashTableE, @object
	.size	_ZN10TestDialog17sm_eventHashTableE, 24
_ZN10TestDialog17sm_eventHashTableE:
	.zero	24
.globl _ZN10TestDialog20sm_eventTableEntriesE
	.align 32
	.type	_ZN10TestDialog20sm_eventTableEntriesE, @object
	.size	_ZN10TestDialog20sm_eventTableEntriesE, 96
_ZN10TestDialog20sm_eventTableEntriesE:
	.zero	96
	.weak	_ZTV10TestDialog
	.section	.rodata._ZTV10TestDialog,"aG",@progbits,_ZTV10TestDialog,comdat
	.align 32
	.type	_ZTV10TestDialog, @object
	.size	_ZTV10TestDialog, 756
_ZTV10TestDialog:
	.long	0
	.long	_ZTI10TestDialog
	.long	_ZNK8wxDialog12GetClassInfoEv
	.long	_ZN10TestDialogD1Ev
	.long	_ZN10TestDialogD0Ev
	.long	_ZNK8wxObject13CreateRefDataEv
	.long	_ZNK8wxObject12CloneRefDataEPK15wxObjectRefData
	.long	_ZN12wxEvtHandler12ProcessEventER7wxEvent
	.long	_ZN12wxEvtHandler16SearchEventTableER12wxEventTableR7wxEvent
	.long	_ZN12wxWindowBase12TryValidatorER7wxEvent
	.long	_ZN12wxWindowBase9TryParentER7wxEvent
	.long	_ZNK10TestDialog13GetEventTableEv
	.long	_ZNK10TestDialog17GetEventHashTableEv
	.long	_ZN12wxEvtHandler17DoSetClientObjectEP12wxClientData
	.long	_ZNK12wxEvtHandler17DoGetClientObjectEv
	.long	_ZN12wxEvtHandler15DoSetClientDataEPv
	.long	_ZNK12wxEvtHandler15DoGetClientDataEv
	.long	_ZN20wxTopLevelWindowBase7DestroyEv
	.long	_ZN8wxWindow8SetLabelERK8wxString
	.long	_ZNK8wxWindow8GetLabelEv
	.long	_ZN12wxWindowBase7SetNameERK8wxString
	.long	_ZNK12wxWindowBase7GetNameEv
	.long	_ZNK8wxWindow18GetLayoutDirectionEv
	.long	_ZN8wxWindow18SetLayoutDirectionE17wxLayoutDirection
	.long	_ZNK8wxWindow24AdjustForLayoutDirectionEiii
	.long	_ZN19wxTopLevelWindowGTK5RaiseEv
	.long	_ZN8wxWindow5LowerEv
	.long	_ZNK12wxWindowBase19GetClientAreaOriginEv
	.long	_ZN12wxWindowBase3FitEv
	.long	_ZN12wxWindowBase9FitInsideEv
	.long	_ZN12wxWindowBase12SetSizeHintsEiiiiii
	.long	_ZN19wxTopLevelWindowGTK14DoSetSizeHintsEiiiiii
	.long	_ZN12wxWindowBase19SetVirtualSizeHintsEiiii
	.long	_ZN20wxTopLevelWindowBase10SetMinSizeERK6wxSize
	.long	_ZN20wxTopLevelWindowBase10SetMaxSizeERK6wxSize
	.long	_ZNK12wxWindowBase10GetMinSizeEv
	.long	_ZNK12wxWindowBase10GetMaxSizeEv
	.long	_ZN12wxWindowBase16DoSetVirtualSizeEii
	.long	_ZNK12wxWindowBase16DoGetVirtualSizeEv
	.long	_ZNK12wxWindowBase18GetBestVirtualSizeEv
	.long	_ZNK12wxWindowBase19GetWindowBorderSizeEv
	.long	_ZN8wxDialog4ShowEb
	.long	_ZN8wxWindow6EnableEb
	.long	_ZNK12wxWindowBase7IsShownEv
	.long	_ZNK12wxWindowBase9IsEnabledEv
	.long	_ZNK12wxWindowBase15IsShownOnScreenEv
	.long	_ZN19wxTopLevelWindowGTK18SetWindowStyleFlagEl
	.long	_ZNK12wxWindowBase18GetWindowStyleFlagEv
	.long	_ZNK8wxWindow10IsRetainedEv
	.long	_ZN12wxWindowBase13SetExtraStyleEl
	.long	_ZN12wxWindowBase9MakeModalEb
	.long	_ZN12wxWindowBase15SetThemeEnabledEb
	.long	_ZNK12wxWindowBase15GetThemeEnabledEv
	.long	_ZN12wxDialogBase8SetFocusEv
	.long	_ZN12wxWindowBase15SetFocusFromKbdEv
	.long	_ZNK12wxDialogBase12AcceptsFocusEv
	.long	_ZNK12wxWindowBase24AcceptsFocusFromKeyboardEv
	.long	_ZN12wxWindowBase8NavigateEi
	.long	_ZNK20wxTopLevelWindowBase10IsTopLevelEv
	.long	_ZN8wxWindow8ReparentEP12wxWindowBase
	.long	_ZN8wxWindow8AddChildEP12wxWindowBase
	.long	_ZN12wxDialogBase11RemoveChildEP12wxWindowBase
	.long	_ZN12wxWindowBase12SetValidatorERK11wxValidator
	.long	_ZN12wxWindowBase12GetValidatorEv
	.long	_ZN12wxWindowBase8ValidateEv
	.long	_ZN12wxWindowBase20TransferDataToWindowEv
	.long	_ZN12wxWindowBase22TransferDataFromWindowEv
	.long	_ZN12wxWindowBase10InitDialogEv
	.long	_ZN12wxWindowBase19SetAcceleratorTableERK18wxAcceleratorTable
	.long	_ZN8wxWindow11WarpPointerEii
	.long	_ZNK12wxWindowBase10HasCaptureEv
	.long	_ZN8wxWindow7RefreshEbPK6wxRect
	.long	_ZN8wxWindow6UpdateEv
	.long	_ZN8wxWindow15ClearBackgroundEv
	.long	_ZN12wxWindowBase6FreezeEv
	.long	_ZN12wxWindowBase4ThawEv
	.long	_ZNK12wxWindowBase8IsFrozenEv
	.long	_ZN12wxWindowBase9PrepareDCER4wxDC
	.long	_ZNK8wxWindow16IsDoubleBufferedEv
	.long	_ZNK8wxWindow11DoIsExposedEii
	.long	_ZNK8wxWindow11DoIsExposedEiiii
	.long	_ZNK12wxWindowBase20GetDefaultAttributesEv
	.long	_ZN8wxWindow19SetBackgroundColourERK8wxColour
	.long	_ZN8wxWindow19SetForegroundColourERK8wxColour
	.long	_ZN8wxWindow18SetBackgroundStyleE17wxBackgroundStyle
	.long	_ZNK12wxWindowBase18GetBackgroundStyleEv
	.long	_ZN12wxWindowBase24HasTransparentBackgroundEv
	.long	_ZN8wxWindow7SetFontERK6wxFont
	.long	_ZN8wxWindow9SetCursorERK8wxCursor
	.long	_ZNK8wxWindow13GetCharHeightEv
	.long	_ZNK8wxWindow12GetCharWidthEv
	.long	_ZNK8wxWindow13GetTextExtentERK8wxStringPiS3_S3_S3_PK6wxFont
	.long	_ZN12wxWindowBase14UpdateWindowUIEl
	.long	_ZN20wxTopLevelWindowBase16DoUpdateWindowUIER15wxUpdateUIEvent
	.long	_ZNK12wxWindowBase16HasMultiplePagesEv
	.long	_ZN8wxWindow12SetScrollbarEiiiib
	.long	_ZN8wxWindow12SetScrollPosEiib
	.long	_ZNK8wxWindow12GetScrollPosEi
	.long	_ZNK8wxWindow14GetScrollThumbEi
	.long	_ZNK8wxWindow14GetScrollRangeEi
	.long	_ZN8wxWindow12ScrollWindowEiiPK6wxRect
	.long	_ZN8wxWindow11ScrollLinesEi
	.long	_ZN8wxWindow11ScrollPagesEi
	.long	_ZNK12wxWindowBase18GetHelpTextAtPointERK7wxPointN11wxHelpEvent6OriginE
	.long	_ZN8wxWindow13SetDropTargetEP12wxDropTarget
	.long	_ZNK12wxWindowBase13GetDropTargetEv
	.long	_ZN12wxWindowBase18SetConstraintSizesEb
	.long	_ZN12wxWindowBase12LayoutPhase1EPi
	.long	_ZN12wxWindowBase12LayoutPhase2EPi
	.long	_ZN12wxWindowBase7DoPhaseEi
	.long	_ZN12wxWindowBase17SetSizeConstraintEiiii
	.long	_ZN12wxWindowBase14MoveConstraintEii
	.long	_ZNK12wxWindowBase17GetSizeConstraintEPiS0_
	.long	_ZNK12wxWindowBase23GetClientSizeConstraintEPiS0_
	.long	_ZNK12wxWindowBase21GetPositionConstraintEPiS0_
	.long	_ZN12wxWindowBase6LayoutEv
	.long	_ZN19wxTopLevelWindowGTK14SetTransparentEh
	.long	_ZN19wxTopLevelWindowGTK17CanSetTransparentEv
	.long	_ZN19wxTopLevelWindowGTK14OnInternalIdleEv
	.long	_ZNK8wxWindow9GetHandleEv
	.long	_ZN12wxWindowBase15AssociateHandleEP10_GtkWidget
	.long	_ZN12wxWindowBase16DissociateHandleEv
	.long	_ZN12wxWindowBase17InheritAttributesEv
	.long	_ZNK12wxWindowBase20ShouldInheritColoursEv
	.long	_ZN8wxWindow16DoMoveInTabOrderEPS_N12wxWindowBase8MoveKindE
	.long	_ZN12wxWindowBase31GetMainWindowOfCompositeControlEv
	.long	_ZNK12wxWindowBase16GetDefaultBorderEv
	.long	_ZN12wxWindowBase18SetInitialBestSizeERK6wxSize
	.long	_ZNK20wxTopLevelWindowBase16DoClientToScreenEPiS0_
	.long	_ZNK20wxTopLevelWindowBase16DoScreenToClientEPiS0_
	.long	_ZNK12wxWindowBase9DoHitTestEii
	.long	_ZN8wxWindow14DoCaptureMouseEv
	.long	_ZN8wxWindow14DoReleaseMouseEv
	.long	_ZNK8wxWindow13DoGetPositionEPiS0_
	.long	_ZNK20wxTopLevelWindowBase19DoGetScreenPositionEPiS0_
	.long	_ZNK8wxWindow9DoGetSizeEPiS0_
	.long	_ZNK19wxTopLevelWindowGTK15DoGetClientSizeEPiS0_
	.long	_ZNK12wxWindowBase13DoGetBestSizeEv
	.long	_ZNK12wxWindowBase27GetWindowSizeForVirtualSizeERK6wxSize
	.long	_ZN19wxTopLevelWindowGTK9DoSetSizeEiiiii
	.long	_ZN19wxTopLevelWindowGTK15DoSetClientSizeEii
	.long	_ZN19wxTopLevelWindowGTK12DoMoveWindowEiiii
	.long	_ZN20wxTopLevelWindowBase8DoCentreEi
	.long	_ZN8wxWindow12DoSetToolTipEP9wxToolTip
	.long	_ZN8wxWindow11DoPopupMenuEP6wxMenuii
	.long	_ZNK12wxWindowBase27AdjustForParentClientOriginERiS0_i
	.long	_ZN12wxWindowBase18DoSetWindowVariantE15wxWindowVariant
	.long	_ZN8wxWindow14OnParentEnableEb
	.long	_ZN8wxWindow16GetConnectWidgetEv
	.long	_ZNK8wxWindow15GTKProcessEventER7wxEvent
	.long	_ZNK8wxWindow22GTKWidgetNeedsMnemonicEv
	.long	_ZN8wxWindow22GTKWidgetDoSetMnemonicEP10_GtkWidget
	.long	_ZNK8wxWindow12GTKGetWindowER17wxArrayGdkWindows
	.long	_ZN8wxWindow12ApplyToolTipEP12_GtkTooltipsPKw
	.long	_ZN8wxWindow15FixUpMouseEventEP10_GtkWidgetRiS2_
	.long	_ZNK8wxWindow21IsTransparentForMouseEv
	.long	_ZNK8wxWindow13IsRadioButtonEv
	.long	_ZN8wxWindow16ApplyWidgetStyleEb
	.long	_ZN8wxWindow18DoApplyWidgetStyleEP11_GtkRcStyle
	.long	_ZN19wxTopLevelWindowGTK8MaximizeEb
	.long	_ZN19wxTopLevelWindowGTK7RestoreEv
	.long	_ZN19wxTopLevelWindowGTK7IconizeEb
	.long	_ZNK19wxTopLevelWindowGTK11IsMaximizedEv
	.long	_ZNK20wxTopLevelWindowBase17IsAlwaysMaximizedEv
	.long	_ZNK19wxTopLevelWindowGTK10IsIconizedEv
	.long	_ZN19wxTopLevelWindowGTK7SetIconERK6wxIcon
	.long	_ZN19wxTopLevelWindowGTK8SetIconsERK12wxIconBundle
	.long	_ZN19wxTopLevelWindowGTK14ShowFullScreenEbl
	.long	_ZNK19wxTopLevelWindowGTK12IsFullScreenEv
	.long	_ZN19wxTopLevelWindowGTK8SetTitleERK8wxString
	.long	_ZNK19wxTopLevelWindowGTK8GetTitleEv
	.long	_ZN19wxTopLevelWindowGTK17EnableCloseButtonEb
	.long	_ZN19wxTopLevelWindowGTK8SetShapeERK8wxRegion
	.long	_ZN19wxTopLevelWindowGTK20RequestUserAttentionEi
	.long	_ZN19wxTopLevelWindowGTK8IsActiveEv
	.long	_ZNK20wxTopLevelWindowBase20ShouldPreventAppExitEv
	.long	_ZNK20wxTopLevelWindowBase9IsVisibleEv
	.long	_ZN20wxTopLevelWindowBase26GetRectForTopLevelChildrenEPiS0_S0_S0_
	.long	_ZNK20wxTopLevelWindowBase11IsOneOfBarsEPK8wxWindow
	.long	_ZN19wxTopLevelWindowGTK7AddGrabEv
	.long	_ZN19wxTopLevelWindowGTK10RemoveGrabEv
	.long	_ZNK19wxTopLevelWindowGTK9IsGrabbedEv
	.long	_ZN19wxTopLevelWindowGTK9GtkOnSizeEv
	.long	_ZN8wxDialog9ShowModalEv
	.long	_ZN8wxDialog8EndModalEi
	.long	_ZNK8wxDialog7IsModalEv
	.long	_ZN12wxDialogBase11IsEscapeKeyERK10wxKeyEvent
	.long	_ZN12wxDialogBase12OnChildFocusER17wxChildFocusEvent
	.long	_ZN12wxDialogBase24SetFocusIgnoringChildrenEv
	.weak	_ZTV20wxThreadHelperThread
	.section	.rodata._ZTV20wxThreadHelperThread,"aG",@progbits,_ZTV20wxThreadHelperThread,comdat
	.align 8
	.type	_ZTV20wxThreadHelperThread, @object
	.size	_ZTV20wxThreadHelperThread, 28
_ZTV20wxThreadHelperThread:
	.long	0
	.long	_ZTI20wxThreadHelperThread
	.long	_ZN8wxThread6OnExitEv
	.long	_ZN8wxThread11TestDestroyEv
	.long	_ZN20wxThreadHelperThreadD1Ev
	.long	_ZN20wxThreadHelperThreadD0Ev
	.long	_ZN20wxThreadHelperThread5EntryEv
	.weak	_ZTS10TestDialog
	.section	.rodata._ZTS10TestDialog,"aG",@progbits,_ZTS10TestDialog,comdat
	.type	_ZTS10TestDialog, @object
	.size	_ZTS10TestDialog, 13
_ZTS10TestDialog:
	.string	"10TestDialog"
	.weak	_ZTI10TestDialog
	.section	.rodata._ZTI10TestDialog,"aG",@progbits,_ZTI10TestDialog,comdat
	.align 4
	.type	_ZTI10TestDialog, @object
	.size	_ZTI10TestDialog, 12
_ZTI10TestDialog:
	.long	_ZTVN10__cxxabiv120__si_class_type_infoE+8
	.long	_ZTS10TestDialog
	.long	_ZTI8wxDialog
	.weak	_ZTS20wxThreadHelperThread
	.section	.rodata._ZTS20wxThreadHelperThread,"aG",@progbits,_ZTS20wxThreadHelperThread,comdat
	.type	_ZTS20wxThreadHelperThread, @object
	.size	_ZTS20wxThreadHelperThread, 23
_ZTS20wxThreadHelperThread:
	.string	"20wxThreadHelperThread"
	.weak	_ZTI20wxThreadHelperThread
	.section	.rodata._ZTI20wxThreadHelperThread,"aG",@progbits,_ZTI20wxThreadHelperThread,comdat
	.align 4
	.type	_ZTI20wxThreadHelperThread, @object
	.size	_ZTI20wxThreadHelperThread, 12
_ZTI20wxThreadHelperThread:
	.long	_ZTVN10__cxxabiv120__si_class_type_infoE+8
	.long	_ZTS20wxThreadHelperThread
	.long	_ZTI8wxThread
	.local	_ZSt8__ioinit
	.comm	_ZSt8__ioinit,1,1
	.weak	_ZTV14wxComboBoxBase
	.section	.rodata._ZTV14wxComboBoxBase,"aG",@progbits,_ZTV14wxComboBoxBase,comdat
	.align 32
	.type	_ZTV14wxComboBoxBase, @object
	.size	_ZTV14wxComboBoxBase, 164
_ZTV14wxComboBoxBase:
	.long	0
	.long	_ZTI14wxComboBoxBase
	.long	_ZN14wxComboBoxBaseD1Ev
	.long	_ZN14wxComboBoxBaseD0Ev
	.long	__cxa_pure_virtual
	.long	__cxa_pure_virtual
	.long	__cxa_pure_virtual
	.long	_ZNK24wxItemContainerImmutable10FindStringERK8wxStringb
	.long	__cxa_pure_virtual
	.long	__cxa_pure_virtual
	.long	__cxa_pure_virtual
	.long	__cxa_pure_virtual
	.long	__cxa_pure_virtual
	.long	__cxa_pure_virtual
	.long	__cxa_pure_virtual
	.long	__cxa_pure_virtual
	.long	__cxa_pure_virtual
	.long	__cxa_pure_virtual
	.long	__cxa_pure_virtual
	.long	__cxa_pure_virtual
	.long	__cxa_pure_virtual
	.long	__cxa_pure_virtual
	.long	__cxa_pure_virtual
	.long	__cxa_pure_virtual
	.long	__cxa_pure_virtual
	.long	__cxa_pure_virtual
	.long	__cxa_pure_virtual
	.long	__cxa_pure_virtual
	.long	__cxa_pure_virtual
	.long	_ZN14wxComboBoxBase20SetInsertionPointEndEv
	.long	_ZN14wxComboBoxBase6RemoveEll
	.long	__cxa_pure_virtual
	.long	__cxa_pure_virtual
	.long	__cxa_pure_virtual
	.long	__cxa_pure_virtual
	.long	__cxa_pure_virtual
	.long	__cxa_pure_virtual
	.long	__cxa_pure_virtual
	.long	__cxa_pure_virtual
	.long	__cxa_pure_virtual
	.long	_ZNK14wxComboBoxBase19GetCurrentSelectionEv
	.weak	_ZTI14wxComboBoxBase
	.section	.rodata._ZTI14wxComboBoxBase,"aG",@progbits,_ZTI14wxComboBoxBase,comdat
	.align 4
	.type	_ZTI14wxComboBoxBase, @object
	.size	_ZTI14wxComboBoxBase, 12
_ZTI14wxComboBoxBase:
	.long	_ZTVN10__cxxabiv120__si_class_type_infoE+8
	.long	_ZTS14wxComboBoxBase
	.long	_ZTI15wxItemContainer
	.weak	_ZTS14wxComboBoxBase
	.section	.rodata._ZTS14wxComboBoxBase,"aG",@progbits,_ZTS14wxComboBoxBase,comdat
	.type	_ZTS14wxComboBoxBase, @object
	.size	_ZTS14wxComboBoxBase, 17
_ZTS14wxComboBoxBase:
	.string	"14wxComboBoxBase"
	.weak	_ZTV12wxObjectList
	.section	.rodata._ZTV12wxObjectList,"aG",@progbits,_ZTV12wxObjectList,comdat
	.align 32
	.type	_ZTV12wxObjectList, @object
	.size	_ZTV12wxObjectList, 36
_ZTV12wxObjectList:
	.long	0
	.long	_ZTI12wxObjectList
	.long	_ZNK8wxObject12GetClassInfoEv
	.long	_ZN12wxObjectListD1Ev
	.long	_ZN12wxObjectListD0Ev
	.long	_ZNK8wxObject13CreateRefDataEv
	.long	_ZNK8wxObject12CloneRefDataEPK15wxObjectRefData
	.long	_ZN12wxObjectList10CreateNodeEP10wxNodeBaseS1_PvRK9wxListKey
	.long	_ZNK12wxObjectList4FindERK9wxListKey
	.weak	_ZTI12wxObjectList
	.section	.rodata._ZTI12wxObjectList,"aG",@progbits,_ZTI12wxObjectList,comdat
	.align 4
	.type	_ZTI12wxObjectList, @object
	.size	_ZTI12wxObjectList, 12
_ZTI12wxObjectList:
	.long	_ZTVN10__cxxabiv120__si_class_type_infoE+8
	.long	_ZTS12wxObjectList
	.long	_ZTI10wxListBase
	.weak	_ZTS12wxObjectList
	.section	.rodata._ZTS12wxObjectList,"aG",@progbits,_ZTS12wxObjectList,comdat
	.type	_ZTS12wxObjectList, @object
	.size	_ZTS12wxObjectList, 15
_ZTS12wxObjectList:
	.string	"12wxObjectList"
	.weak	_ZTV12wxButtonBase
	.section	.rodata._ZTV12wxButtonBase,"aG",@progbits,_ZTV12wxButtonBase,comdat
	.align 32
	.type	_ZTV12wxButtonBase, @object
	.size	_ZTV12wxButtonBase, 656
_ZTV12wxButtonBase:
	.long	0
	.long	_ZTI12wxButtonBase
	.long	_ZNK9wxControl12GetClassInfoEv
	.long	_ZN12wxButtonBaseD1Ev
	.long	_ZN12wxButtonBaseD0Ev
	.long	_ZNK8wxObject13CreateRefDataEv
	.long	_ZNK8wxObject12CloneRefDataEPK15wxObjectRefData
	.long	_ZN12wxEvtHandler12ProcessEventER7wxEvent
	.long	_ZN12wxEvtHandler16SearchEventTableER12wxEventTableR7wxEvent
	.long	_ZN12wxWindowBase12TryValidatorER7wxEvent
	.long	_ZN12wxWindowBase9TryParentER7wxEvent
	.long	_ZNK12wxWindowBase13GetEventTableEv
	.long	_ZNK12wxWindowBase17GetEventHashTableEv
	.long	_ZN12wxEvtHandler17DoSetClientObjectEP12wxClientData
	.long	_ZNK12wxEvtHandler17DoGetClientObjectEv
	.long	_ZN12wxEvtHandler15DoSetClientDataEPv
	.long	_ZNK12wxEvtHandler15DoGetClientDataEv
	.long	_ZN8wxWindow7DestroyEv
	.long	_ZN9wxControl8SetLabelERK8wxString
	.long	_ZNK9wxControl8GetLabelEv
	.long	_ZN12wxWindowBase7SetNameERK8wxString
	.long	_ZNK12wxWindowBase7GetNameEv
	.long	_ZNK8wxWindow18GetLayoutDirectionEv
	.long	_ZN8wxWindow18SetLayoutDirectionE17wxLayoutDirection
	.long	_ZNK8wxWindow24AdjustForLayoutDirectionEiii
	.long	_ZN8wxWindow5RaiseEv
	.long	_ZN8wxWindow5LowerEv
	.long	_ZNK12wxWindowBase19GetClientAreaOriginEv
	.long	_ZN12wxWindowBase3FitEv
	.long	_ZN12wxWindowBase9FitInsideEv
	.long	_ZN12wxWindowBase12SetSizeHintsEiiiiii
	.long	_ZN12wxWindowBase14DoSetSizeHintsEiiiiii
	.long	_ZN12wxWindowBase19SetVirtualSizeHintsEiiii
	.long	_ZN12wxWindowBase10SetMinSizeERK6wxSize
	.long	_ZN12wxWindowBase10SetMaxSizeERK6wxSize
	.long	_ZNK12wxWindowBase10GetMinSizeEv
	.long	_ZNK12wxWindowBase10GetMaxSizeEv
	.long	_ZN12wxWindowBase16DoSetVirtualSizeEii
	.long	_ZNK12wxWindowBase16DoGetVirtualSizeEv
	.long	_ZNK12wxWindowBase18GetBestVirtualSizeEv
	.long	_ZNK12wxWindowBase19GetWindowBorderSizeEv
	.long	_ZN8wxWindow4ShowEb
	.long	_ZN8wxWindow6EnableEb
	.long	_ZNK12wxWindowBase7IsShownEv
	.long	_ZNK12wxWindowBase9IsEnabledEv
	.long	_ZNK12wxWindowBase15IsShownOnScreenEv
	.long	_ZN8wxWindow18SetWindowStyleFlagEl
	.long	_ZNK12wxWindowBase18GetWindowStyleFlagEv
	.long	_ZNK8wxWindow10IsRetainedEv
	.long	_ZN12wxWindowBase13SetExtraStyleEl
	.long	_ZN12wxWindowBase9MakeModalEb
	.long	_ZN12wxWindowBase15SetThemeEnabledEb
	.long	_ZNK12wxWindowBase15GetThemeEnabledEv
	.long	_ZN8wxWindow8SetFocusEv
	.long	_ZN12wxWindowBase15SetFocusFromKbdEv
	.long	_ZNK8wxWindow12AcceptsFocusEv
	.long	_ZNK12wxWindowBase24AcceptsFocusFromKeyboardEv
	.long	_ZN12wxWindowBase8NavigateEi
	.long	_ZNK12wxWindowBase10IsTopLevelEv
	.long	_ZN8wxWindow8ReparentEP12wxWindowBase
	.long	_ZN8wxWindow8AddChildEP12wxWindowBase
	.long	_ZN8wxWindow11RemoveChildEP12wxWindowBase
	.long	_ZN12wxWindowBase12SetValidatorERK11wxValidator
	.long	_ZN12wxWindowBase12GetValidatorEv
	.long	_ZN12wxWindowBase8ValidateEv
	.long	_ZN12wxWindowBase20TransferDataToWindowEv
	.long	_ZN12wxWindowBase22TransferDataFromWindowEv
	.long	_ZN12wxWindowBase10InitDialogEv
	.long	_ZN12wxWindowBase19SetAcceleratorTableERK18wxAcceleratorTable
	.long	_ZN8wxWindow11WarpPointerEii
	.long	_ZNK12wxWindowBase10HasCaptureEv
	.long	_ZN8wxWindow7RefreshEbPK6wxRect
	.long	_ZN8wxWindow6UpdateEv
	.long	_ZN8wxWindow15ClearBackgroundEv
	.long	_ZN12wxWindowBase6FreezeEv
	.long	_ZN12wxWindowBase4ThawEv
	.long	_ZNK12wxWindowBase8IsFrozenEv
	.long	_ZN12wxWindowBase9PrepareDCER4wxDC
	.long	_ZNK8wxWindow16IsDoubleBufferedEv
	.long	_ZNK8wxWindow11DoIsExposedEii
	.long	_ZNK8wxWindow11DoIsExposedEiiii
	.long	_ZNK9wxControl20GetDefaultAttributesEv
	.long	_ZN8wxWindow19SetBackgroundColourERK8wxColour
	.long	_ZN8wxWindow19SetForegroundColourERK8wxColour
	.long	_ZN8wxWindow18SetBackgroundStyleE17wxBackgroundStyle
	.long	_ZNK12wxWindowBase18GetBackgroundStyleEv
	.long	_ZN12wxWindowBase24HasTransparentBackgroundEv
	.long	_ZN13wxControlBase7SetFontERK6wxFont
	.long	_ZN8wxWindow9SetCursorERK8wxCursor
	.long	_ZNK8wxWindow13GetCharHeightEv
	.long	_ZNK8wxWindow12GetCharWidthEv
	.long	_ZNK8wxWindow13GetTextExtentERK8wxStringPiS3_S3_S3_PK6wxFont
	.long	_ZN12wxWindowBase14UpdateWindowUIEl
	.long	_ZN13wxControlBase16DoUpdateWindowUIER15wxUpdateUIEvent
	.long	_ZNK12wxWindowBase16HasMultiplePagesEv
	.long	_ZN8wxWindow12SetScrollbarEiiiib
	.long	_ZN8wxWindow12SetScrollPosEiib
	.long	_ZNK8wxWindow12GetScrollPosEi
	.long	_ZNK8wxWindow14GetScrollThumbEi
	.long	_ZNK8wxWindow14GetScrollRangeEi
	.long	_ZN8wxWindow12ScrollWindowEiiPK6wxRect
	.long	_ZN8wxWindow11ScrollLinesEi
	.long	_ZN8wxWindow11ScrollPagesEi
	.long	_ZNK12wxWindowBase18GetHelpTextAtPointERK7wxPointN11wxHelpEvent6OriginE
	.long	_ZN8wxWindow13SetDropTargetEP12wxDropTarget
	.long	_ZNK12wxWindowBase13GetDropTargetEv
	.long	_ZN12wxWindowBase18SetConstraintSizesEb
	.long	_ZN12wxWindowBase12LayoutPhase1EPi
	.long	_ZN12wxWindowBase12LayoutPhase2EPi
	.long	_ZN12wxWindowBase7DoPhaseEi
	.long	_ZN12wxWindowBase17SetSizeConstraintEiiii
	.long	_ZN12wxWindowBase14MoveConstraintEii
	.long	_ZNK12wxWindowBase17GetSizeConstraintEPiS0_
	.long	_ZNK12wxWindowBase23GetClientSizeConstraintEPiS0_
	.long	_ZNK12wxWindowBase21GetPositionConstraintEPiS0_
	.long	_ZN12wxWindowBase6LayoutEv
	.long	_ZN12wxWindowBase14SetTransparentEh
	.long	_ZN12wxWindowBase17CanSetTransparentEv
	.long	_ZN9wxControl14OnInternalIdleEv
	.long	_ZNK8wxWindow9GetHandleEv
	.long	_ZN12wxWindowBase15AssociateHandleEP10_GtkWidget
	.long	_ZN12wxWindowBase16DissociateHandleEv
	.long	_ZN12wxWindowBase17InheritAttributesEv
	.long	_ZNK12wxButtonBase20ShouldInheritColoursEv
	.long	_ZN8wxWindow16DoMoveInTabOrderEPS_N12wxWindowBase8MoveKindE
	.long	_ZN12wxWindowBase31GetMainWindowOfCompositeControlEv
	.long	_ZNK12wxWindowBase16GetDefaultBorderEv
	.long	_ZN12wxWindowBase18SetInitialBestSizeERK6wxSize
	.long	_ZNK8wxWindow16DoClientToScreenEPiS0_
	.long	_ZNK8wxWindow16DoScreenToClientEPiS0_
	.long	_ZNK12wxWindowBase9DoHitTestEii
	.long	_ZN8wxWindow14DoCaptureMouseEv
	.long	_ZN8wxWindow14DoReleaseMouseEv
	.long	_ZNK8wxWindow13DoGetPositionEPiS0_
	.long	_ZNK12wxWindowBase19DoGetScreenPositionEPiS0_
	.long	_ZNK8wxWindow9DoGetSizeEPiS0_
	.long	_ZNK8wxWindow15DoGetClientSizeEPiS0_
	.long	_ZNK9wxControl13DoGetBestSizeEv
	.long	_ZNK12wxWindowBase27GetWindowSizeForVirtualSizeERK6wxSize
	.long	_ZN8wxWindow9DoSetSizeEiiiii
	.long	_ZN8wxWindow15DoSetClientSizeEii
	.long	_ZN8wxWindow12DoMoveWindowEiiii
	.long	_ZN12wxWindowBase8DoCentreEi
	.long	_ZN8wxWindow12DoSetToolTipEP9wxToolTip
	.long	_ZN8wxWindow11DoPopupMenuEP6wxMenuii
	.long	_ZNK12wxWindowBase27AdjustForParentClientOriginERiS0_i
	.long	_ZN12wxWindowBase18DoSetWindowVariantE15wxWindowVariant
	.long	_ZN8wxWindow14OnParentEnableEb
	.long	_ZN8wxWindow16GetConnectWidgetEv
	.long	_ZNK8wxWindow15GTKProcessEventER7wxEvent
	.long	_ZNK8wxWindow22GTKWidgetNeedsMnemonicEv
	.long	_ZN8wxWindow22GTKWidgetDoSetMnemonicEP10_GtkWidget
	.long	_ZNK8wxWindow12GTKGetWindowER17wxArrayGdkWindows
	.long	_ZN8wxWindow12ApplyToolTipEP12_GtkTooltipsPKw
	.long	_ZN8wxWindow15FixUpMouseEventEP10_GtkWidgetRiS2_
	.long	_ZNK8wxWindow21IsTransparentForMouseEv
	.long	_ZNK8wxWindow13IsRadioButtonEv
	.long	_ZN8wxWindow16ApplyWidgetStyleEb
	.long	_ZN8wxWindow18DoApplyWidgetStyleEP11_GtkRcStyle
	.long	_ZN13wxControlBase7CommandER14wxCommandEvent
	.long	_ZNK9wxControl15UseGTKStyleBaseEv
	.long	_ZN12wxButtonBase13SetImageLabelERK8wxBitmap
	.long	_ZN12wxButtonBase15SetImageMarginsEii
	.long	_ZN12wxButtonBase10SetDefaultEv
	.weak	_ZTI12wxButtonBase
	.section	.rodata._ZTI12wxButtonBase,"aG",@progbits,_ZTI12wxButtonBase,comdat
	.align 4
	.type	_ZTI12wxButtonBase, @object
	.size	_ZTI12wxButtonBase, 12
_ZTI12wxButtonBase:
	.long	_ZTVN10__cxxabiv120__si_class_type_infoE+8
	.long	_ZTS12wxButtonBase
	.long	_ZTI9wxControl
	.weak	_ZTS12wxButtonBase
	.section	.rodata._ZTS12wxButtonBase,"aG",@progbits,_ZTS12wxButtonBase,comdat
	.type	_ZTS12wxButtonBase, @object
	.size	_ZTS12wxButtonBase, 15
_ZTS12wxButtonBase:
	.string	"12wxButtonBase"
	.weakref	_Z20__gthrw_pthread_oncePiPFvvE,pthread_once
	.weakref	_Z27__gthrw_pthread_getspecificj,pthread_getspecific
	.weakref	_Z27__gthrw_pthread_setspecificjPKv,pthread_setspecific
	.weakref	_Z22__gthrw_pthread_createPmPK14pthread_attr_tPFPvS3_ES3_,pthread_create
	.weakref	_Z22__gthrw_pthread_cancelm,pthread_cancel
	.weakref	_Z26__gthrw_pthread_mutex_lockP15pthread_mutex_t,pthread_mutex_lock
	.weakref	_Z29__gthrw_pthread_mutex_trylockP15pthread_mutex_t,pthread_mutex_trylock
	.weakref	_Z28__gthrw_pthread_mutex_unlockP15pthread_mutex_t,pthread_mutex_unlock
	.weakref	_Z26__gthrw_pthread_mutex_initP15pthread_mutex_tPK19pthread_mutexattr_t,pthread_mutex_init
	.weakref	_Z26__gthrw_pthread_key_createPjPFvPvE,pthread_key_create
	.weakref	_Z26__gthrw_pthread_key_deletej,pthread_key_delete
	.weakref	_Z30__gthrw_pthread_mutexattr_initP19pthread_mutexattr_t,pthread_mutexattr_init
	.weakref	_Z33__gthrw_pthread_mutexattr_settypeP19pthread_mutexattr_ti,pthread_mutexattr_settype
	.weakref	_Z33__gthrw_pthread_mutexattr_destroyP19pthread_mutexattr_t,pthread_mutexattr_destroy
	.section	.debug_frame,"",@progbits
.Lframe0:
	.long	.LECIE0-.LSCIE0
.LSCIE0:
	.long	0xffffffff
	.byte	0x1
	.string	""
	.uleb128 0x1
	.sleb128 -4
	.byte	0x8
	.byte	0xc
	.uleb128 0x4
	.uleb128 0x4
	.byte	0x88
	.uleb128 0x1
	.align 4
.LECIE0:
.LSFDE0:
	.long	.LEFDE0-.LASFDE0
.LASFDE0:
	.long	.Lframe0
	.long	.LFB1034
	.long	.LFE1034-.LFB1034
	.byte	0x4
	.long	.LCFI0-.LFB1034
	.byte	0xe
	.uleb128 0x8
	.byte	0x85
	.uleb128 0x2
	.byte	0x4
	.long	.LCFI1-.LCFI0
	.byte	0xd
	.uleb128 0x5
	.align 4
.LEFDE0:
.LSFDE2:
	.long	.LEFDE2-.LASFDE2
.LASFDE2:
	.long	.Lframe0
	.long	.LFB1036
	.long	.LFE1036-.LFB1036
	.byte	0x4
	.long	.LCFI2-.LFB1036
	.byte	0xe
	.uleb128 0x8
	.byte	0x85
	.uleb128 0x2
	.byte	0x4
	.long	.LCFI3-.LCFI2
	.byte	0xd
	.uleb128 0x5
	.align 4
.LEFDE2:
.LSFDE4:
	.long	.LEFDE4-.LASFDE4
.LASFDE4:
	.long	.Lframe0
	.long	.LFB1040
	.long	.LFE1040-.LFB1040
	.byte	0x4
	.long	.LCFI5-.LFB1040
	.byte	0xe
	.uleb128 0x8
	.byte	0x85
	.uleb128 0x2
	.byte	0x4
	.long	.LCFI6-.LCFI5
	.byte	0xd
	.uleb128 0x5
	.align 4
.LEFDE4:
.LSFDE6:
	.long	.LEFDE6-.LASFDE6
.LASFDE6:
	.long	.Lframe0
	.long	.LFB1041
	.long	.LFE1041-.LFB1041
	.byte	0x4
	.long	.LCFI7-.LFB1041
	.byte	0xe
	.uleb128 0x8
	.byte	0x85
	.uleb128 0x2
	.byte	0x4
	.long	.LCFI8-.LCFI7
	.byte	0xd
	.uleb128 0x5
	.align 4
.LEFDE6:
.LSFDE8:
	.long	.LEFDE8-.LASFDE8
.LASFDE8:
	.long	.Lframe0
	.long	.LFB1093
	.long	.LFE1093-.LFB1093
	.byte	0x4
	.long	.LCFI9-.LFB1093
	.byte	0xe
	.uleb128 0x8
	.byte	0x85
	.uleb128 0x2
	.byte	0x4
	.long	.LCFI10-.LCFI9
	.byte	0xd
	.uleb128 0x5
	.align 4
.LEFDE8:
.LSFDE10:
	.long	.LEFDE10-.LASFDE10
.LASFDE10:
	.long	.Lframe0
	.long	.LFB1097
	.long	.LFE1097-.LFB1097
	.byte	0x4
	.long	.LCFI12-.LFB1097
	.byte	0xe
	.uleb128 0x8
	.byte	0x85
	.uleb128 0x2
	.byte	0x4
	.long	.LCFI13-.LCFI12
	.byte	0xd
	.uleb128 0x5
	.align 4
.LEFDE10:
.LSFDE12:
	.long	.LEFDE12-.LASFDE12
.LASFDE12:
	.long	.Lframe0
	.long	.LFB1076
	.long	.LFE1076-.LFB1076
	.byte	0x4
	.long	.LCFI15-.LFB1076
	.byte	0xe
	.uleb128 0x8
	.byte	0x85
	.uleb128 0x2
	.byte	0x4
	.long	.LCFI16-.LCFI15
	.byte	0xd
	.uleb128 0x5
	.align 4
.LEFDE12:
.LSFDE14:
	.long	.LEFDE14-.LASFDE14
.LASFDE14:
	.long	.Lframe0
	.long	.LFB1126
	.long	.LFE1126-.LFB1126
	.byte	0x4
	.long	.LCFI18-.LFB1126
	.byte	0xe
	.uleb128 0x8
	.byte	0x85
	.uleb128 0x2
	.byte	0x4
	.long	.LCFI19-.LCFI18
	.byte	0xd
	.uleb128 0x5
	.align 4
.LEFDE14:
.LSFDE16:
	.long	.LEFDE16-.LASFDE16
.LASFDE16:
	.long	.Lframe0
	.long	.LFB1151
	.long	.LFE1151-.LFB1151
	.byte	0x4
	.long	.LCFI20-.LFB1151
	.byte	0xe
	.uleb128 0x8
	.byte	0x85
	.uleb128 0x2
	.byte	0x4
	.long	.LCFI21-.LCFI20
	.byte	0xd
	.uleb128 0x5
	.align 4
.LEFDE16:
.LSFDE18:
	.long	.LEFDE18-.LASFDE18
.LASFDE18:
	.long	.Lframe0
	.long	.LFB1188
	.long	.LFE1188-.LFB1188
	.byte	0x4
	.long	.LCFI23-.LFB1188
	.byte	0xe
	.uleb128 0x8
	.byte	0x85
	.uleb128 0x2
	.byte	0x4
	.long	.LCFI24-.LCFI23
	.byte	0xd
	.uleb128 0x5
	.align 4
.LEFDE18:
.LSFDE20:
	.long	.LEFDE20-.LASFDE20
.LASFDE20:
	.long	.Lframe0
	.long	.LFB1878
	.long	.LFE1878-.LFB1878
	.byte	0x4
	.long	.LCFI26-.LFB1878
	.byte	0xe
	.uleb128 0x8
	.byte	0x85
	.uleb128 0x2
	.byte	0x4
	.long	.LCFI27-.LCFI26
	.byte	0xd
	.uleb128 0x5
	.align 4
.LEFDE20:
.LSFDE22:
	.long	.LEFDE22-.LASFDE22
.LASFDE22:
	.long	.Lframe0
	.long	.LFB2205
	.long	.LFE2205-.LFB2205
	.byte	0x4
	.long	.LCFI28-.LFB2205
	.byte	0xe
	.uleb128 0x8
	.byte	0x85
	.uleb128 0x2
	.byte	0x4
	.long	.LCFI29-.LCFI28
	.byte	0xd
	.uleb128 0x5
	.align 4
.LEFDE22:
.LSFDE24:
	.long	.LEFDE24-.LASFDE24
.LASFDE24:
	.long	.Lframe0
	.long	.LFB2230
	.long	.LFE2230-.LFB2230
	.byte	0x4
	.long	.LCFI30-.LFB2230
	.byte	0xe
	.uleb128 0x8
	.byte	0x85
	.uleb128 0x2
	.byte	0x4
	.long	.LCFI31-.LCFI30
	.byte	0xd
	.uleb128 0x5
	.align 4
.LEFDE24:
.LSFDE26:
	.long	.LEFDE26-.LASFDE26
.LASFDE26:
	.long	.Lframe0
	.long	.LFB2823
	.long	.LFE2823-.LFB2823
	.byte	0x4
	.long	.LCFI33-.LFB2823
	.byte	0xe
	.uleb128 0x8
	.byte	0x85
	.uleb128 0x2
	.byte	0x4
	.long	.LCFI34-.LCFI33
	.byte	0xd
	.uleb128 0x5
	.align 4
.LEFDE26:
.LSFDE28:
	.long	.LEFDE28-.LASFDE28
.LASFDE28:
	.long	.Lframe0
	.long	.LFB2837
	.long	.LFE2837-.LFB2837
	.byte	0x4
	.long	.LCFI35-.LFB2837
	.byte	0xe
	.uleb128 0x8
	.byte	0x85
	.uleb128 0x2
	.byte	0x4
	.long	.LCFI36-.LCFI35
	.byte	0xd
	.uleb128 0x5
	.align 4
.LEFDE28:
.LSFDE30:
	.long	.LEFDE30-.LASFDE30
.LASFDE30:
	.long	.Lframe0
	.long	.LFB3900
	.long	.LFE3900-.LFB3900
	.byte	0x4
	.long	.LCFI38-.LFB3900
	.byte	0xe
	.uleb128 0x8
	.byte	0x85
	.uleb128 0x2
	.byte	0x4
	.long	.LCFI39-.LCFI38
	.byte	0xd
	.uleb128 0x5
	.align 4
.LEFDE30:
.LSFDE32:
	.long	.LEFDE32-.LASFDE32
.LASFDE32:
	.long	.Lframe0
	.long	.LFB3907
	.long	.LFE3907-.LFB3907
	.byte	0x4
	.long	.LCFI40-.LFB3907
	.byte	0xe
	.uleb128 0x8
	.byte	0x85
	.uleb128 0x2
	.byte	0x4
	.long	.LCFI41-.LCFI40
	.byte	0xd
	.uleb128 0x5
	.align 4
.LEFDE32:
.LSFDE34:
	.long	.LEFDE34-.LASFDE34
.LASFDE34:
	.long	.Lframe0
	.long	.LFB4668
	.long	.LFE4668-.LFB4668
	.byte	0x4
	.long	.LCFI43-.LFB4668
	.byte	0xe
	.uleb128 0x8
	.byte	0x85
	.uleb128 0x2
	.byte	0x4
	.long	.LCFI44-.LCFI43
	.byte	0xd
	.uleb128 0x5
	.byte	0x4
	.long	.LCFI46-.LCFI44
	.byte	0x83
	.uleb128 0x3
	.align 4
.LEFDE34:
.LSFDE36:
	.long	.LEFDE36-.LASFDE36
.LASFDE36:
	.long	.Lframe0
	.long	.LFB4669
	.long	.LFE4669-.LFB4669
	.byte	0x4
	.long	.LCFI47-.LFB4669
	.byte	0xe
	.uleb128 0x8
	.byte	0x85
	.uleb128 0x2
	.byte	0x4
	.long	.LCFI48-.LCFI47
	.byte	0xd
	.uleb128 0x5
	.align 4
.LEFDE36:
.LSFDE38:
	.long	.LEFDE38-.LASFDE38
.LASFDE38:
	.long	.Lframe0
	.long	.LFB4694
	.long	.LFE4694-.LFB4694
	.byte	0x4
	.long	.LCFI49-.LFB4694
	.byte	0xe
	.uleb128 0x8
	.byte	0x85
	.uleb128 0x2
	.byte	0x4
	.long	.LCFI50-.LCFI49
	.byte	0xd
	.uleb128 0x5
	.byte	0x4
	.long	.LCFI52-.LCFI50
	.byte	0x83
	.uleb128 0x3
	.align 4
.LEFDE38:
.LSFDE40:
	.long	.LEFDE40-.LASFDE40
.LASFDE40:
	.long	.Lframe0
	.long	.LFB4698
	.long	.LFE4698-.LFB4698
	.byte	0x4
	.long	.LCFI53-.LFB4698
	.byte	0xe
	.uleb128 0x8
	.byte	0x85
	.uleb128 0x2
	.byte	0x4
	.long	.LCFI54-.LCFI53
	.byte	0xd
	.uleb128 0x5
	.align 4
.LEFDE40:
.LSFDE42:
	.long	.LEFDE42-.LASFDE42
.LASFDE42:
	.long	.Lframe0
	.long	.LFB4707
	.long	.LFE4707-.LFB4707
	.byte	0x4
	.long	.LCFI56-.LFB4707
	.byte	0xe
	.uleb128 0x8
	.byte	0x85
	.uleb128 0x2
	.byte	0x4
	.long	.LCFI57-.LCFI56
	.byte	0xd
	.uleb128 0x5
	.align 4
.LEFDE42:
.LSFDE44:
	.long	.LEFDE44-.LASFDE44
.LASFDE44:
	.long	.Lframe0
	.long	.LFB4708
	.long	.LFE4708-.LFB4708
	.byte	0x4
	.long	.LCFI59-.LFB4708
	.byte	0xe
	.uleb128 0x8
	.byte	0x85
	.uleb128 0x2
	.byte	0x4
	.long	.LCFI60-.LCFI59
	.byte	0xd
	.uleb128 0x5
	.byte	0x4
	.long	.LCFI64-.LCFI60
	.byte	0x83
	.uleb128 0x5
	.byte	0x86
	.uleb128 0x4
	.byte	0x87
	.uleb128 0x3
	.align 4
.LEFDE44:
.LSFDE46:
	.long	.LEFDE46-.LASFDE46
.LASFDE46:
	.long	.Lframe0
	.long	.LFB4710
	.long	.LFE4710-.LFB4710
	.byte	0x4
	.long	.LCFI65-.LFB4710
	.byte	0xe
	.uleb128 0x8
	.byte	0x85
	.uleb128 0x2
	.byte	0x4
	.long	.LCFI66-.LCFI65
	.byte	0xd
	.uleb128 0x5
	.align 4
.LEFDE46:
.LSFDE48:
	.long	.LEFDE48-.LASFDE48
.LASFDE48:
	.long	.Lframe0
	.long	.LFB4711
	.long	.LFE4711-.LFB4711
	.byte	0x4
	.long	.LCFI67-.LFB4711
	.byte	0xe
	.uleb128 0x8
	.byte	0x85
	.uleb128 0x2
	.byte	0x4
	.long	.LCFI68-.LCFI67
	.byte	0xd
	.uleb128 0x5
	.align 4
.LEFDE48:
.LSFDE50:
	.long	.LEFDE50-.LASFDE50
.LASFDE50:
	.long	.Lframe0
	.long	.LFB4712
	.long	.LFE4712-.LFB4712
	.byte	0x4
	.long	.LCFI69-.LFB4712
	.byte	0xe
	.uleb128 0x8
	.byte	0x85
	.uleb128 0x2
	.byte	0x4
	.long	.LCFI70-.LCFI69
	.byte	0xd
	.uleb128 0x5
	.byte	0x4
	.long	.LCFI72-.LCFI70
	.byte	0x83
	.uleb128 0x3
	.align 4
.LEFDE50:
.LSFDE52:
	.long	.LEFDE52-.LASFDE52
.LASFDE52:
	.long	.Lframe0
	.long	.LFB4713
	.long	.LFE4713-.LFB4713
	.byte	0x4
	.long	.LCFI73-.LFB4713
	.byte	0xe
	.uleb128 0x8
	.byte	0x85
	.uleb128 0x2
	.byte	0x4
	.long	.LCFI74-.LCFI73
	.byte	0xd
	.uleb128 0x5
	.byte	0x4
	.long	.LCFI76-.LCFI74
	.byte	0x83
	.uleb128 0x3
	.align 4
.LEFDE52:
.LSFDE54:
	.long	.LEFDE54-.LASFDE54
.LASFDE54:
	.long	.Lframe0
	.long	.LFB4722
	.long	.LFE4722-.LFB4722
	.byte	0x4
	.long	.LCFI77-.LFB4722
	.byte	0xe
	.uleb128 0x8
	.byte	0x85
	.uleb128 0x2
	.byte	0x4
	.long	.LCFI78-.LCFI77
	.byte	0xd
	.uleb128 0x5
	.align 4
.LEFDE54:
.LSFDE56:
	.long	.LEFDE56-.LASFDE56
.LASFDE56:
	.long	.Lframe0
	.long	.LFB4725
	.long	.LFE4725-.LFB4725
	.byte	0x4
	.long	.LCFI80-.LFB4725
	.byte	0xe
	.uleb128 0x8
	.byte	0x85
	.uleb128 0x2
	.byte	0x4
	.long	.LCFI81-.LCFI80
	.byte	0xd
	.uleb128 0x5
	.align 4
.LEFDE56:
.LSFDE58:
	.long	.LEFDE58-.LASFDE58
.LASFDE58:
	.long	.Lframe0
	.long	.LFB4726
	.long	.LFE4726-.LFB4726
	.byte	0x4
	.long	.LCFI82-.LFB4726
	.byte	0xe
	.uleb128 0x8
	.byte	0x85
	.uleb128 0x2
	.byte	0x4
	.long	.LCFI83-.LCFI82
	.byte	0xd
	.uleb128 0x5
	.align 4
.LEFDE58:
.LSFDE60:
	.long	.LEFDE60-.LASFDE60
.LASFDE60:
	.long	.Lframe0
	.long	.LFB4728
	.long	.LFE4728-.LFB4728
	.byte	0x4
	.long	.LCFI84-.LFB4728
	.byte	0xe
	.uleb128 0x8
	.byte	0x85
	.uleb128 0x2
	.byte	0x4
	.long	.LCFI85-.LCFI84
	.byte	0xd
	.uleb128 0x5
	.align 4
.LEFDE60:
.LSFDE62:
	.long	.LEFDE62-.LASFDE62
.LASFDE62:
	.long	.Lframe0
	.long	.LFB4733
	.long	.LFE4733-.LFB4733
	.byte	0x4
	.long	.LCFI86-.LFB4733
	.byte	0xe
	.uleb128 0x8
	.byte	0x85
	.uleb128 0x2
	.byte	0x4
	.long	.LCFI87-.LCFI86
	.byte	0xd
	.uleb128 0x5
	.align 4
.LEFDE62:
.LSFDE64:
	.long	.LEFDE64-.LASFDE64
.LASFDE64:
	.long	.Lframe0
	.long	.LFB4735
	.long	.LFE4735-.LFB4735
	.byte	0x4
	.long	.LCFI88-.LFB4735
	.byte	0xe
	.uleb128 0x8
	.byte	0x85
	.uleb128 0x2
	.byte	0x4
	.long	.LCFI89-.LCFI88
	.byte	0xd
	.uleb128 0x5
	.align 4
.LEFDE64:
.LSFDE66:
	.long	.LEFDE66-.LASFDE66
.LASFDE66:
	.long	.Lframe0
	.long	.LFB4736
	.long	.LFE4736-.LFB4736
	.byte	0x4
	.long	.LCFI91-.LFB4736
	.byte	0xe
	.uleb128 0x8
	.byte	0x85
	.uleb128 0x2
	.byte	0x4
	.long	.LCFI92-.LCFI91
	.byte	0xd
	.uleb128 0x5
	.align 4
.LEFDE66:
.LSFDE68:
	.long	.LEFDE68-.LASFDE68
.LASFDE68:
	.long	.Lframe0
	.long	.LFB4737
	.long	.LFE4737-.LFB4737
	.byte	0x4
	.long	.LCFI93-.LFB4737
	.byte	0xe
	.uleb128 0x8
	.byte	0x85
	.uleb128 0x2
	.byte	0x4
	.long	.LCFI94-.LCFI93
	.byte	0xd
	.uleb128 0x5
	.align 4
.LEFDE68:
.LSFDE70:
	.long	.LEFDE70-.LASFDE70
.LASFDE70:
	.long	.Lframe0
	.long	.LFB4739
	.long	.LFE4739-.LFB4739
	.byte	0x4
	.long	.LCFI96-.LFB4739
	.byte	0xe
	.uleb128 0x8
	.byte	0x85
	.uleb128 0x2
	.byte	0x4
	.long	.LCFI97-.LCFI96
	.byte	0xd
	.uleb128 0x5
	.align 4
.LEFDE70:
.LSFDE72:
	.long	.LEFDE72-.LASFDE72
.LASFDE72:
	.long	.Lframe0
	.long	.LFB4751
	.long	.LFE4751-.LFB4751
	.byte	0x4
	.long	.LCFI99-.LFB4751
	.byte	0xe
	.uleb128 0x8
	.byte	0x85
	.uleb128 0x2
	.byte	0x4
	.long	.LCFI100-.LCFI99
	.byte	0xd
	.uleb128 0x5
	.align 4
.LEFDE72:
.LSFDE74:
	.long	.LEFDE74-.LASFDE74
.LASFDE74:
	.long	.Lframe0
	.long	.LFB4760
	.long	.LFE4760-.LFB4760
	.byte	0x4
	.long	.LCFI101-.LFB4760
	.byte	0xe
	.uleb128 0x8
	.byte	0x85
	.uleb128 0x2
	.byte	0x4
	.long	.LCFI102-.LCFI101
	.byte	0xd
	.uleb128 0x5
	.align 4
.LEFDE74:
.LSFDE76:
	.long	.LEFDE76-.LASFDE76
.LASFDE76:
	.long	.Lframe0
	.long	.LFB4761
	.long	.LFE4761-.LFB4761
	.byte	0x4
	.long	.LCFI103-.LFB4761
	.byte	0xe
	.uleb128 0x8
	.byte	0x85
	.uleb128 0x2
	.byte	0x4
	.long	.LCFI104-.LCFI103
	.byte	0xd
	.uleb128 0x5
	.align 4
.LEFDE76:
.LSFDE78:
	.long	.LEFDE78-.LASFDE78
.LASFDE78:
	.long	.Lframe0
	.long	.LFB4762
	.long	.LFE4762-.LFB4762
	.byte	0x4
	.long	.LCFI105-.LFB4762
	.byte	0xe
	.uleb128 0x8
	.byte	0x85
	.uleb128 0x2
	.byte	0x4
	.long	.LCFI106-.LCFI105
	.byte	0xd
	.uleb128 0x5
	.align 4
.LEFDE78:
.LSFDE80:
	.long	.LEFDE80-.LASFDE80
.LASFDE80:
	.long	.Lframe0
	.long	.LFB4763
	.long	.LFE4763-.LFB4763
	.byte	0x4
	.long	.LCFI107-.LFB4763
	.byte	0xe
	.uleb128 0x8
	.byte	0x85
	.uleb128 0x2
	.byte	0x4
	.long	.LCFI108-.LCFI107
	.byte	0xd
	.uleb128 0x5
	.align 4
.LEFDE80:
.LSFDE82:
	.long	.LEFDE82-.LASFDE82
.LASFDE82:
	.long	.Lframe0
	.long	.LFB4795
	.long	.LFE4795-.LFB4795
	.byte	0x4
	.long	.LCFI109-.LFB4795
	.byte	0xe
	.uleb128 0x8
	.byte	0x85
	.uleb128 0x2
	.byte	0x4
	.long	.LCFI110-.LCFI109
	.byte	0xd
	.uleb128 0x5
	.align 4
.LEFDE82:
.LSFDE84:
	.long	.LEFDE84-.LASFDE84
.LASFDE84:
	.long	.Lframe0
	.long	.LFB4796
	.long	.LFE4796-.LFB4796
	.byte	0x4
	.long	.LCFI111-.LFB4796
	.byte	0xe
	.uleb128 0x8
	.byte	0x85
	.uleb128 0x2
	.byte	0x4
	.long	.LCFI112-.LCFI111
	.byte	0xd
	.uleb128 0x5
	.align 4
.LEFDE84:
.LSFDE86:
	.long	.LEFDE86-.LASFDE86
.LASFDE86:
	.long	.Lframe0
	.long	.LFB4809
	.long	.LFE4809-.LFB4809
	.byte	0x4
	.long	.LCFI113-.LFB4809
	.byte	0xe
	.uleb128 0x8
	.byte	0x85
	.uleb128 0x2
	.byte	0x4
	.long	.LCFI114-.LCFI113
	.byte	0xd
	.uleb128 0x5
	.align 4
.LEFDE86:
.LSFDE88:
	.long	.LEFDE88-.LASFDE88
.LASFDE88:
	.long	.Lframe0
	.long	.LFB4821
	.long	.LFE4821-.LFB4821
	.byte	0x4
	.long	.LCFI115-.LFB4821
	.byte	0xe
	.uleb128 0x8
	.byte	0x85
	.uleb128 0x2
	.byte	0x4
	.long	.LCFI116-.LCFI115
	.byte	0xd
	.uleb128 0x5
	.align 4
.LEFDE88:
.LSFDE90:
	.long	.LEFDE90-.LASFDE90
.LASFDE90:
	.long	.Lframe0
	.long	.LFB4828
	.long	.LFE4828-.LFB4828
	.byte	0x4
	.long	.LCFI117-.LFB4828
	.byte	0xe
	.uleb128 0x8
	.byte	0x85
	.uleb128 0x2
	.byte	0x4
	.long	.LCFI118-.LCFI117
	.byte	0xd
	.uleb128 0x5
	.align 4
.LEFDE90:
.LSFDE92:
	.long	.LEFDE92-.LASFDE92
.LASFDE92:
	.long	.Lframe0
	.long	.LFB4829
	.long	.LFE4829-.LFB4829
	.byte	0x4
	.long	.LCFI120-.LFB4829
	.byte	0xe
	.uleb128 0x8
	.byte	0x85
	.uleb128 0x2
	.byte	0x4
	.long	.LCFI121-.LCFI120
	.byte	0xd
	.uleb128 0x5
	.align 4
.LEFDE92:
.LSFDE94:
	.long	.LEFDE94-.LASFDE94
.LASFDE94:
	.long	.Lframe0
	.long	.LFB4831
	.long	.LFE4831-.LFB4831
	.byte	0x4
	.long	.LCFI122-.LFB4831
	.byte	0xe
	.uleb128 0x8
	.byte	0x85
	.uleb128 0x2
	.byte	0x4
	.long	.LCFI123-.LCFI122
	.byte	0xd
	.uleb128 0x5
	.align 4
.LEFDE94:
.LSFDE96:
	.long	.LEFDE96-.LASFDE96
.LASFDE96:
	.long	.Lframe0
	.long	.LFB4832
	.long	.LFE4832-.LFB4832
	.byte	0x4
	.long	.LCFI124-.LFB4832
	.byte	0xe
	.uleb128 0x8
	.byte	0x85
	.uleb128 0x2
	.byte	0x4
	.long	.LCFI125-.LCFI124
	.byte	0xd
	.uleb128 0x5
	.align 4
.LEFDE96:
.LSFDE98:
	.long	.LEFDE98-.LASFDE98
.LASFDE98:
	.long	.Lframe0
	.long	.LFB4841
	.long	.LFE4841-.LFB4841
	.byte	0x4
	.long	.LCFI126-.LFB4841
	.byte	0xe
	.uleb128 0x8
	.byte	0x85
	.uleb128 0x2
	.byte	0x4
	.long	.LCFI127-.LCFI126
	.byte	0xd
	.uleb128 0x5
	.align 4
.LEFDE98:
.LSFDE100:
	.long	.LEFDE100-.LASFDE100
.LASFDE100:
	.long	.Lframe0
	.long	.LFB4842
	.long	.LFE4842-.LFB4842
	.byte	0x4
	.long	.LCFI128-.LFB4842
	.byte	0xe
	.uleb128 0x8
	.byte	0x85
	.uleb128 0x2
	.byte	0x4
	.long	.LCFI129-.LCFI128
	.byte	0xd
	.uleb128 0x5
	.align 4
.LEFDE100:
.LSFDE102:
	.long	.LEFDE102-.LASFDE102
.LASFDE102:
	.long	.Lframe0
	.long	.LFB4845
	.long	.LFE4845-.LFB4845
	.byte	0x4
	.long	.LCFI130-.LFB4845
	.byte	0xe
	.uleb128 0x8
	.byte	0x85
	.uleb128 0x2
	.byte	0x4
	.long	.LCFI131-.LCFI130
	.byte	0xd
	.uleb128 0x5
	.align 4
.LEFDE102:
.LSFDE104:
	.long	.LEFDE104-.LASFDE104
.LASFDE104:
	.long	.Lframe0
	.long	.LFB4937
	.long	.LFE4937-.LFB4937
	.byte	0x4
	.long	.LCFI132-.LFB4937
	.byte	0xe
	.uleb128 0x8
	.byte	0x85
	.uleb128 0x2
	.byte	0x4
	.long	.LCFI133-.LCFI132
	.byte	0xd
	.uleb128 0x5
	.align 4
.LEFDE104:
.LSFDE106:
	.long	.LEFDE106-.LASFDE106
.LASFDE106:
	.long	.Lframe0
	.long	.LFB4939
	.long	.LFE4939-.LFB4939
	.byte	0x4
	.long	.LCFI134-.LFB4939
	.byte	0xe
	.uleb128 0x8
	.byte	0x85
	.uleb128 0x2
	.byte	0x4
	.long	.LCFI135-.LCFI134
	.byte	0xd
	.uleb128 0x5
	.align 4
.LEFDE106:
.LSFDE108:
	.long	.LEFDE108-.LASFDE108
.LASFDE108:
	.long	.Lframe0
	.long	.LFB4941
	.long	.LFE4941-.LFB4941
	.byte	0x4
	.long	.LCFI136-.LFB4941
	.byte	0xe
	.uleb128 0x8
	.byte	0x85
	.uleb128 0x2
	.byte	0x4
	.long	.LCFI137-.LCFI136
	.byte	0xd
	.uleb128 0x5
	.align 4
.LEFDE108:
.LSFDE110:
	.long	.LEFDE110-.LASFDE110
.LASFDE110:
	.long	.Lframe0
	.long	.LFB4944
	.long	.LFE4944-.LFB4944
	.byte	0x4
	.long	.LCFI139-.LFB4944
	.byte	0xe
	.uleb128 0x8
	.byte	0x85
	.uleb128 0x2
	.byte	0x4
	.long	.LCFI140-.LCFI139
	.byte	0xd
	.uleb128 0x5
	.align 4
.LEFDE110:
.LSFDE112:
	.long	.LEFDE112-.LASFDE112
.LASFDE112:
	.long	.Lframe0
	.long	.LFB4945
	.long	.LFE4945-.LFB4945
	.byte	0x4
	.long	.LCFI141-.LFB4945
	.byte	0xe
	.uleb128 0x8
	.byte	0x85
	.uleb128 0x2
	.byte	0x4
	.long	.LCFI142-.LCFI141
	.byte	0xd
	.uleb128 0x5
	.align 4
.LEFDE112:
.LSFDE114:
	.long	.LEFDE114-.LASFDE114
.LASFDE114:
	.long	.Lframe0
	.long	.LFB4946
	.long	.LFE4946-.LFB4946
	.byte	0x4
	.long	.LCFI143-.LFB4946
	.byte	0xe
	.uleb128 0x8
	.byte	0x85
	.uleb128 0x2
	.byte	0x4
	.long	.LCFI144-.LCFI143
	.byte	0xd
	.uleb128 0x5
	.align 4
.LEFDE114:
.LSFDE116:
	.long	.LEFDE116-.LASFDE116
.LASFDE116:
	.long	.Lframe0
	.long	.LFB4960
	.long	.LFE4960-.LFB4960
	.byte	0x4
	.long	.LCFI145-.LFB4960
	.byte	0xe
	.uleb128 0x8
	.byte	0x85
	.uleb128 0x2
	.byte	0x4
	.long	.LCFI146-.LCFI145
	.byte	0xd
	.uleb128 0x5
	.align 4
.LEFDE116:
.LSFDE118:
	.long	.LEFDE118-.LASFDE118
.LASFDE118:
	.long	.Lframe0
	.long	.LFB4968
	.long	.LFE4968-.LFB4968
	.byte	0x4
	.long	.LCFI147-.LFB4968
	.byte	0xe
	.uleb128 0x8
	.byte	0x85
	.uleb128 0x2
	.byte	0x4
	.long	.LCFI148-.LCFI147
	.byte	0xd
	.uleb128 0x5
	.align 4
.LEFDE118:
.LSFDE120:
	.long	.LEFDE120-.LASFDE120
.LASFDE120:
	.long	.Lframe0
	.long	.LFB4969
	.long	.LFE4969-.LFB4969
	.byte	0x4
	.long	.LCFI149-.LFB4969
	.byte	0xe
	.uleb128 0x8
	.byte	0x85
	.uleb128 0x2
	.byte	0x4
	.long	.LCFI150-.LCFI149
	.byte	0xd
	.uleb128 0x5
	.align 4
.LEFDE120:
.LSFDE122:
	.long	.LEFDE122-.LASFDE122
.LASFDE122:
	.long	.Lframe0
	.long	.LFB4970
	.long	.LFE4970-.LFB4970
	.byte	0x4
	.long	.LCFI151-.LFB4970
	.byte	0xe
	.uleb128 0x8
	.byte	0x85
	.uleb128 0x2
	.byte	0x4
	.long	.LCFI152-.LCFI151
	.byte	0xd
	.uleb128 0x5
	.align 4
.LEFDE122:
.LSFDE124:
	.long	.LEFDE124-.LASFDE124
.LASFDE124:
	.long	.Lframe0
	.long	.LFB4971
	.long	.LFE4971-.LFB4971
	.byte	0x4
	.long	.LCFI153-.LFB4971
	.byte	0xe
	.uleb128 0x8
	.byte	0x85
	.uleb128 0x2
	.byte	0x4
	.long	.LCFI154-.LCFI153
	.byte	0xd
	.uleb128 0x5
	.align 4
.LEFDE124:
.LSFDE126:
	.long	.LEFDE126-.LASFDE126
.LASFDE126:
	.long	.Lframe0
	.long	.LFB5606
	.long	.LFE5606-.LFB5606
	.byte	0x4
	.long	.LCFI155-.LFB5606
	.byte	0xe
	.uleb128 0x8
	.byte	0x85
	.uleb128 0x2
	.byte	0x4
	.long	.LCFI156-.LCFI155
	.byte	0xd
	.uleb128 0x5
	.align 4
.LEFDE126:
.LSFDE128:
	.long	.LEFDE128-.LASFDE128
.LASFDE128:
	.long	.Lframe0
	.long	.LFB5614
	.long	.LFE5614-.LFB5614
	.byte	0x4
	.long	.LCFI157-.LFB5614
	.byte	0xe
	.uleb128 0x8
	.byte	0x85
	.uleb128 0x2
	.byte	0x4
	.long	.LCFI158-.LCFI157
	.byte	0xd
	.uleb128 0x5
	.align 4
.LEFDE128:
.LSFDE130:
	.long	.LEFDE130-.LASFDE130
.LASFDE130:
	.long	.Lframe0
	.long	.LFB5635
	.long	.LFE5635-.LFB5635
	.byte	0x4
	.long	.LCFI160-.LFB5635
	.byte	0xe
	.uleb128 0x8
	.byte	0x85
	.uleb128 0x2
	.byte	0x4
	.long	.LCFI161-.LCFI160
	.byte	0xd
	.uleb128 0x5
	.byte	0x4
	.long	.LCFI163-.LCFI161
	.byte	0x83
	.uleb128 0x3
	.align 4
.LEFDE130:
.LSFDE132:
	.long	.LEFDE132-.LASFDE132
.LASFDE132:
	.long	.Lframe0
	.long	.LFB5637
	.long	.LFE5637-.LFB5637
	.byte	0x4
	.long	.LCFI164-.LFB5637
	.byte	0xe
	.uleb128 0x8
	.byte	0x85
	.uleb128 0x2
	.byte	0x4
	.long	.LCFI165-.LCFI164
	.byte	0xd
	.uleb128 0x5
	.align 4
.LEFDE132:
.LSFDE134:
	.long	.LEFDE134-.LASFDE134
.LASFDE134:
	.long	.Lframe0
	.long	.LFB5640
	.long	.LFE5640-.LFB5640
	.byte	0x4
	.long	.LCFI167-.LFB5640
	.byte	0xe
	.uleb128 0x8
	.byte	0x85
	.uleb128 0x2
	.byte	0x4
	.long	.LCFI168-.LCFI167
	.byte	0xd
	.uleb128 0x5
	.align 4
.LEFDE134:
.LSFDE136:
	.long	.LEFDE136-.LASFDE136
.LASFDE136:
	.long	.Lframe0
	.long	.LFB5917
	.long	.LFE5917-.LFB5917
	.byte	0x4
	.long	.LCFI170-.LFB5917
	.byte	0xe
	.uleb128 0x8
	.byte	0x85
	.uleb128 0x2
	.byte	0x4
	.long	.LCFI171-.LCFI170
	.byte	0xd
	.uleb128 0x5
	.byte	0x4
	.long	.LCFI173-.LCFI171
	.byte	0x83
	.uleb128 0x3
	.align 4
.LEFDE136:
.LSFDE138:
	.long	.LEFDE138-.LASFDE138
.LASFDE138:
	.long	.Lframe0
	.long	.LFB5992
	.long	.LFE5992-.LFB5992
	.byte	0x4
	.long	.LCFI174-.LFB5992
	.byte	0xe
	.uleb128 0x8
	.byte	0x85
	.uleb128 0x2
	.byte	0x4
	.long	.LCFI175-.LCFI174
	.byte	0xd
	.uleb128 0x5
	.align 4
.LEFDE138:
.LSFDE140:
	.long	.LEFDE140-.LASFDE140
.LASFDE140:
	.long	.Lframe0
	.long	.LFB5999
	.long	.LFE5999-.LFB5999
	.byte	0x4
	.long	.LCFI176-.LFB5999
	.byte	0xe
	.uleb128 0x8
	.byte	0x85
	.uleb128 0x2
	.byte	0x4
	.long	.LCFI177-.LCFI176
	.byte	0xd
	.uleb128 0x5
	.align 4
.LEFDE140:
.LSFDE142:
	.long	.LEFDE142-.LASFDE142
.LASFDE142:
	.long	.Lframe0
	.long	.LFB6000
	.long	.LFE6000-.LFB6000
	.byte	0x4
	.long	.LCFI178-.LFB6000
	.byte	0xe
	.uleb128 0x8
	.byte	0x85
	.uleb128 0x2
	.byte	0x4
	.long	.LCFI179-.LCFI178
	.byte	0xd
	.uleb128 0x5
	.align 4
.LEFDE142:
.LSFDE144:
	.long	.LEFDE144-.LASFDE144
.LASFDE144:
	.long	.Lframe0
	.long	.LFB6003
	.long	.LFE6003-.LFB6003
	.byte	0x4
	.long	.LCFI181-.LFB6003
	.byte	0xe
	.uleb128 0x8
	.byte	0x85
	.uleb128 0x2
	.byte	0x4
	.long	.LCFI182-.LCFI181
	.byte	0xd
	.uleb128 0x5
	.align 4
.LEFDE144:
.LSFDE146:
	.long	.LEFDE146-.LASFDE146
.LASFDE146:
	.long	.Lframe0
	.long	.LFB6004
	.long	.LFE6004-.LFB6004
	.byte	0x4
	.long	.LCFI184-.LFB6004
	.byte	0xe
	.uleb128 0x8
	.byte	0x85
	.uleb128 0x2
	.byte	0x4
	.long	.LCFI185-.LCFI184
	.byte	0xd
	.uleb128 0x5
	.align 4
.LEFDE146:
.LSFDE148:
	.long	.LEFDE148-.LASFDE148
.LASFDE148:
	.long	.Lframe0
	.long	.LFB6013
	.long	.LFE6013-.LFB6013
	.byte	0x4
	.long	.LCFI186-.LFB6013
	.byte	0xe
	.uleb128 0x8
	.byte	0x85
	.uleb128 0x2
	.byte	0x4
	.long	.LCFI187-.LCFI186
	.byte	0xd
	.uleb128 0x5
	.align 4
.LEFDE148:
.LSFDE150:
	.long	.LEFDE150-.LASFDE150
.LASFDE150:
	.long	.Lframe0
	.long	.LFB6014
	.long	.LFE6014-.LFB6014
	.byte	0x4
	.long	.LCFI188-.LFB6014
	.byte	0xe
	.uleb128 0x8
	.byte	0x85
	.uleb128 0x2
	.byte	0x4
	.long	.LCFI189-.LCFI188
	.byte	0xd
	.uleb128 0x5
	.byte	0x4
	.long	.LCFI191-.LCFI189
	.byte	0x83
	.uleb128 0x3
	.align 4
.LEFDE150:
.LSFDE152:
	.long	.LEFDE152-.LASFDE152
.LASFDE152:
	.long	.Lframe0
	.long	.LFB6015
	.long	.LFE6015-.LFB6015
	.byte	0x4
	.long	.LCFI192-.LFB6015
	.byte	0xe
	.uleb128 0x8
	.byte	0x85
	.uleb128 0x2
	.byte	0x4
	.long	.LCFI193-.LCFI192
	.byte	0xd
	.uleb128 0x5
	.align 4
.LEFDE152:
.LSFDE154:
	.long	.LEFDE154-.LASFDE154
.LASFDE154:
	.long	.Lframe0
	.long	.LFB6093
	.long	.LFE6093-.LFB6093
	.byte	0x4
	.long	.LCFI194-.LFB6093
	.byte	0xe
	.uleb128 0x8
	.byte	0x85
	.uleb128 0x2
	.byte	0x4
	.long	.LCFI195-.LCFI194
	.byte	0xd
	.uleb128 0x5
	.align 4
.LEFDE154:
.LSFDE156:
	.long	.LEFDE156-.LASFDE156
.LASFDE156:
	.long	.Lframe0
	.long	.LFB6094
	.long	.LFE6094-.LFB6094
	.byte	0x4
	.long	.LCFI196-.LFB6094
	.byte	0xe
	.uleb128 0x8
	.byte	0x85
	.uleb128 0x2
	.byte	0x4
	.long	.LCFI197-.LCFI196
	.byte	0xd
	.uleb128 0x5
	.align 4
.LEFDE156:
.LSFDE158:
	.long	.LEFDE158-.LASFDE158
.LASFDE158:
	.long	.Lframe0
	.long	.LFB6142
	.long	.LFE6142-.LFB6142
	.byte	0x4
	.long	.LCFI198-.LFB6142
	.byte	0xe
	.uleb128 0x8
	.byte	0x85
	.uleb128 0x2
	.byte	0x4
	.long	.LCFI199-.LCFI198
	.byte	0xd
	.uleb128 0x5
	.align 4
.LEFDE158:
.LSFDE160:
	.long	.LEFDE160-.LASFDE160
.LASFDE160:
	.long	.Lframe0
	.long	.LFB6141
	.long	.LFE6141-.LFB6141
	.byte	0x4
	.long	.LCFI201-.LFB6141
	.byte	0xe
	.uleb128 0x8
	.byte	0x85
	.uleb128 0x2
	.byte	0x4
	.long	.LCFI202-.LCFI201
	.byte	0xd
	.uleb128 0x5
	.align 4
.LEFDE160:
.LSFDE162:
	.long	.LEFDE162-.LASFDE162
.LASFDE162:
	.long	.Lframe0
	.long	.LFB4849
	.long	.LFE4849-.LFB4849
	.byte	0x4
	.long	.LCFI204-.LFB4849
	.byte	0xe
	.uleb128 0x8
	.byte	0x85
	.uleb128 0x2
	.byte	0x4
	.long	.LCFI205-.LCFI204
	.byte	0xd
	.uleb128 0x5
	.align 4
.LEFDE162:
.LSFDE164:
	.long	.LEFDE164-.LASFDE164
.LASFDE164:
	.long	.Lframe0
	.long	.LFB4771
	.long	.LFE4771-.LFB4771
	.byte	0x4
	.long	.LCFI207-.LFB4771
	.byte	0xe
	.uleb128 0x8
	.byte	0x85
	.uleb128 0x2
	.byte	0x4
	.long	.LCFI208-.LCFI207
	.byte	0xd
	.uleb128 0x5
	.byte	0x4
	.long	.LCFI211-.LCFI208
	.byte	0x83
	.uleb128 0x4
	.byte	0x86
	.uleb128 0x3
	.align 4
.LEFDE164:
.LSFDE166:
	.long	.LEFDE166-.LASFDE166
.LASFDE166:
	.long	.Lframe0
	.long	.LFB4757
	.long	.LFE4757-.LFB4757
	.byte	0x4
	.long	.LCFI212-.LFB4757
	.byte	0xe
	.uleb128 0x8
	.byte	0x85
	.uleb128 0x2
	.byte	0x4
	.long	.LCFI213-.LCFI212
	.byte	0xd
	.uleb128 0x5
	.align 4
.LEFDE166:
.LSFDE168:
	.long	.LEFDE168-.LASFDE168
.LASFDE168:
	.long	.Lframe0
	.long	.LFB1402
	.long	.LFE1402-.LFB1402
	.byte	0x4
	.long	.LCFI215-.LFB1402
	.byte	0xe
	.uleb128 0x8
	.byte	0x85
	.uleb128 0x2
	.byte	0x4
	.long	.LCFI216-.LCFI215
	.byte	0xd
	.uleb128 0x5
	.align 4
.LEFDE168:
.LSFDE170:
	.long	.LEFDE170-.LASFDE170
.LASFDE170:
	.long	.Lframe0
	.long	.LFB4753
	.long	.LFE4753-.LFB4753
	.byte	0x4
	.long	.LCFI218-.LFB4753
	.byte	0xe
	.uleb128 0x8
	.byte	0x85
	.uleb128 0x2
	.byte	0x4
	.long	.LCFI219-.LCFI218
	.byte	0xd
	.uleb128 0x5
	.align 4
.LEFDE170:
.LSFDE172:
	.long	.LEFDE172-.LASFDE172
.LASFDE172:
	.long	.Lframe0
	.long	.LFB4752
	.long	.LFE4752-.LFB4752
	.byte	0x4
	.long	.LCFI221-.LFB4752
	.byte	0xe
	.uleb128 0x8
	.byte	0x85
	.uleb128 0x2
	.byte	0x4
	.long	.LCFI222-.LCFI221
	.byte	0xd
	.uleb128 0x5
	.align 4
.LEFDE172:
.LSFDE174:
	.long	.LEFDE174-.LASFDE174
.LASFDE174:
	.long	.Lframe0
	.long	.LFB1226
	.long	.LFE1226-.LFB1226
	.byte	0x4
	.long	.LCFI224-.LFB1226
	.byte	0xe
	.uleb128 0x8
	.byte	0x85
	.uleb128 0x2
	.byte	0x4
	.long	.LCFI225-.LCFI224
	.byte	0xd
	.uleb128 0x5
	.align 4
.LEFDE174:
.LSFDE176:
	.long	.LEFDE176-.LASFDE176
.LASFDE176:
	.long	.Lframe0
	.long	.LFB4667
	.long	.LFE4667-.LFB4667
	.byte	0x4
	.long	.LCFI227-.LFB4667
	.byte	0xe
	.uleb128 0x8
	.byte	0x85
	.uleb128 0x2
	.byte	0x4
	.long	.LCFI228-.LCFI227
	.byte	0xd
	.uleb128 0x5
	.align 4
.LEFDE176:
.LSFDE178:
	.long	.LEFDE178-.LASFDE178
.LASFDE178:
	.long	.Lframe0
	.long	.LFB1079
	.long	.LFE1079-.LFB1079
	.byte	0x4
	.long	.LCFI230-.LFB1079
	.byte	0xe
	.uleb128 0x8
	.byte	0x85
	.uleb128 0x2
	.byte	0x4
	.long	.LCFI231-.LCFI230
	.byte	0xd
	.uleb128 0x5
	.align 4
.LEFDE178:
.LSFDE180:
	.long	.LEFDE180-.LASFDE180
.LASFDE180:
	.long	.Lframe0
	.long	.LFB1160
	.long	.LFE1160-.LFB1160
	.byte	0x4
	.long	.LCFI233-.LFB1160
	.byte	0xe
	.uleb128 0x8
	.byte	0x85
	.uleb128 0x2
	.byte	0x4
	.long	.LCFI234-.LCFI233
	.byte	0xd
	.uleb128 0x5
	.align 4
.LEFDE180:
.LSFDE182:
	.long	.LEFDE182-.LASFDE182
.LASFDE182:
	.long	.Lframe0
	.long	.LFB4938
	.long	.LFE4938-.LFB4938
	.byte	0x4
	.long	.LCFI236-.LFB4938
	.byte	0xe
	.uleb128 0x8
	.byte	0x85
	.uleb128 0x2
	.byte	0x4
	.long	.LCFI237-.LCFI236
	.byte	0xd
	.uleb128 0x5
	.byte	0x4
	.long	.LCFI239-.LCFI237
	.byte	0x83
	.uleb128 0x3
	.align 4
.LEFDE182:
.LSFDE184:
	.long	.LEFDE184-.LASFDE184
.LASFDE184:
	.long	.Lframe0
	.long	.LFB6121
	.long	.LFE6121-.LFB6121
	.byte	0x4
	.long	.LCFI240-.LFB6121
	.byte	0xe
	.uleb128 0x8
	.byte	0x85
	.uleb128 0x2
	.byte	0x4
	.long	.LCFI241-.LCFI240
	.byte	0xd
	.uleb128 0x5
	.byte	0x4
	.long	.LCFI243-.LCFI241
	.byte	0x83
	.uleb128 0x3
	.align 4
.LEFDE184:
.LSFDE186:
	.long	.LEFDE186-.LASFDE186
.LASFDE186:
	.long	.Lframe0
	.long	.LFB6147
	.long	.LFE6147-.LFB6147
	.byte	0x4
	.long	.LCFI244-.LFB6147
	.byte	0xe
	.uleb128 0x8
	.byte	0x85
	.uleb128 0x2
	.byte	0x4
	.long	.LCFI245-.LCFI244
	.byte	0xd
	.uleb128 0x5
	.align 4
.LEFDE186:
.LSFDE188:
	.long	.LEFDE188-.LASFDE188
.LASFDE188:
	.long	.Lframe0
	.long	.LFB6123
	.long	.LFE6123-.LFB6123
	.byte	0x4
	.long	.LCFI247-.LFB6123
	.byte	0xe
	.uleb128 0x8
	.byte	0x85
	.uleb128 0x2
	.byte	0x4
	.long	.LCFI248-.LCFI247
	.byte	0xd
	.uleb128 0x5
	.align 4
.LEFDE188:
.LSFDE190:
	.long	.LEFDE190-.LASFDE190
.LASFDE190:
	.long	.Lframe0
	.long	.LFB6122
	.long	.LFE6122-.LFB6122
	.byte	0x4
	.long	.LCFI250-.LFB6122
	.byte	0xe
	.uleb128 0x8
	.byte	0x85
	.uleb128 0x2
	.byte	0x4
	.long	.LCFI251-.LCFI250
	.byte	0xd
	.uleb128 0x5
	.align 4
.LEFDE190:
.LSFDE192:
	.long	.LEFDE192-.LASFDE192
.LASFDE192:
	.long	.Lframe0
	.long	.LFB1037
	.long	.LFE1037-.LFB1037
	.byte	0x4
	.long	.LCFI253-.LFB1037
	.byte	0xe
	.uleb128 0x8
	.byte	0x85
	.uleb128 0x2
	.byte	0x4
	.long	.LCFI254-.LCFI253
	.byte	0xd
	.uleb128 0x5
	.align 4
.LEFDE192:
.LSFDE194:
	.long	.LEFDE194-.LASFDE194
.LASFDE194:
	.long	.Lframe0
	.long	.LFB1091
	.long	.LFE1091-.LFB1091
	.byte	0x4
	.long	.LCFI256-.LFB1091
	.byte	0xe
	.uleb128 0x8
	.byte	0x85
	.uleb128 0x2
	.byte	0x4
	.long	.LCFI257-.LCFI256
	.byte	0xd
	.uleb128 0x5
	.align 4
.LEFDE194:
.LSFDE196:
	.long	.LEFDE196-.LASFDE196
.LASFDE196:
	.long	.Lframe0
	.long	.LFB1180
	.long	.LFE1180-.LFB1180
	.byte	0x4
	.long	.LCFI259-.LFB1180
	.byte	0xe
	.uleb128 0x8
	.byte	0x85
	.uleb128 0x2
	.byte	0x4
	.long	.LCFI260-.LCFI259
	.byte	0xd
	.uleb128 0x5
	.align 4
.LEFDE196:
.LSFDE198:
	.long	.LEFDE198-.LASFDE198
.LASFDE198:
	.long	.Lframe0
	.long	.LFB6104
	.long	.LFE6104-.LFB6104
	.byte	0x4
	.long	.LCFI262-.LFB6104
	.byte	0xe
	.uleb128 0x8
	.byte	0x85
	.uleb128 0x2
	.byte	0x4
	.long	.LCFI263-.LCFI262
	.byte	0xd
	.uleb128 0x5
	.byte	0x4
	.long	.LCFI265-.LCFI263
	.byte	0x83
	.uleb128 0x3
	.align 4
.LEFDE198:
.LSFDE200:
	.long	.LEFDE200-.LASFDE200
.LASFDE200:
	.long	.Lframe0
	.long	.LFB5636
	.long	.LFE5636-.LFB5636
	.byte	0x4
	.long	.LCFI266-.LFB5636
	.byte	0xe
	.uleb128 0x8
	.byte	0x85
	.uleb128 0x2
	.byte	0x4
	.long	.LCFI267-.LCFI266
	.byte	0xd
	.uleb128 0x5
	.byte	0x4
	.long	.LCFI269-.LCFI267
	.byte	0x83
	.uleb128 0x3
	.align 4
.LEFDE200:
.LSFDE202:
	.long	.LEFDE202-.LASFDE202
.LASFDE202:
	.long	.Lframe0
	.long	.LFB6103
	.long	.LFE6103-.LFB6103
	.byte	0x4
	.long	.LCFI270-.LFB6103
	.byte	0xe
	.uleb128 0x8
	.byte	0x85
	.uleb128 0x2
	.byte	0x4
	.long	.LCFI271-.LCFI270
	.byte	0xd
	.uleb128 0x5
	.align 4
.LEFDE202:
.LSFDE204:
	.long	.LEFDE204-.LASFDE204
.LASFDE204:
	.long	.Lframe0
	.long	.LFB6102
	.long	.LFE6102-.LFB6102
	.byte	0x4
	.long	.LCFI273-.LFB6102
	.byte	0xe
	.uleb128 0x8
	.byte	0x85
	.uleb128 0x2
	.byte	0x4
	.long	.LCFI274-.LCFI273
	.byte	0xd
	.uleb128 0x5
	.align 4
.LEFDE204:
.LSFDE206:
	.long	.LEFDE206-.LASFDE206
.LASFDE206:
	.long	.Lframe0
	.long	.LFB6024
	.long	.LFE6024-.LFB6024
	.byte	0x4
	.long	.LCFI276-.LFB6024
	.byte	0xe
	.uleb128 0x8
	.byte	0x85
	.uleb128 0x2
	.byte	0x4
	.long	.LCFI277-.LCFI276
	.byte	0xd
	.uleb128 0x5
	.align 4
.LEFDE206:
.LSFDE208:
	.long	.LEFDE208-.LASFDE208
.LASFDE208:
	.long	.Lframe0
	.long	.LFB6030
	.long	.LFE6030-.LFB6030
	.byte	0x4
	.long	.LCFI279-.LFB6030
	.byte	0xe
	.uleb128 0x8
	.byte	0x85
	.uleb128 0x2
	.byte	0x4
	.long	.LCFI280-.LCFI279
	.byte	0xd
	.uleb128 0x5
	.align 4
.LEFDE208:
.LSFDE210:
	.long	.LEFDE210-.LASFDE210
.LASFDE210:
	.long	.Lframe0
	.long	.LFB6041
	.long	.LFE6041-.LFB6041
	.byte	0x4
	.long	.LCFI282-.LFB6041
	.byte	0xe
	.uleb128 0x8
	.byte	0x85
	.uleb128 0x2
	.byte	0x4
	.long	.LCFI283-.LCFI282
	.byte	0xd
	.uleb128 0x5
	.align 4
.LEFDE210:
.LSFDE212:
	.long	.LEFDE212-.LASFDE212
.LASFDE212:
	.long	.Lframe0
	.long	.LFB6101
	.long	.LFE6101-.LFB6101
	.byte	0x4
	.long	.LCFI285-.LFB6101
	.byte	0xe
	.uleb128 0x8
	.byte	0x85
	.uleb128 0x2
	.byte	0x4
	.long	.LCFI286-.LCFI285
	.byte	0xd
	.uleb128 0x5
	.align 4
.LEFDE212:
.LSFDE214:
	.long	.LEFDE214-.LASFDE214
.LASFDE214:
	.long	.Lframe0
	.long	.LFB6100
	.long	.LFE6100-.LFB6100
	.byte	0x4
	.long	.LCFI288-.LFB6100
	.byte	0xe
	.uleb128 0x8
	.byte	0x85
	.uleb128 0x2
	.byte	0x4
	.long	.LCFI289-.LCFI288
	.byte	0xd
	.uleb128 0x5
	.align 4
.LEFDE214:
.LSFDE216:
	.long	.LEFDE216-.LASFDE216
.LASFDE216:
	.long	.Lframe0
	.long	.LFB6099
	.long	.LFE6099-.LFB6099
	.byte	0x4
	.long	.LCFI291-.LFB6099
	.byte	0xe
	.uleb128 0x8
	.byte	0x85
	.uleb128 0x2
	.byte	0x4
	.long	.LCFI292-.LCFI291
	.byte	0xd
	.uleb128 0x5
	.align 4
.LEFDE216:
.LSFDE218:
	.long	.LEFDE218-.LASFDE218
.LASFDE218:
	.long	.Lframe0
	.long	.LFB4966
	.long	.LFE4966-.LFB4966
	.byte	0x4
	.long	.LCFI294-.LFB4966
	.byte	0xe
	.uleb128 0x8
	.byte	0x85
	.uleb128 0x2
	.byte	0x4
	.long	.LCFI295-.LCFI294
	.byte	0xd
	.uleb128 0x5
	.align 4
.LEFDE218:
.LSFDE220:
	.long	.LEFDE220-.LASFDE220
.LASFDE220:
	.long	.Lframe0
	.long	.LFB1239
	.long	.LFE1239-.LFB1239
	.byte	0x4
	.long	.LCFI297-.LFB1239
	.byte	0xe
	.uleb128 0x8
	.byte	0x85
	.uleb128 0x2
	.byte	0x4
	.long	.LCFI298-.LCFI297
	.byte	0xd
	.uleb128 0x5
	.align 4
.LEFDE220:
.LSFDE222:
	.long	.LEFDE222-.LASFDE222
.LASFDE222:
	.long	.Lframe0
	.long	.LFB5609
	.long	.LFE5609-.LFB5609
	.byte	0x4
	.long	.LCFI300-.LFB5609
	.byte	0xe
	.uleb128 0x8
	.byte	0x85
	.uleb128 0x2
	.byte	0x4
	.long	.LCFI301-.LCFI300
	.byte	0xd
	.uleb128 0x5
	.byte	0x4
	.long	.LCFI304-.LCFI301
	.byte	0x83
	.uleb128 0x4
	.byte	0x86
	.uleb128 0x3
	.align 4
.LEFDE222:
.LSFDE224:
	.long	.LEFDE224-.LASFDE224
.LASFDE224:
	.long	.Lframe0
	.long	.LFB5645
	.long	.LFE5645-.LFB5645
	.byte	0x4
	.long	.LCFI305-.LFB5645
	.byte	0xe
	.uleb128 0x8
	.byte	0x85
	.uleb128 0x2
	.byte	0x4
	.long	.LCFI306-.LCFI305
	.byte	0xd
	.uleb128 0x5
	.align 4
.LEFDE224:
.LSFDE226:
	.long	.LEFDE226-.LASFDE226
.LASFDE226:
	.long	.Lframe0
	.long	.LFB5644
	.long	.LFE5644-.LFB5644
	.byte	0x4
	.long	.LCFI308-.LFB5644
	.byte	0xe
	.uleb128 0x8
	.byte	0x85
	.uleb128 0x2
	.byte	0x4
	.long	.LCFI309-.LCFI308
	.byte	0xd
	.uleb128 0x5
	.align 4
.LEFDE226:
.LSFDE228:
	.long	.LEFDE228-.LASFDE228
.LASFDE228:
	.long	.Lframe0
	.long	.LFB5643
	.long	.LFE5643-.LFB5643
	.byte	0x4
	.long	.LCFI311-.LFB5643
	.byte	0xe
	.uleb128 0x8
	.byte	0x85
	.uleb128 0x2
	.byte	0x4
	.long	.LCFI312-.LCFI311
	.byte	0xd
	.uleb128 0x5
	.align 4
.LEFDE228:
.LSFDE230:
	.long	.LEFDE230-.LASFDE230
.LASFDE230:
	.long	.Lframe0
	.long	.LFB2040
	.long	.LFE2040-.LFB2040
	.byte	0x4
	.long	.LCFI314-.LFB2040
	.byte	0xe
	.uleb128 0x8
	.byte	0x85
	.uleb128 0x2
	.byte	0x4
	.long	.LCFI315-.LCFI314
	.byte	0xd
	.uleb128 0x5
	.align 4
.LEFDE230:
.LSFDE232:
	.long	.LEFDE232-.LASFDE232
.LASFDE232:
	.long	.Lframe0
	.long	.LFB2044
	.long	.LFE2044-.LFB2044
	.byte	0x4
	.long	.LCFI317-.LFB2044
	.byte	0xe
	.uleb128 0x8
	.byte	0x85
	.uleb128 0x2
	.byte	0x4
	.long	.LCFI318-.LCFI317
	.byte	0xd
	.uleb128 0x5
	.align 4
.LEFDE232:
.LSFDE234:
	.long	.LEFDE234-.LASFDE234
.LASFDE234:
	.long	.Lframe0
	.long	.LFB2042
	.long	.LFE2042-.LFB2042
	.byte	0x4
	.long	.LCFI320-.LFB2042
	.byte	0xe
	.uleb128 0x8
	.byte	0x85
	.uleb128 0x2
	.byte	0x4
	.long	.LCFI321-.LCFI320
	.byte	0xd
	.uleb128 0x5
	.align 4
.LEFDE234:
.LSFDE236:
	.long	.LEFDE236-.LASFDE236
.LASFDE236:
	.long	.Lframe0
	.long	.LFB2041
	.long	.LFE2041-.LFB2041
	.byte	0x4
	.long	.LCFI323-.LFB2041
	.byte	0xe
	.uleb128 0x8
	.byte	0x85
	.uleb128 0x2
	.byte	0x4
	.long	.LCFI324-.LCFI323
	.byte	0xd
	.uleb128 0x5
	.align 4
.LEFDE236:
.LSFDE238:
	.long	.LEFDE238-.LASFDE238
.LASFDE238:
	.long	.Lframe0
	.long	.LFB1936
	.long	.LFE1936-.LFB1936
	.byte	0x4
	.long	.LCFI326-.LFB1936
	.byte	0xe
	.uleb128 0x8
	.byte	0x85
	.uleb128 0x2
	.byte	0x4
	.long	.LCFI327-.LCFI326
	.byte	0xd
	.uleb128 0x5
	.align 4
.LEFDE238:
.LSFDE240:
	.long	.LEFDE240-.LASFDE240
.LASFDE240:
	.long	.Lframe0
	.long	.LFB1901
	.long	.LFE1901-.LFB1901
	.byte	0x4
	.long	.LCFI329-.LFB1901
	.byte	0xe
	.uleb128 0x8
	.byte	0x85
	.uleb128 0x2
	.byte	0x4
	.long	.LCFI330-.LCFI329
	.byte	0xd
	.uleb128 0x5
	.byte	0x4
	.long	.LCFI332-.LCFI330
	.byte	0x83
	.uleb128 0x3
	.align 4
.LEFDE240:
.LSFDE242:
	.long	.LEFDE242-.LASFDE242
.LASFDE242:
	.long	.Lframe0
	.long	.LFB1940
	.long	.LFE1940-.LFB1940
	.byte	0x4
	.long	.LCFI333-.LFB1940
	.byte	0xe
	.uleb128 0x8
	.byte	0x85
	.uleb128 0x2
	.byte	0x4
	.long	.LCFI334-.LCFI333
	.byte	0xd
	.uleb128 0x5
	.byte	0x4
	.long	.LCFI337-.LCFI334
	.byte	0x83
	.uleb128 0x4
	.byte	0x86
	.uleb128 0x3
	.align 4
.LEFDE242:
.LSFDE244:
	.long	.LEFDE244-.LASFDE244
.LASFDE244:
	.long	.Lframe0
	.long	.LFB4963
	.long	.LFE4963-.LFB4963
	.byte	0x4
	.long	.LCFI338-.LFB4963
	.byte	0xe
	.uleb128 0x8
	.byte	0x85
	.uleb128 0x2
	.byte	0x4
	.long	.LCFI339-.LCFI338
	.byte	0xd
	.uleb128 0x5
	.align 4
.LEFDE244:
.LSFDE246:
	.long	.LEFDE246-.LASFDE246
.LASFDE246:
	.long	.Lframe0
	.long	.LFB5650
	.long	.LFE5650-.LFB5650
	.byte	0x4
	.long	.LCFI341-.LFB5650
	.byte	0xe
	.uleb128 0x8
	.byte	0x85
	.uleb128 0x2
	.byte	0x4
	.long	.LCFI342-.LCFI341
	.byte	0xd
	.uleb128 0x5
	.byte	0x4
	.long	.LCFI344-.LCFI342
	.byte	0x83
	.uleb128 0x3
	.align 4
.LEFDE246:
.LSFDE248:
	.long	.LEFDE248-.LASFDE248
.LASFDE248:
	.long	.Lframe0
	.long	.LFB4976
	.long	.LFE4976-.LFB4976
	.byte	0x4
	.long	.LCFI345-.LFB4976
	.byte	0xe
	.uleb128 0x8
	.byte	0x85
	.uleb128 0x2
	.byte	0x4
	.long	.LCFI346-.LCFI345
	.byte	0xd
	.uleb128 0x5
	.align 4
.LEFDE248:
.LSFDE250:
	.long	.LEFDE250-.LASFDE250
.LASFDE250:
	.long	.Lframe0
	.long	.LFB4975
	.long	.LFE4975-.LFB4975
	.byte	0x4
	.long	.LCFI348-.LFB4975
	.byte	0xe
	.uleb128 0x8
	.byte	0x85
	.uleb128 0x2
	.byte	0x4
	.long	.LCFI349-.LCFI348
	.byte	0xd
	.uleb128 0x5
	.align 4
.LEFDE250:
.LSFDE252:
	.long	.LEFDE252-.LASFDE252
.LASFDE252:
	.long	.Lframe0
	.long	.LFB4974
	.long	.LFE4974-.LFB4974
	.byte	0x4
	.long	.LCFI351-.LFB4974
	.byte	0xe
	.uleb128 0x8
	.byte	0x85
	.uleb128 0x2
	.byte	0x4
	.long	.LCFI352-.LCFI351
	.byte	0xd
	.uleb128 0x5
	.align 4
.LEFDE252:
.LSFDE254:
	.long	.LEFDE254-.LASFDE254
.LASFDE254:
	.long	.Lframe0
	.long	.LFB4492
	.long	.LFE4492-.LFB4492
	.byte	0x4
	.long	.LCFI354-.LFB4492
	.byte	0xe
	.uleb128 0x8
	.byte	0x85
	.uleb128 0x2
	.byte	0x4
	.long	.LCFI355-.LCFI354
	.byte	0xd
	.uleb128 0x5
	.align 4
.LEFDE254:
.LSFDE256:
	.long	.LEFDE256-.LASFDE256
.LASFDE256:
	.long	.Lframe0
	.long	.LFB4978
	.long	.LFE4978-.LFB4978
	.byte	0x4
	.long	.LCFI357-.LFB4978
	.byte	0xe
	.uleb128 0x8
	.byte	0x85
	.uleb128 0x2
	.byte	0x4
	.long	.LCFI358-.LCFI357
	.byte	0xd
	.uleb128 0x5
	.byte	0x4
	.long	.LCFI360-.LCFI358
	.byte	0x83
	.uleb128 0x3
	.align 4
.LEFDE256:
.LSFDE258:
	.long	.LEFDE258-.LASFDE258
.LASFDE258:
	.long	.Lframe0
	.long	.LFB5918
	.long	.LFE5918-.LFB5918
	.byte	0x4
	.long	.LCFI361-.LFB5918
	.byte	0xe
	.uleb128 0x8
	.byte	0x85
	.uleb128 0x2
	.byte	0x4
	.long	.LCFI362-.LCFI361
	.byte	0xd
	.uleb128 0x5
	.byte	0x4
	.long	.LCFI364-.LCFI362
	.byte	0x83
	.uleb128 0x3
	.align 4
.LEFDE258:
.LSFDE260:
	.long	.LEFDE260-.LASFDE260
.LASFDE260:
	.long	.Lframe0
	.long	.LFB5919
	.long	.LFE5919-.LFB5919
	.byte	0x4
	.long	.LCFI365-.LFB5919
	.byte	0xe
	.uleb128 0x8
	.byte	0x85
	.uleb128 0x2
	.byte	0x4
	.long	.LCFI366-.LCFI365
	.byte	0xd
	.uleb128 0x5
	.byte	0x4
	.long	.LCFI368-.LCFI366
	.byte	0x83
	.uleb128 0x3
	.align 4
.LEFDE260:
.LSFDE262:
	.long	.LEFDE262-.LASFDE262
.LASFDE262:
	.long	.Lframe0
	.long	.LFB6097
	.long	.LFE6097-.LFB6097
	.byte	0x4
	.long	.LCFI369-.LFB6097
	.byte	0xe
	.uleb128 0x8
	.byte	0x85
	.uleb128 0x2
	.byte	0x4
	.long	.LCFI370-.LCFI369
	.byte	0xd
	.uleb128 0x5
	.byte	0x4
	.long	.LCFI372-.LCFI370
	.byte	0x83
	.uleb128 0x3
	.align 4
.LEFDE262:
.LSFDE264:
	.long	.LEFDE264-.LASFDE264
.LASFDE264:
	.long	.Lframe0
	.long	.LFB6096
	.long	.LFE6096-.LFB6096
	.byte	0x4
	.long	.LCFI373-.LFB6096
	.byte	0xe
	.uleb128 0x8
	.byte	0x85
	.uleb128 0x2
	.byte	0x4
	.long	.LCFI374-.LCFI373
	.byte	0xd
	.uleb128 0x5
	.byte	0x4
	.long	.LCFI376-.LCFI374
	.byte	0x83
	.uleb128 0x3
	.align 4
.LEFDE264:
	.section	.eh_frame,"a",@progbits
.Lframe1:
	.long	.LECIE1-.LSCIE1
.LSCIE1:
	.long	0x0
	.byte	0x1
	.string	"zPL"
	.uleb128 0x1
	.sleb128 -4
	.byte	0x8
	.uleb128 0x6
	.byte	0x0
	.long	__gxx_personality_v0
	.byte	0x0
	.byte	0xc
	.uleb128 0x4
	.uleb128 0x4
	.byte	0x88
	.uleb128 0x1
	.align 4
.LECIE1:
.LSFDE29:
	.long	.LEFDE29-.LASFDE29
.LASFDE29:
	.long	.LASFDE29-.Lframe1
	.long	.LFB2837
	.long	.LFE2837-.LFB2837
	.uleb128 0x4
	.long	0x0
	.byte	0x4
	.long	.LCFI35-.LFB2837
	.byte	0xe
	.uleb128 0x8
	.byte	0x85
	.uleb128 0x2
	.byte	0x4
	.long	.LCFI36-.LCFI35
	.byte	0xd
	.uleb128 0x5
	.align 4
.LEFDE29:
.LSFDE39:
	.long	.LEFDE39-.LASFDE39
.LASFDE39:
	.long	.LASFDE39-.Lframe1
	.long	.LFB4694
	.long	.LFE4694-.LFB4694
	.uleb128 0x4
	.long	0x0
	.byte	0x4
	.long	.LCFI49-.LFB4694
	.byte	0xe
	.uleb128 0x8
	.byte	0x85
	.uleb128 0x2
	.byte	0x4
	.long	.LCFI50-.LCFI49
	.byte	0xd
	.uleb128 0x5
	.byte	0x4
	.long	.LCFI52-.LCFI50
	.byte	0x83
	.uleb128 0x3
	.align 4
.LEFDE39:
.LSFDE41:
	.long	.LEFDE41-.LASFDE41
.LASFDE41:
	.long	.LASFDE41-.Lframe1
	.long	.LFB4698
	.long	.LFE4698-.LFB4698
	.uleb128 0x4
	.long	0x0
	.byte	0x4
	.long	.LCFI53-.LFB4698
	.byte	0xe
	.uleb128 0x8
	.byte	0x85
	.uleb128 0x2
	.byte	0x4
	.long	.LCFI54-.LCFI53
	.byte	0xd
	.uleb128 0x5
	.align 4
.LEFDE41:
.LSFDE43:
	.long	.LEFDE43-.LASFDE43
.LASFDE43:
	.long	.LASFDE43-.Lframe1
	.long	.LFB4707
	.long	.LFE4707-.LFB4707
	.uleb128 0x4
	.long	0x0
	.byte	0x4
	.long	.LCFI56-.LFB4707
	.byte	0xe
	.uleb128 0x8
	.byte	0x85
	.uleb128 0x2
	.byte	0x4
	.long	.LCFI57-.LCFI56
	.byte	0xd
	.uleb128 0x5
	.align 4
.LEFDE43:
.LSFDE45:
	.long	.LEFDE45-.LASFDE45
.LASFDE45:
	.long	.LASFDE45-.Lframe1
	.long	.LFB4708
	.long	.LFE4708-.LFB4708
	.uleb128 0x4
	.long	0x0
	.byte	0x4
	.long	.LCFI59-.LFB4708
	.byte	0xe
	.uleb128 0x8
	.byte	0x85
	.uleb128 0x2
	.byte	0x4
	.long	.LCFI60-.LCFI59
	.byte	0xd
	.uleb128 0x5
	.byte	0x4
	.long	.LCFI64-.LCFI60
	.byte	0x83
	.uleb128 0x5
	.byte	0x86
	.uleb128 0x4
	.byte	0x87
	.uleb128 0x3
	.align 4
.LEFDE45:
.LSFDE55:
	.long	.LEFDE55-.LASFDE55
.LASFDE55:
	.long	.LASFDE55-.Lframe1
	.long	.LFB4722
	.long	.LFE4722-.LFB4722
	.uleb128 0x4
	.long	0x0
	.byte	0x4
	.long	.LCFI77-.LFB4722
	.byte	0xe
	.uleb128 0x8
	.byte	0x85
	.uleb128 0x2
	.byte	0x4
	.long	.LCFI78-.LCFI77
	.byte	0xd
	.uleb128 0x5
	.align 4
.LEFDE55:
.LSFDE69:
	.long	.LEFDE69-.LASFDE69
.LASFDE69:
	.long	.LASFDE69-.Lframe1
	.long	.LFB4737
	.long	.LFE4737-.LFB4737
	.uleb128 0x4
	.long	0x0
	.byte	0x4
	.long	.LCFI93-.LFB4737
	.byte	0xe
	.uleb128 0x8
	.byte	0x85
	.uleb128 0x2
	.byte	0x4
	.long	.LCFI94-.LCFI93
	.byte	0xd
	.uleb128 0x5
	.align 4
.LEFDE69:
.LSFDE71:
	.long	.LEFDE71-.LASFDE71
.LASFDE71:
	.long	.LASFDE71-.Lframe1
	.long	.LFB4739
	.long	.LFE4739-.LFB4739
	.uleb128 0x4
	.long	0x0
	.byte	0x4
	.long	.LCFI96-.LFB4739
	.byte	0xe
	.uleb128 0x8
	.byte	0x85
	.uleb128 0x2
	.byte	0x4
	.long	.LCFI97-.LCFI96
	.byte	0xd
	.uleb128 0x5
	.align 4
.LEFDE71:
.LSFDE131:
	.long	.LEFDE131-.LASFDE131
.LASFDE131:
	.long	.LASFDE131-.Lframe1
	.long	.LFB5635
	.long	.LFE5635-.LFB5635
	.uleb128 0x4
	.long	0x0
	.byte	0x4
	.long	.LCFI160-.LFB5635
	.byte	0xe
	.uleb128 0x8
	.byte	0x85
	.uleb128 0x2
	.byte	0x4
	.long	.LCFI161-.LCFI160
	.byte	0xd
	.uleb128 0x5
	.byte	0x4
	.long	.LCFI163-.LCFI161
	.byte	0x83
	.uleb128 0x3
	.align 4
.LEFDE131:
.LSFDE133:
	.long	.LEFDE133-.LASFDE133
.LASFDE133:
	.long	.LASFDE133-.Lframe1
	.long	.LFB5637
	.long	.LFE5637-.LFB5637
	.uleb128 0x4
	.long	0x0
	.byte	0x4
	.long	.LCFI164-.LFB5637
	.byte	0xe
	.uleb128 0x8
	.byte	0x85
	.uleb128 0x2
	.byte	0x4
	.long	.LCFI165-.LCFI164
	.byte	0xd
	.uleb128 0x5
	.align 4
.LEFDE133:
.LSFDE137:
	.long	.LEFDE137-.LASFDE137
.LASFDE137:
	.long	.LASFDE137-.Lframe1
	.long	.LFB5917
	.long	.LFE5917-.LFB5917
	.uleb128 0x4
	.long	0x0
	.byte	0x4
	.long	.LCFI170-.LFB5917
	.byte	0xe
	.uleb128 0x8
	.byte	0x85
	.uleb128 0x2
	.byte	0x4
	.long	.LCFI171-.LCFI170
	.byte	0xd
	.uleb128 0x5
	.byte	0x4
	.long	.LCFI173-.LCFI171
	.byte	0x83
	.uleb128 0x3
	.align 4
.LEFDE137:
.LSFDE143:
	.long	.LEFDE143-.LASFDE143
.LASFDE143:
	.long	.LASFDE143-.Lframe1
	.long	.LFB6000
	.long	.LFE6000-.LFB6000
	.uleb128 0x4
	.long	0x0
	.byte	0x4
	.long	.LCFI178-.LFB6000
	.byte	0xe
	.uleb128 0x8
	.byte	0x85
	.uleb128 0x2
	.byte	0x4
	.long	.LCFI179-.LCFI178
	.byte	0xd
	.uleb128 0x5
	.align 4
.LEFDE143:
.LSFDE145:
	.long	.LEFDE145-.LASFDE145
.LASFDE145:
	.long	.LASFDE145-.Lframe1
	.long	.LFB6003
	.long	.LFE6003-.LFB6003
	.uleb128 0x4
	.long	0x0
	.byte	0x4
	.long	.LCFI181-.LFB6003
	.byte	0xe
	.uleb128 0x8
	.byte	0x85
	.uleb128 0x2
	.byte	0x4
	.long	.LCFI182-.LCFI181
	.byte	0xd
	.uleb128 0x5
	.align 4
.LEFDE145:
.LSFDE159:
	.long	.LEFDE159-.LASFDE159
.LASFDE159:
	.long	.LASFDE159-.Lframe1
	.long	.LFB6142
	.long	.LFE6142-.LFB6142
	.uleb128 0x4
	.long	0x0
	.byte	0x4
	.long	.LCFI198-.LFB6142
	.byte	0xe
	.uleb128 0x8
	.byte	0x85
	.uleb128 0x2
	.byte	0x4
	.long	.LCFI199-.LCFI198
	.byte	0xd
	.uleb128 0x5
	.align 4
.LEFDE159:
.LSFDE161:
	.long	.LEFDE161-.LASFDE161
.LASFDE161:
	.long	.LASFDE161-.Lframe1
	.long	.LFB6141
	.long	.LFE6141-.LFB6141
	.uleb128 0x4
	.long	0x0
	.byte	0x4
	.long	.LCFI201-.LFB6141
	.byte	0xe
	.uleb128 0x8
	.byte	0x85
	.uleb128 0x2
	.byte	0x4
	.long	.LCFI202-.LCFI201
	.byte	0xd
	.uleb128 0x5
	.align 4
.LEFDE161:
.LSFDE163:
	.long	.LEFDE163-.LASFDE163
.LASFDE163:
	.long	.LASFDE163-.Lframe1
	.long	.LFB4849
	.long	.LFE4849-.LFB4849
	.uleb128 0x4
	.long	0x0
	.byte	0x4
	.long	.LCFI204-.LFB4849
	.byte	0xe
	.uleb128 0x8
	.byte	0x85
	.uleb128 0x2
	.byte	0x4
	.long	.LCFI205-.LCFI204
	.byte	0xd
	.uleb128 0x5
	.align 4
.LEFDE163:
.LSFDE165:
	.long	.LEFDE165-.LASFDE165
.LASFDE165:
	.long	.LASFDE165-.Lframe1
	.long	.LFB4771
	.long	.LFE4771-.LFB4771
	.uleb128 0x4
	.long	0x0
	.byte	0x4
	.long	.LCFI207-.LFB4771
	.byte	0xe
	.uleb128 0x8
	.byte	0x85
	.uleb128 0x2
	.byte	0x4
	.long	.LCFI208-.LCFI207
	.byte	0xd
	.uleb128 0x5
	.byte	0x4
	.long	.LCFI211-.LCFI208
	.byte	0x83
	.uleb128 0x4
	.byte	0x86
	.uleb128 0x3
	.align 4
.LEFDE165:
.LSFDE167:
	.long	.LEFDE167-.LASFDE167
.LASFDE167:
	.long	.LASFDE167-.Lframe1
	.long	.LFB4757
	.long	.LFE4757-.LFB4757
	.uleb128 0x4
	.long	0x0
	.byte	0x4
	.long	.LCFI212-.LFB4757
	.byte	0xe
	.uleb128 0x8
	.byte	0x85
	.uleb128 0x2
	.byte	0x4
	.long	.LCFI213-.LCFI212
	.byte	0xd
	.uleb128 0x5
	.align 4
.LEFDE167:
.LSFDE169:
	.long	.LEFDE169-.LASFDE169
.LASFDE169:
	.long	.LASFDE169-.Lframe1
	.long	.LFB1402
	.long	.LFE1402-.LFB1402
	.uleb128 0x4
	.long	0x0
	.byte	0x4
	.long	.LCFI215-.LFB1402
	.byte	0xe
	.uleb128 0x8
	.byte	0x85
	.uleb128 0x2
	.byte	0x4
	.long	.LCFI216-.LCFI215
	.byte	0xd
	.uleb128 0x5
	.align 4
.LEFDE169:
.LSFDE171:
	.long	.LEFDE171-.LASFDE171
.LASFDE171:
	.long	.LASFDE171-.Lframe1
	.long	.LFB4753
	.long	.LFE4753-.LFB4753
	.uleb128 0x4
	.long	0x0
	.byte	0x4
	.long	.LCFI218-.LFB4753
	.byte	0xe
	.uleb128 0x8
	.byte	0x85
	.uleb128 0x2
	.byte	0x4
	.long	.LCFI219-.LCFI218
	.byte	0xd
	.uleb128 0x5
	.align 4
.LEFDE171:
.LSFDE173:
	.long	.LEFDE173-.LASFDE173
.LASFDE173:
	.long	.LASFDE173-.Lframe1
	.long	.LFB4752
	.long	.LFE4752-.LFB4752
	.uleb128 0x4
	.long	0x0
	.byte	0x4
	.long	.LCFI221-.LFB4752
	.byte	0xe
	.uleb128 0x8
	.byte	0x85
	.uleb128 0x2
	.byte	0x4
	.long	.LCFI222-.LCFI221
	.byte	0xd
	.uleb128 0x5
	.align 4
.LEFDE173:
.LSFDE175:
	.long	.LEFDE175-.LASFDE175
.LASFDE175:
	.long	.LASFDE175-.Lframe1
	.long	.LFB1226
	.long	.LFE1226-.LFB1226
	.uleb128 0x4
	.long	0x0
	.byte	0x4
	.long	.LCFI224-.LFB1226
	.byte	0xe
	.uleb128 0x8
	.byte	0x85
	.uleb128 0x2
	.byte	0x4
	.long	.LCFI225-.LCFI224
	.byte	0xd
	.uleb128 0x5
	.align 4
.LEFDE175:
.LSFDE177:
	.long	.LEFDE177-.LASFDE177
.LASFDE177:
	.long	.LASFDE177-.Lframe1
	.long	.LFB4667
	.long	.LFE4667-.LFB4667
	.uleb128 0x4
	.long	0x0
	.byte	0x4
	.long	.LCFI227-.LFB4667
	.byte	0xe
	.uleb128 0x8
	.byte	0x85
	.uleb128 0x2
	.byte	0x4
	.long	.LCFI228-.LCFI227
	.byte	0xd
	.uleb128 0x5
	.align 4
.LEFDE177:
.LSFDE179:
	.long	.LEFDE179-.LASFDE179
.LASFDE179:
	.long	.LASFDE179-.Lframe1
	.long	.LFB1079
	.long	.LFE1079-.LFB1079
	.uleb128 0x4
	.long	0x0
	.byte	0x4
	.long	.LCFI230-.LFB1079
	.byte	0xe
	.uleb128 0x8
	.byte	0x85
	.uleb128 0x2
	.byte	0x4
	.long	.LCFI231-.LCFI230
	.byte	0xd
	.uleb128 0x5
	.align 4
.LEFDE179:
.LSFDE181:
	.long	.LEFDE181-.LASFDE181
.LASFDE181:
	.long	.LASFDE181-.Lframe1
	.long	.LFB1160
	.long	.LFE1160-.LFB1160
	.uleb128 0x4
	.long	0x0
	.byte	0x4
	.long	.LCFI233-.LFB1160
	.byte	0xe
	.uleb128 0x8
	.byte	0x85
	.uleb128 0x2
	.byte	0x4
	.long	.LCFI234-.LCFI233
	.byte	0xd
	.uleb128 0x5
	.align 4
.LEFDE181:
.LSFDE183:
	.long	.LEFDE183-.LASFDE183
.LASFDE183:
	.long	.LASFDE183-.Lframe1
	.long	.LFB4938
	.long	.LFE4938-.LFB4938
	.uleb128 0x4
	.long	0x0
	.byte	0x4
	.long	.LCFI236-.LFB4938
	.byte	0xe
	.uleb128 0x8
	.byte	0x85
	.uleb128 0x2
	.byte	0x4
	.long	.LCFI237-.LCFI236
	.byte	0xd
	.uleb128 0x5
	.byte	0x4
	.long	.LCFI239-.LCFI237
	.byte	0x83
	.uleb128 0x3
	.align 4
.LEFDE183:
.LSFDE185:
	.long	.LEFDE185-.LASFDE185
.LASFDE185:
	.long	.LASFDE185-.Lframe1
	.long	.LFB6121
	.long	.LFE6121-.LFB6121
	.uleb128 0x4
	.long	0x0
	.byte	0x4
	.long	.LCFI240-.LFB6121
	.byte	0xe
	.uleb128 0x8
	.byte	0x85
	.uleb128 0x2
	.byte	0x4
	.long	.LCFI241-.LCFI240
	.byte	0xd
	.uleb128 0x5
	.byte	0x4
	.long	.LCFI243-.LCFI241
	.byte	0x83
	.uleb128 0x3
	.align 4
.LEFDE185:
.LSFDE187:
	.long	.LEFDE187-.LASFDE187
.LASFDE187:
	.long	.LASFDE187-.Lframe1
	.long	.LFB6147
	.long	.LFE6147-.LFB6147
	.uleb128 0x4
	.long	0x0
	.byte	0x4
	.long	.LCFI244-.LFB6147
	.byte	0xe
	.uleb128 0x8
	.byte	0x85
	.uleb128 0x2
	.byte	0x4
	.long	.LCFI245-.LCFI244
	.byte	0xd
	.uleb128 0x5
	.align 4
.LEFDE187:
.LSFDE189:
	.long	.LEFDE189-.LASFDE189
.LASFDE189:
	.long	.LASFDE189-.Lframe1
	.long	.LFB6123
	.long	.LFE6123-.LFB6123
	.uleb128 0x4
	.long	0x0
	.byte	0x4
	.long	.LCFI247-.LFB6123
	.byte	0xe
	.uleb128 0x8
	.byte	0x85
	.uleb128 0x2
	.byte	0x4
	.long	.LCFI248-.LCFI247
	.byte	0xd
	.uleb128 0x5
	.align 4
.LEFDE189:
.LSFDE191:
	.long	.LEFDE191-.LASFDE191
.LASFDE191:
	.long	.LASFDE191-.Lframe1
	.long	.LFB6122
	.long	.LFE6122-.LFB6122
	.uleb128 0x4
	.long	0x0
	.byte	0x4
	.long	.LCFI250-.LFB6122
	.byte	0xe
	.uleb128 0x8
	.byte	0x85
	.uleb128 0x2
	.byte	0x4
	.long	.LCFI251-.LCFI250
	.byte	0xd
	.uleb128 0x5
	.align 4
.LEFDE191:
.LSFDE199:
	.long	.LEFDE199-.LASFDE199
.LASFDE199:
	.long	.LASFDE199-.Lframe1
	.long	.LFB6104
	.long	.LFE6104-.LFB6104
	.uleb128 0x4
	.long	.LLSDA6104
	.byte	0x4
	.long	.LCFI262-.LFB6104
	.byte	0xe
	.uleb128 0x8
	.byte	0x85
	.uleb128 0x2
	.byte	0x4
	.long	.LCFI263-.LCFI262
	.byte	0xd
	.uleb128 0x5
	.byte	0x4
	.long	.LCFI265-.LCFI263
	.byte	0x83
	.uleb128 0x3
	.align 4
.LEFDE199:
.LSFDE201:
	.long	.LEFDE201-.LASFDE201
.LASFDE201:
	.long	.LASFDE201-.Lframe1
	.long	.LFB5636
	.long	.LFE5636-.LFB5636
	.uleb128 0x4
	.long	.LLSDA5636
	.byte	0x4
	.long	.LCFI266-.LFB5636
	.byte	0xe
	.uleb128 0x8
	.byte	0x85
	.uleb128 0x2
	.byte	0x4
	.long	.LCFI267-.LCFI266
	.byte	0xd
	.uleb128 0x5
	.byte	0x4
	.long	.LCFI269-.LCFI267
	.byte	0x83
	.uleb128 0x3
	.align 4
.LEFDE201:
.LSFDE203:
	.long	.LEFDE203-.LASFDE203
.LASFDE203:
	.long	.LASFDE203-.Lframe1
	.long	.LFB6103
	.long	.LFE6103-.LFB6103
	.uleb128 0x4
	.long	0x0
	.byte	0x4
	.long	.LCFI270-.LFB6103
	.byte	0xe
	.uleb128 0x8
	.byte	0x85
	.uleb128 0x2
	.byte	0x4
	.long	.LCFI271-.LCFI270
	.byte	0xd
	.uleb128 0x5
	.align 4
.LEFDE203:
.LSFDE205:
	.long	.LEFDE205-.LASFDE205
.LASFDE205:
	.long	.LASFDE205-.Lframe1
	.long	.LFB6102
	.long	.LFE6102-.LFB6102
	.uleb128 0x4
	.long	0x0
	.byte	0x4
	.long	.LCFI273-.LFB6102
	.byte	0xe
	.uleb128 0x8
	.byte	0x85
	.uleb128 0x2
	.byte	0x4
	.long	.LCFI274-.LCFI273
	.byte	0xd
	.uleb128 0x5
	.align 4
.LEFDE205:
.LSFDE207:
	.long	.LEFDE207-.LASFDE207
.LASFDE207:
	.long	.LASFDE207-.Lframe1
	.long	.LFB6024
	.long	.LFE6024-.LFB6024
	.uleb128 0x4
	.long	0x0
	.byte	0x4
	.long	.LCFI276-.LFB6024
	.byte	0xe
	.uleb128 0x8
	.byte	0x85
	.uleb128 0x2
	.byte	0x4
	.long	.LCFI277-.LCFI276
	.byte	0xd
	.uleb128 0x5
	.align 4
.LEFDE207:
.LSFDE209:
	.long	.LEFDE209-.LASFDE209
.LASFDE209:
	.long	.LASFDE209-.Lframe1
	.long	.LFB6030
	.long	.LFE6030-.LFB6030
	.uleb128 0x4
	.long	0x0
	.byte	0x4
	.long	.LCFI279-.LFB6030
	.byte	0xe
	.uleb128 0x8
	.byte	0x85
	.uleb128 0x2
	.byte	0x4
	.long	.LCFI280-.LCFI279
	.byte	0xd
	.uleb128 0x5
	.align 4
.LEFDE209:
.LSFDE211:
	.long	.LEFDE211-.LASFDE211
.LASFDE211:
	.long	.LASFDE211-.Lframe1
	.long	.LFB6041
	.long	.LFE6041-.LFB6041
	.uleb128 0x4
	.long	0x0
	.byte	0x4
	.long	.LCFI282-.LFB6041
	.byte	0xe
	.uleb128 0x8
	.byte	0x85
	.uleb128 0x2
	.byte	0x4
	.long	.LCFI283-.LCFI282
	.byte	0xd
	.uleb128 0x5
	.align 4
.LEFDE211:
.LSFDE213:
	.long	.LEFDE213-.LASFDE213
.LASFDE213:
	.long	.LASFDE213-.Lframe1
	.long	.LFB6101
	.long	.LFE6101-.LFB6101
	.uleb128 0x4
	.long	0x0
	.byte	0x4
	.long	.LCFI285-.LFB6101
	.byte	0xe
	.uleb128 0x8
	.byte	0x85
	.uleb128 0x2
	.byte	0x4
	.long	.LCFI286-.LCFI285
	.byte	0xd
	.uleb128 0x5
	.align 4
.LEFDE213:
.LSFDE215:
	.long	.LEFDE215-.LASFDE215
.LASFDE215:
	.long	.LASFDE215-.Lframe1
	.long	.LFB6100
	.long	.LFE6100-.LFB6100
	.uleb128 0x4
	.long	0x0
	.byte	0x4
	.long	.LCFI288-.LFB6100
	.byte	0xe
	.uleb128 0x8
	.byte	0x85
	.uleb128 0x2
	.byte	0x4
	.long	.LCFI289-.LCFI288
	.byte	0xd
	.uleb128 0x5
	.align 4
.LEFDE215:
.LSFDE217:
	.long	.LEFDE217-.LASFDE217
.LASFDE217:
	.long	.LASFDE217-.Lframe1
	.long	.LFB6099
	.long	.LFE6099-.LFB6099
	.uleb128 0x4
	.long	0x0
	.byte	0x4
	.long	.LCFI291-.LFB6099
	.byte	0xe
	.uleb128 0x8
	.byte	0x85
	.uleb128 0x2
	.byte	0x4
	.long	.LCFI292-.LCFI291
	.byte	0xd
	.uleb128 0x5
	.align 4
.LEFDE217:
.LSFDE219:
	.long	.LEFDE219-.LASFDE219
.LASFDE219:
	.long	.LASFDE219-.Lframe1
	.long	.LFB4966
	.long	.LFE4966-.LFB4966
	.uleb128 0x4
	.long	0x0
	.byte	0x4
	.long	.LCFI294-.LFB4966
	.byte	0xe
	.uleb128 0x8
	.byte	0x85
	.uleb128 0x2
	.byte	0x4
	.long	.LCFI295-.LCFI294
	.byte	0xd
	.uleb128 0x5
	.align 4
.LEFDE219:
.LSFDE221:
	.long	.LEFDE221-.LASFDE221
.LASFDE221:
	.long	.LASFDE221-.Lframe1
	.long	.LFB1239
	.long	.LFE1239-.LFB1239
	.uleb128 0x4
	.long	0x0
	.byte	0x4
	.long	.LCFI297-.LFB1239
	.byte	0xe
	.uleb128 0x8
	.byte	0x85
	.uleb128 0x2
	.byte	0x4
	.long	.LCFI298-.LCFI297
	.byte	0xd
	.uleb128 0x5
	.align 4
.LEFDE221:
.LSFDE223:
	.long	.LEFDE223-.LASFDE223
.LASFDE223:
	.long	.LASFDE223-.Lframe1
	.long	.LFB5609
	.long	.LFE5609-.LFB5609
	.uleb128 0x4
	.long	.LLSDA5609
	.byte	0x4
	.long	.LCFI300-.LFB5609
	.byte	0xe
	.uleb128 0x8
	.byte	0x85
	.uleb128 0x2
	.byte	0x4
	.long	.LCFI301-.LCFI300
	.byte	0xd
	.uleb128 0x5
	.byte	0x4
	.long	.LCFI304-.LCFI301
	.byte	0x83
	.uleb128 0x4
	.byte	0x86
	.uleb128 0x3
	.align 4
.LEFDE223:
.LSFDE225:
	.long	.LEFDE225-.LASFDE225
.LASFDE225:
	.long	.LASFDE225-.Lframe1
	.long	.LFB5645
	.long	.LFE5645-.LFB5645
	.uleb128 0x4
	.long	0x0
	.byte	0x4
	.long	.LCFI305-.LFB5645
	.byte	0xe
	.uleb128 0x8
	.byte	0x85
	.uleb128 0x2
	.byte	0x4
	.long	.LCFI306-.LCFI305
	.byte	0xd
	.uleb128 0x5
	.align 4
.LEFDE225:
.LSFDE227:
	.long	.LEFDE227-.LASFDE227
.LASFDE227:
	.long	.LASFDE227-.Lframe1
	.long	.LFB5644
	.long	.LFE5644-.LFB5644
	.uleb128 0x4
	.long	0x0
	.byte	0x4
	.long	.LCFI308-.LFB5644
	.byte	0xe
	.uleb128 0x8
	.byte	0x85
	.uleb128 0x2
	.byte	0x4
	.long	.LCFI309-.LCFI308
	.byte	0xd
	.uleb128 0x5
	.align 4
.LEFDE227:
.LSFDE229:
	.long	.LEFDE229-.LASFDE229
.LASFDE229:
	.long	.LASFDE229-.Lframe1
	.long	.LFB5643
	.long	.LFE5643-.LFB5643
	.uleb128 0x4
	.long	0x0
	.byte	0x4
	.long	.LCFI311-.LFB5643
	.byte	0xe
	.uleb128 0x8
	.byte	0x85
	.uleb128 0x2
	.byte	0x4
	.long	.LCFI312-.LCFI311
	.byte	0xd
	.uleb128 0x5
	.align 4
.LEFDE229:
.LSFDE231:
	.long	.LEFDE231-.LASFDE231
.LASFDE231:
	.long	.LASFDE231-.Lframe1
	.long	.LFB2040
	.long	.LFE2040-.LFB2040
	.uleb128 0x4
	.long	0x0
	.byte	0x4
	.long	.LCFI314-.LFB2040
	.byte	0xe
	.uleb128 0x8
	.byte	0x85
	.uleb128 0x2
	.byte	0x4
	.long	.LCFI315-.LCFI314
	.byte	0xd
	.uleb128 0x5
	.align 4
.LEFDE231:
.LSFDE233:
	.long	.LEFDE233-.LASFDE233
.LASFDE233:
	.long	.LASFDE233-.Lframe1
	.long	.LFB2044
	.long	.LFE2044-.LFB2044
	.uleb128 0x4
	.long	0x0
	.byte	0x4
	.long	.LCFI317-.LFB2044
	.byte	0xe
	.uleb128 0x8
	.byte	0x85
	.uleb128 0x2
	.byte	0x4
	.long	.LCFI318-.LCFI317
	.byte	0xd
	.uleb128 0x5
	.align 4
.LEFDE233:
.LSFDE235:
	.long	.LEFDE235-.LASFDE235
.LASFDE235:
	.long	.LASFDE235-.Lframe1
	.long	.LFB2042
	.long	.LFE2042-.LFB2042
	.uleb128 0x4
	.long	0x0
	.byte	0x4
	.long	.LCFI320-.LFB2042
	.byte	0xe
	.uleb128 0x8
	.byte	0x85
	.uleb128 0x2
	.byte	0x4
	.long	.LCFI321-.LCFI320
	.byte	0xd
	.uleb128 0x5
	.align 4
.LEFDE235:
.LSFDE237:
	.long	.LEFDE237-.LASFDE237
.LASFDE237:
	.long	.LASFDE237-.Lframe1
	.long	.LFB2041
	.long	.LFE2041-.LFB2041
	.uleb128 0x4
	.long	0x0
	.byte	0x4
	.long	.LCFI323-.LFB2041
	.byte	0xe
	.uleb128 0x8
	.byte	0x85
	.uleb128 0x2
	.byte	0x4
	.long	.LCFI324-.LCFI323
	.byte	0xd
	.uleb128 0x5
	.align 4
.LEFDE237:
.LSFDE239:
	.long	.LEFDE239-.LASFDE239
.LASFDE239:
	.long	.LASFDE239-.Lframe1
	.long	.LFB1936
	.long	.LFE1936-.LFB1936
	.uleb128 0x4
	.long	0x0
	.byte	0x4
	.long	.LCFI326-.LFB1936
	.byte	0xe
	.uleb128 0x8
	.byte	0x85
	.uleb128 0x2
	.byte	0x4
	.long	.LCFI327-.LCFI326
	.byte	0xd
	.uleb128 0x5
	.align 4
.LEFDE239:
.LSFDE241:
	.long	.LEFDE241-.LASFDE241
.LASFDE241:
	.long	.LASFDE241-.Lframe1
	.long	.LFB1901
	.long	.LFE1901-.LFB1901
	.uleb128 0x4
	.long	0x0
	.byte	0x4
	.long	.LCFI329-.LFB1901
	.byte	0xe
	.uleb128 0x8
	.byte	0x85
	.uleb128 0x2
	.byte	0x4
	.long	.LCFI330-.LCFI329
	.byte	0xd
	.uleb128 0x5
	.byte	0x4
	.long	.LCFI332-.LCFI330
	.byte	0x83
	.uleb128 0x3
	.align 4
.LEFDE241:
.LSFDE243:
	.long	.LEFDE243-.LASFDE243
.LASFDE243:
	.long	.LASFDE243-.Lframe1
	.long	.LFB1940
	.long	.LFE1940-.LFB1940
	.uleb128 0x4
	.long	.LLSDA1940
	.byte	0x4
	.long	.LCFI333-.LFB1940
	.byte	0xe
	.uleb128 0x8
	.byte	0x85
	.uleb128 0x2
	.byte	0x4
	.long	.LCFI334-.LCFI333
	.byte	0xd
	.uleb128 0x5
	.byte	0x4
	.long	.LCFI337-.LCFI334
	.byte	0x83
	.uleb128 0x4
	.byte	0x86
	.uleb128 0x3
	.align 4
.LEFDE243:
.LSFDE245:
	.long	.LEFDE245-.LASFDE245
.LASFDE245:
	.long	.LASFDE245-.Lframe1
	.long	.LFB4963
	.long	.LFE4963-.LFB4963
	.uleb128 0x4
	.long	0x0
	.byte	0x4
	.long	.LCFI338-.LFB4963
	.byte	0xe
	.uleb128 0x8
	.byte	0x85
	.uleb128 0x2
	.byte	0x4
	.long	.LCFI339-.LCFI338
	.byte	0xd
	.uleb128 0x5
	.align 4
.LEFDE245:
.LSFDE247:
	.long	.LEFDE247-.LASFDE247
.LASFDE247:
	.long	.LASFDE247-.Lframe1
	.long	.LFB5650
	.long	.LFE5650-.LFB5650
	.uleb128 0x4
	.long	.LLSDA5650
	.byte	0x4
	.long	.LCFI341-.LFB5650
	.byte	0xe
	.uleb128 0x8
	.byte	0x85
	.uleb128 0x2
	.byte	0x4
	.long	.LCFI342-.LCFI341
	.byte	0xd
	.uleb128 0x5
	.byte	0x4
	.long	.LCFI344-.LCFI342
	.byte	0x83
	.uleb128 0x3
	.align 4
.LEFDE247:
.LSFDE249:
	.long	.LEFDE249-.LASFDE249
.LASFDE249:
	.long	.LASFDE249-.Lframe1
	.long	.LFB4976
	.long	.LFE4976-.LFB4976
	.uleb128 0x4
	.long	0x0
	.byte	0x4
	.long	.LCFI345-.LFB4976
	.byte	0xe
	.uleb128 0x8
	.byte	0x85
	.uleb128 0x2
	.byte	0x4
	.long	.LCFI346-.LCFI345
	.byte	0xd
	.uleb128 0x5
	.align 4
.LEFDE249:
.LSFDE251:
	.long	.LEFDE251-.LASFDE251
.LASFDE251:
	.long	.LASFDE251-.Lframe1
	.long	.LFB4975
	.long	.LFE4975-.LFB4975
	.uleb128 0x4
	.long	0x0
	.byte	0x4
	.long	.LCFI348-.LFB4975
	.byte	0xe
	.uleb128 0x8
	.byte	0x85
	.uleb128 0x2
	.byte	0x4
	.long	.LCFI349-.LCFI348
	.byte	0xd
	.uleb128 0x5
	.align 4
.LEFDE251:
.LSFDE253:
	.long	.LEFDE253-.LASFDE253
.LASFDE253:
	.long	.LASFDE253-.Lframe1
	.long	.LFB4974
	.long	.LFE4974-.LFB4974
	.uleb128 0x4
	.long	0x0
	.byte	0x4
	.long	.LCFI351-.LFB4974
	.byte	0xe
	.uleb128 0x8
	.byte	0x85
	.uleb128 0x2
	.byte	0x4
	.long	.LCFI352-.LCFI351
	.byte	0xd
	.uleb128 0x5
	.align 4
.LEFDE253:
.LSFDE255:
	.long	.LEFDE255-.LASFDE255
.LASFDE255:
	.long	.LASFDE255-.Lframe1
	.long	.LFB4492
	.long	.LFE4492-.LFB4492
	.uleb128 0x4
	.long	0x0
	.byte	0x4
	.long	.LCFI354-.LFB4492
	.byte	0xe
	.uleb128 0x8
	.byte	0x85
	.uleb128 0x2
	.byte	0x4
	.long	.LCFI355-.LCFI354
	.byte	0xd
	.uleb128 0x5
	.align 4
.LEFDE255:
.LSFDE257:
	.long	.LEFDE257-.LASFDE257
.LASFDE257:
	.long	.LASFDE257-.Lframe1
	.long	.LFB4978
	.long	.LFE4978-.LFB4978
	.uleb128 0x4
	.long	.LLSDA4978
	.byte	0x4
	.long	.LCFI357-.LFB4978
	.byte	0xe
	.uleb128 0x8
	.byte	0x85
	.uleb128 0x2
	.byte	0x4
	.long	.LCFI358-.LCFI357
	.byte	0xd
	.uleb128 0x5
	.byte	0x4
	.long	.LCFI360-.LCFI358
	.byte	0x83
	.uleb128 0x3
	.align 4
.LEFDE257:
.LSFDE259:
	.long	.LEFDE259-.LASFDE259
.LASFDE259:
	.long	.LASFDE259-.Lframe1
	.long	.LFB5918
	.long	.LFE5918-.LFB5918
	.uleb128 0x4
	.long	.LLSDA5918
	.byte	0x4
	.long	.LCFI361-.LFB5918
	.byte	0xe
	.uleb128 0x8
	.byte	0x85
	.uleb128 0x2
	.byte	0x4
	.long	.LCFI362-.LCFI361
	.byte	0xd
	.uleb128 0x5
	.byte	0x4
	.long	.LCFI364-.LCFI362
	.byte	0x83
	.uleb128 0x3
	.align 4
.LEFDE259:
.LSFDE261:
	.long	.LEFDE261-.LASFDE261
.LASFDE261:
	.long	.LASFDE261-.Lframe1
	.long	.LFB5919
	.long	.LFE5919-.LFB5919
	.uleb128 0x4
	.long	.LLSDA5919
	.byte	0x4
	.long	.LCFI365-.LFB5919
	.byte	0xe
	.uleb128 0x8
	.byte	0x85
	.uleb128 0x2
	.byte	0x4
	.long	.LCFI366-.LCFI365
	.byte	0xd
	.uleb128 0x5
	.byte	0x4
	.long	.LCFI368-.LCFI366
	.byte	0x83
	.uleb128 0x3
	.align 4
.LEFDE261:
.LSFDE263:
	.long	.LEFDE263-.LASFDE263
.LASFDE263:
	.long	.LASFDE263-.Lframe1
	.long	.LFB6097
	.long	.LFE6097-.LFB6097
	.uleb128 0x4
	.long	.LLSDA6097
	.byte	0x4
	.long	.LCFI369-.LFB6097
	.byte	0xe
	.uleb128 0x8
	.byte	0x85
	.uleb128 0x2
	.byte	0x4
	.long	.LCFI370-.LCFI369
	.byte	0xd
	.uleb128 0x5
	.byte	0x4
	.long	.LCFI372-.LCFI370
	.byte	0x83
	.uleb128 0x3
	.align 4
.LEFDE263:
.LSFDE265:
	.long	.LEFDE265-.LASFDE265
.LASFDE265:
	.long	.LASFDE265-.Lframe1
	.long	.LFB6096
	.long	.LFE6096-.LFB6096
	.uleb128 0x4
	.long	.LLSDA6096
	.byte	0x4
	.long	.LCFI373-.LFB6096
	.byte	0xe
	.uleb128 0x8
	.byte	0x85
	.uleb128 0x2
	.byte	0x4
	.long	.LCFI374-.LCFI373
	.byte	0xd
	.uleb128 0x5
	.byte	0x4
	.long	.LCFI376-.LCFI374
	.byte	0x83
	.uleb128 0x3
	.align 4
.LEFDE265:
	.file 24 "/usr/lib/gcc/i386-redhat-linux/4.1.2/../../../../include/c++/4.1.2/i386-redhat-linux/bits/c++config.h"
	.file 25 "<built-in>"
	.file 26 "/usr/lib/gcc/i386-redhat-linux/4.1.2/../../../../include/c++/4.1.2/cstddef"
	.file 27 "/usr/lib/gcc/i386-redhat-linux/4.1.2/../../../../include/c++/4.1.2/cstring"
	.file 28 "/usr/include/string.h"
	.file 29 "/usr/lib/gcc/i386-redhat-linux/4.1.2/include/stddef.h"
	.file 30 "/usr/lib/gcc/i386-redhat-linux/4.1.2/../../../../include/c++/4.1.2/cstdlib"
	.file 31 "/usr/include/stdlib.h"
	.file 32 "/usr/lib/gcc/i386-redhat-linux/4.1.2/../../../../include/c++/4.1.2/cstdio"
	.file 33 "/usr/include/stdio.h"
	.file 34 "/usr/include/libio.h"
	.file 35 "/usr/include/bits/types.h"
	.file 36 "/usr/include/_G_config.h"
	.file 37 "/usr/include/wchar.h"
	.file 38 "/usr/lib/gcc/i386-redhat-linux/4.1.2/include/stdarg.h"
	.file 39 "/usr/lib/gcc/i386-redhat-linux/4.1.2/../../../../include/c++/4.1.2/clocale"
	.file 40 "/usr/include/locale.h"
	.file 41 "/usr/lib/gcc/i386-redhat-linux/4.1.2/../../../../include/c++/4.1.2/ctime"
	.file 42 "/usr/include/time.h"
	.file 43 "/usr/lib/gcc/i386-redhat-linux/4.1.2/../../../../include/c++/4.1.2/cwchar"
	.file 44 "/usr/lib/gcc/i386-redhat-linux/4.1.2/../../../../include/c++/4.1.2/cwctype"
	.file 45 "/usr/include/wctype.h"
	.file 46 "/usr/lib/gcc/i386-redhat-linux/4.1.2/../../../../include/c++/4.1.2/new"
	.file 47 "/usr/local/include/wx-2.8/wx/textctrl.h"
	.file 48 "/usr/lib/gcc/i386-redhat-linux/4.1.2/../../../../include/c++/4.1.2/iosfwd"
	.file 49 "/usr/lib/gcc/i386-redhat-linux/4.1.2/../../../../include/c++/4.1.2/bits/ios_base.h"
	.file 50 "/usr/lib/gcc/i386-redhat-linux/4.1.2/../../../../include/c++/4.1.2/i386-redhat-linux/bits/atomic_word.h"
	.file 51 "/usr/local/include/wx-2.8/wx/wxchar.h"
	.file 52 "/usr/lib/gcc/i386-redhat-linux/4.1.2/../../../../include/c++/4.1.2/bits/stringfwd.h"
	.file 53 "/usr/lib/gcc/i386-redhat-linux/4.1.2/../../../../include/c++/4.1.2/bits/basic_string.h"
	.file 54 "/usr/lib/gcc/i386-redhat-linux/4.1.2/../../../../include/c++/4.1.2/ext/new_allocator.h"
	.file 55 "/usr/lib/gcc/i386-redhat-linux/4.1.2/../../../../include/c++/4.1.2/bits/allocator.h"
	.file 56 "/usr/lib/gcc/i386-redhat-linux/4.1.2/../../../../include/c++/4.1.2/bits/basic_string.tcc"
	.file 57 "/usr/local/include/wx-2.8/wx/buffer.h"
	.file 58 "/usr/local/include/wx-2.8/wx/validate.h"
	.file 59 "/usr/local/include/wx-2.8/wx/defs.h"
	.file 60 "TestDialog.h"
	.file 61 "/usr/local/include/wx-2.8/wx/dynarray.h"
	.file 62 "/usr/local/include/wx-2.8/wx/generic/panelg.h"
	.file 63 "/usr/local/include/wx-2.8/wx/strconv.h"
	.file 64 "/usr/local/include/wx-2.8/wx/filefn.h"
	.file 65 "/usr/local/include/wx-2.8/wx/colour.h"
	.file 66 "/usr/local/include/wx-2.8/wx/datetime.h"
	.file 67 "/usr/local/include/wx-2.8/wx/longlong.h"
	.file 68 "/usr/local/include/wx-2.8/wx/control.h"
	.file 69 "/usr/local/include/wx-2.8/wx/statbox.h"
	.file 70 "/usr/local/include/wx-2.8/wx/stattext.h"
	.file 71 "/usr/local/include/wx-2.8/wx/generic/dirdlgg.h"
	.file 72 "/usr/local/include/wx-2.8/wx/gtk/msgdlg.h"
	.file 73 "/usr/lib/gcc/i386-redhat-linux/4.1.2/../../../../include/c++/4.1.2/limits"
	.file 74 "/usr/local/include/wx-2.8/wx/hashmap.h"
	.file 75 "/usr/local/include/wx-2.8/wx/font.h"
	.file 76 "/usr/local/include/wx-2.8/wx/fontenc.h"
	.file 77 "/usr/lib/gcc/i386-redhat-linux/4.1.2/../../../../include/c++/4.1.2/bits/locale_classes.h"
	.file 78 "/usr/lib/gcc/i386-redhat-linux/4.1.2/../../../../include/c++/4.1.2/i386-redhat-linux/bits/gthr-default.h"
	.file 79 "/usr/include/bits/pthreadtypes.h"
	.file 80 "/usr/lib/gcc/i386-redhat-linux/4.1.2/../../../../include/c++/4.1.2/bits/stl_iterator.h"
	.file 81 "/usr/lib/gcc/i386-redhat-linux/4.1.2/../../../../include/c++/4.1.2/i386-redhat-linux/bits/ctype_base.h"
	.file 82 "/usr/lib/gcc/i386-redhat-linux/4.1.2/../../../../include/c++/4.1.2/bits/locale_facets.h"
	.file 83 "/usr/local/include/wx-2.8/wx/gtk/textctrl.h"
	.file 84 "/usr/local/include/wx-2.8/wx/gtk/dirdlg.h"
	.text
.Letext0:
	.section	.debug_loc,"",@progbits
.Ldebug_loc0:
.LLST0:
	.long	.LFB1034
	.long	.LCFI0
	.value	0x2
	.byte	0x74
	.sleb128 4
	.long	.LCFI0
	.long	.LCFI1
	.value	0x2
	.byte	0x74
	.sleb128 8
	.long	.LCFI1
	.long	.LFE1034
	.value	0x2
	.byte	0x75
	.sleb128 8
	.long	0x0
	.long	0x0
.LLST1:
	.long	.LFB1036
	.long	.LCFI2
	.value	0x2
	.byte	0x74
	.sleb128 4
	.long	.LCFI2
	.long	.LCFI3
	.value	0x2
	.byte	0x74
	.sleb128 8
	.long	.LCFI3
	.long	.LFE1036
	.value	0x2
	.byte	0x75
	.sleb128 8
	.long	0x0
	.long	0x0
.LLST2:
	.long	.LFB1040
	.long	.LCFI5
	.value	0x2
	.byte	0x74
	.sleb128 4
	.long	.LCFI5
	.long	.LCFI6
	.value	0x2
	.byte	0x74
	.sleb128 8
	.long	.LCFI6
	.long	.LFE1040
	.value	0x2
	.byte	0x75
	.sleb128 8
	.long	0x0
	.long	0x0
.LLST3:
	.long	.LFB1041
	.long	.LCFI7
	.value	0x2
	.byte	0x74
	.sleb128 4
	.long	.LCFI7
	.long	.LCFI8
	.value	0x2
	.byte	0x74
	.sleb128 8
	.long	.LCFI8
	.long	.LFE1041
	.value	0x2
	.byte	0x75
	.sleb128 8
	.long	0x0
	.long	0x0
.LLST4:
	.long	.LFB1093
	.long	.LCFI9
	.value	0x2
	.byte	0x74
	.sleb128 4
	.long	.LCFI9
	.long	.LCFI10
	.value	0x2
	.byte	0x74
	.sleb128 8
	.long	.LCFI10
	.long	.LFE1093
	.value	0x2
	.byte	0x75
	.sleb128 8
	.long	0x0
	.long	0x0
.LLST5:
	.long	.LFB1097
	.long	.LCFI12
	.value	0x2
	.byte	0x74
	.sleb128 4
	.long	.LCFI12
	.long	.LCFI13
	.value	0x2
	.byte	0x74
	.sleb128 8
	.long	.LCFI13
	.long	.LFE1097
	.value	0x2
	.byte	0x75
	.sleb128 8
	.long	0x0
	.long	0x0
.LLST6:
	.long	.LFB1076
	.long	.LCFI15
	.value	0x2
	.byte	0x74
	.sleb128 4
	.long	.LCFI15
	.long	.LCFI16
	.value	0x2
	.byte	0x74
	.sleb128 8
	.long	.LCFI16
	.long	.LFE1076
	.value	0x2
	.byte	0x75
	.sleb128 8
	.long	0x0
	.long	0x0
.LLST7:
	.long	.LFB1126
	.long	.LCFI18
	.value	0x2
	.byte	0x74
	.sleb128 4
	.long	.LCFI18
	.long	.LCFI19
	.value	0x2
	.byte	0x74
	.sleb128 8
	.long	.LCFI19
	.long	.LFE1126
	.value	0x2
	.byte	0x75
	.sleb128 8
	.long	0x0
	.long	0x0
.LLST8:
	.long	.LFB1151
	.long	.LCFI20
	.value	0x2
	.byte	0x74
	.sleb128 4
	.long	.LCFI20
	.long	.LCFI21
	.value	0x2
	.byte	0x74
	.sleb128 8
	.long	.LCFI21
	.long	.LFE1151
	.value	0x2
	.byte	0x75
	.sleb128 8
	.long	0x0
	.long	0x0
.LLST9:
	.long	.LFB1188
	.long	.LCFI23
	.value	0x2
	.byte	0x74
	.sleb128 4
	.long	.LCFI23
	.long	.LCFI24
	.value	0x2
	.byte	0x74
	.sleb128 8
	.long	.LCFI24
	.long	.LFE1188
	.value	0x2
	.byte	0x75
	.sleb128 8
	.long	0x0
	.long	0x0
.LLST10:
	.long	.LFB1878
	.long	.LCFI26
	.value	0x2
	.byte	0x74
	.sleb128 4
	.long	.LCFI26
	.long	.LCFI27
	.value	0x2
	.byte	0x74
	.sleb128 8
	.long	.LCFI27
	.long	.LFE1878
	.value	0x2
	.byte	0x75
	.sleb128 8
	.long	0x0
	.long	0x0
.LLST11:
	.long	.LFB2205
	.long	.LCFI28
	.value	0x2
	.byte	0x74
	.sleb128 4
	.long	.LCFI28
	.long	.LCFI29
	.value	0x2
	.byte	0x74
	.sleb128 8
	.long	.LCFI29
	.long	.LFE2205
	.value	0x2
	.byte	0x75
	.sleb128 8
	.long	0x0
	.long	0x0
.LLST12:
	.long	.LFB2230
	.long	.LCFI30
	.value	0x2
	.byte	0x74
	.sleb128 4
	.long	.LCFI30
	.long	.LCFI31
	.value	0x2
	.byte	0x74
	.sleb128 8
	.long	.LCFI31
	.long	.LFE2230
	.value	0x2
	.byte	0x75
	.sleb128 8
	.long	0x0
	.long	0x0
.LLST13:
	.long	.LFB2823
	.long	.LCFI33
	.value	0x2
	.byte	0x74
	.sleb128 4
	.long	.LCFI33
	.long	.LCFI34
	.value	0x2
	.byte	0x74
	.sleb128 8
	.long	.LCFI34
	.long	.LFE2823
	.value	0x2
	.byte	0x75
	.sleb128 8
	.long	0x0
	.long	0x0
.LLST14:
	.long	.LFB2837
	.long	.LCFI35
	.value	0x2
	.byte	0x74
	.sleb128 4
	.long	.LCFI35
	.long	.LCFI36
	.value	0x2
	.byte	0x74
	.sleb128 8
	.long	.LCFI36
	.long	.LFE2837
	.value	0x2
	.byte	0x75
	.sleb128 8
	.long	0x0
	.long	0x0
.LLST15:
	.long	.LFB3900
	.long	.LCFI38
	.value	0x2
	.byte	0x74
	.sleb128 4
	.long	.LCFI38
	.long	.LCFI39
	.value	0x2
	.byte	0x74
	.sleb128 8
	.long	.LCFI39
	.long	.LFE3900
	.value	0x2
	.byte	0x75
	.sleb128 8
	.long	0x0
	.long	0x0
.LLST16:
	.long	.LFB3907
	.long	.LCFI40
	.value	0x2
	.byte	0x74
	.sleb128 4
	.long	.LCFI40
	.long	.LCFI41
	.value	0x2
	.byte	0x74
	.sleb128 8
	.long	.LCFI41
	.long	.LFE3907
	.value	0x2
	.byte	0x75
	.sleb128 8
	.long	0x0
	.long	0x0
.LLST17:
	.long	.LFB4668
	.long	.LCFI43
	.value	0x2
	.byte	0x74
	.sleb128 4
	.long	.LCFI43
	.long	.LCFI44
	.value	0x2
	.byte	0x74
	.sleb128 8
	.long	.LCFI44
	.long	.LFE4668
	.value	0x2
	.byte	0x75
	.sleb128 8
	.long	0x0
	.long	0x0
.LLST18:
	.long	.LFB4669
	.long	.LCFI47
	.value	0x2
	.byte	0x74
	.sleb128 4
	.long	.LCFI47
	.long	.LCFI48
	.value	0x2
	.byte	0x74
	.sleb128 8
	.long	.LCFI48
	.long	.LFE4669
	.value	0x2
	.byte	0x75
	.sleb128 8
	.long	0x0
	.long	0x0
.LLST19:
	.long	.LFB4694
	.long	.LCFI49
	.value	0x2
	.byte	0x74
	.sleb128 4
	.long	.LCFI49
	.long	.LCFI50
	.value	0x2
	.byte	0x74
	.sleb128 8
	.long	.LCFI50
	.long	.LFE4694
	.value	0x2
	.byte	0x75
	.sleb128 8
	.long	0x0
	.long	0x0
.LLST20:
	.long	.LFB4698
	.long	.LCFI53
	.value	0x2
	.byte	0x74
	.sleb128 4
	.long	.LCFI53
	.long	.LCFI54
	.value	0x2
	.byte	0x74
	.sleb128 8
	.long	.LCFI54
	.long	.LFE4698
	.value	0x2
	.byte	0x75
	.sleb128 8
	.long	0x0
	.long	0x0
.LLST21:
	.long	.LFB4707
	.long	.LCFI56
	.value	0x2
	.byte	0x74
	.sleb128 4
	.long	.LCFI56
	.long	.LCFI57
	.value	0x2
	.byte	0x74
	.sleb128 8
	.long	.LCFI57
	.long	.LFE4707
	.value	0x2
	.byte	0x75
	.sleb128 8
	.long	0x0
	.long	0x0
.LLST22:
	.long	.LFB4708
	.long	.LCFI59
	.value	0x2
	.byte	0x74
	.sleb128 4
	.long	.LCFI59
	.long	.LCFI60
	.value	0x2
	.byte	0x74
	.sleb128 8
	.long	.LCFI60
	.long	.LFE4708
	.value	0x2
	.byte	0x75
	.sleb128 8
	.long	0x0
	.long	0x0
.LLST23:
	.long	.LFB4710
	.long	.LCFI65
	.value	0x2
	.byte	0x74
	.sleb128 4
	.long	.LCFI65
	.long	.LCFI66
	.value	0x2
	.byte	0x74
	.sleb128 8
	.long	.LCFI66
	.long	.LFE4710
	.value	0x2
	.byte	0x75
	.sleb128 8
	.long	0x0
	.long	0x0
.LLST24:
	.long	.LFB4711
	.long	.LCFI67
	.value	0x2
	.byte	0x74
	.sleb128 4
	.long	.LCFI67
	.long	.LCFI68
	.value	0x2
	.byte	0x74
	.sleb128 8
	.long	.LCFI68
	.long	.LFE4711
	.value	0x2
	.byte	0x75
	.sleb128 8
	.long	0x0
	.long	0x0
.LLST25:
	.long	.LFB4712
	.long	.LCFI69
	.value	0x2
	.byte	0x74
	.sleb128 4
	.long	.LCFI69
	.long	.LCFI70
	.value	0x2
	.byte	0x74
	.sleb128 8
	.long	.LCFI70
	.long	.LFE4712
	.value	0x2
	.byte	0x75
	.sleb128 8
	.long	0x0
	.long	0x0
.LLST26:
	.long	.LFB4713
	.long	.LCFI73
	.value	0x2
	.byte	0x74
	.sleb128 4
	.long	.LCFI73
	.long	.LCFI74
	.value	0x2
	.byte	0x74
	.sleb128 8
	.long	.LCFI74
	.long	.LFE4713
	.value	0x2
	.byte	0x75
	.sleb128 8
	.long	0x0
	.long	0x0
.LLST27:
	.long	.LFB4722
	.long	.LCFI77
	.value	0x2
	.byte	0x74
	.sleb128 4
	.long	.LCFI77
	.long	.LCFI78
	.value	0x2
	.byte	0x74
	.sleb128 8
	.long	.LCFI78
	.long	.LFE4722
	.value	0x2
	.byte	0x75
	.sleb128 8
	.long	0x0
	.long	0x0
.LLST28:
	.long	.LFB4725
	.long	.LCFI80
	.value	0x2
	.byte	0x74
	.sleb128 4
	.long	.LCFI80
	.long	.LCFI81
	.value	0x2
	.byte	0x74
	.sleb128 8
	.long	.LCFI81
	.long	.LFE4725
	.value	0x2
	.byte	0x75
	.sleb128 8
	.long	0x0
	.long	0x0
.LLST29:
	.long	.LFB4726
	.long	.LCFI82
	.value	0x2
	.byte	0x74
	.sleb128 4
	.long	.LCFI82
	.long	.LCFI83
	.value	0x2
	.byte	0x74
	.sleb128 8
	.long	.LCFI83
	.long	.LFE4726
	.value	0x2
	.byte	0x75
	.sleb128 8
	.long	0x0
	.long	0x0
.LLST30:
	.long	.LFB4728
	.long	.LCFI84
	.value	0x2
	.byte	0x74
	.sleb128 4
	.long	.LCFI84
	.long	.LCFI85
	.value	0x2
	.byte	0x74
	.sleb128 8
	.long	.LCFI85
	.long	.LFE4728
	.value	0x2
	.byte	0x75
	.sleb128 8
	.long	0x0
	.long	0x0
.LLST31:
	.long	.LFB4733
	.long	.LCFI86
	.value	0x2
	.byte	0x74
	.sleb128 4
	.long	.LCFI86
	.long	.LCFI87
	.value	0x2
	.byte	0x74
	.sleb128 8
	.long	.LCFI87
	.long	.LFE4733
	.value	0x2
	.byte	0x75
	.sleb128 8
	.long	0x0
	.long	0x0
.LLST32:
	.long	.LFB4735
	.long	.LCFI88
	.value	0x2
	.byte	0x74
	.sleb128 4
	.long	.LCFI88
	.long	.LCFI89
	.value	0x2
	.byte	0x74
	.sleb128 8
	.long	.LCFI89
	.long	.LFE4735
	.value	0x2
	.byte	0x75
	.sleb128 8
	.long	0x0
	.long	0x0
.LLST33:
	.long	.LFB4736
	.long	.LCFI91
	.value	0x2
	.byte	0x74
	.sleb128 4
	.long	.LCFI91
	.long	.LCFI92
	.value	0x2
	.byte	0x74
	.sleb128 8
	.long	.LCFI92
	.long	.LFE4736
	.value	0x2
	.byte	0x75
	.sleb128 8
	.long	0x0
	.long	0x0
.LLST34:
	.long	.LFB4737
	.long	.LCFI93
	.value	0x2
	.byte	0x74
	.sleb128 4
	.long	.LCFI93
	.long	.LCFI94
	.value	0x2
	.byte	0x74
	.sleb128 8
	.long	.LCFI94
	.long	.LFE4737
	.value	0x2
	.byte	0x75
	.sleb128 8
	.long	0x0
	.long	0x0
.LLST35:
	.long	.LFB4739
	.long	.LCFI96
	.value	0x2
	.byte	0x74
	.sleb128 4
	.long	.LCFI96
	.long	.LCFI97
	.value	0x2
	.byte	0x74
	.sleb128 8
	.long	.LCFI97
	.long	.LFE4739
	.value	0x2
	.byte	0x75
	.sleb128 8
	.long	0x0
	.long	0x0
.LLST36:
	.long	.LFB4751
	.long	.LCFI99
	.value	0x2
	.byte	0x74
	.sleb128 4
	.long	.LCFI99
	.long	.LCFI100
	.value	0x2
	.byte	0x74
	.sleb128 8
	.long	.LCFI100
	.long	.LFE4751
	.value	0x2
	.byte	0x75
	.sleb128 8
	.long	0x0
	.long	0x0
.LLST37:
	.long	.LFB4760
	.long	.LCFI101
	.value	0x2
	.byte	0x74
	.sleb128 4
	.long	.LCFI101
	.long	.LCFI102
	.value	0x2
	.byte	0x74
	.sleb128 8
	.long	.LCFI102
	.long	.LFE4760
	.value	0x2
	.byte	0x75
	.sleb128 8
	.long	0x0
	.long	0x0
.LLST38:
	.long	.LFB4761
	.long	.LCFI103
	.value	0x2
	.byte	0x74
	.sleb128 4
	.long	.LCFI103
	.long	.LCFI104
	.value	0x2
	.byte	0x74
	.sleb128 8
	.long	.LCFI104
	.long	.LFE4761
	.value	0x2
	.byte	0x75
	.sleb128 8
	.long	0x0
	.long	0x0
.LLST39:
	.long	.LFB4762
	.long	.LCFI105
	.value	0x2
	.byte	0x74
	.sleb128 4
	.long	.LCFI105
	.long	.LCFI106
	.value	0x2
	.byte	0x74
	.sleb128 8
	.long	.LCFI106
	.long	.LFE4762
	.value	0x2
	.byte	0x75
	.sleb128 8
	.long	0x0
	.long	0x0
.LLST40:
	.long	.LFB4763
	.long	.LCFI107
	.value	0x2
	.byte	0x74
	.sleb128 4
	.long	.LCFI107
	.long	.LCFI108
	.value	0x2
	.byte	0x74
	.sleb128 8
	.long	.LCFI108
	.long	.LFE4763
	.value	0x2
	.byte	0x75
	.sleb128 8
	.long	0x0
	.long	0x0
.LLST41:
	.long	.LFB4795
	.long	.LCFI109
	.value	0x2
	.byte	0x74
	.sleb128 4
	.long	.LCFI109
	.long	.LCFI110
	.value	0x2
	.byte	0x74
	.sleb128 8
	.long	.LCFI110
	.long	.LFE4795
	.value	0x2
	.byte	0x75
	.sleb128 8
	.long	0x0
	.long	0x0
.LLST42:
	.long	.LFB4796
	.long	.LCFI111
	.value	0x2
	.byte	0x74
	.sleb128 4
	.long	.LCFI111
	.long	.LCFI112
	.value	0x2
	.byte	0x74
	.sleb128 8
	.long	.LCFI112
	.long	.LFE4796
	.value	0x2
	.byte	0x75
	.sleb128 8
	.long	0x0
	.long	0x0
.LLST43:
	.long	.LFB4809
	.long	.LCFI113
	.value	0x2
	.byte	0x74
	.sleb128 4
	.long	.LCFI113
	.long	.LCFI114
	.value	0x2
	.byte	0x74
	.sleb128 8
	.long	.LCFI114
	.long	.LFE4809
	.value	0x2
	.byte	0x75
	.sleb128 8
	.long	0x0
	.long	0x0
.LLST44:
	.long	.LFB4821
	.long	.LCFI115
	.value	0x2
	.byte	0x74
	.sleb128 4
	.long	.LCFI115
	.long	.LCFI116
	.value	0x2
	.byte	0x74
	.sleb128 8
	.long	.LCFI116
	.long	.LFE4821
	.value	0x2
	.byte	0x75
	.sleb128 8
	.long	0x0
	.long	0x0
.LLST45:
	.long	.LFB4828
	.long	.LCFI117
	.value	0x2
	.byte	0x74
	.sleb128 4
	.long	.LCFI117
	.long	.LCFI118
	.value	0x2
	.byte	0x74
	.sleb128 8
	.long	.LCFI118
	.long	.LFE4828
	.value	0x2
	.byte	0x75
	.sleb128 8
	.long	0x0
	.long	0x0
.LLST46:
	.long	.LFB4829
	.long	.LCFI120
	.value	0x2
	.byte	0x74
	.sleb128 4
	.long	.LCFI120
	.long	.LCFI121
	.value	0x2
	.byte	0x74
	.sleb128 8
	.long	.LCFI121
	.long	.LFE4829
	.value	0x2
	.byte	0x75
	.sleb128 8
	.long	0x0
	.long	0x0
.LLST47:
	.long	.LFB4831
	.long	.LCFI122
	.value	0x2
	.byte	0x74
	.sleb128 4
	.long	.LCFI122
	.long	.LCFI123
	.value	0x2
	.byte	0x74
	.sleb128 8
	.long	.LCFI123
	.long	.LFE4831
	.value	0x2
	.byte	0x75
	.sleb128 8
	.long	0x0
	.long	0x0
.LLST48:
	.long	.LFB4832
	.long	.LCFI124
	.value	0x2
	.byte	0x74
	.sleb128 4
	.long	.LCFI124
	.long	.LCFI125
	.value	0x2
	.byte	0x74
	.sleb128 8
	.long	.LCFI125
	.long	.LFE4832
	.value	0x2
	.byte	0x75
	.sleb128 8
	.long	0x0
	.long	0x0
.LLST49:
	.long	.LFB4841
	.long	.LCFI126
	.value	0x2
	.byte	0x74
	.sleb128 4
	.long	.LCFI126
	.long	.LCFI127
	.value	0x2
	.byte	0x74
	.sleb128 8
	.long	.LCFI127
	.long	.LFE4841
	.value	0x2
	.byte	0x75
	.sleb128 8
	.long	0x0
	.long	0x0
.LLST50:
	.long	.LFB4842
	.long	.LCFI128
	.value	0x2
	.byte	0x74
	.sleb128 4
	.long	.LCFI128
	.long	.LCFI129
	.value	0x2
	.byte	0x74
	.sleb128 8
	.long	.LCFI129
	.long	.LFE4842
	.value	0x2
	.byte	0x75
	.sleb128 8
	.long	0x0
	.long	0x0
.LLST51:
	.long	.LFB4845
	.long	.LCFI130
	.value	0x2
	.byte	0x74
	.sleb128 4
	.long	.LCFI130
	.long	.LCFI131
	.value	0x2
	.byte	0x74
	.sleb128 8
	.long	.LCFI131
	.long	.LFE4845
	.value	0x2
	.byte	0x75
	.sleb128 8
	.long	0x0
	.long	0x0
.LLST52:
	.long	.LFB4937
	.long	.LCFI132
	.value	0x2
	.byte	0x74
	.sleb128 4
	.long	.LCFI132
	.long	.LCFI133
	.value	0x2
	.byte	0x74
	.sleb128 8
	.long	.LCFI133
	.long	.LFE4937
	.value	0x2
	.byte	0x75
	.sleb128 8
	.long	0x0
	.long	0x0
.LLST53:
	.long	.LFB4939
	.long	.LCFI134
	.value	0x2
	.byte	0x74
	.sleb128 4
	.long	.LCFI134
	.long	.LCFI135
	.value	0x2
	.byte	0x74
	.sleb128 8
	.long	.LCFI135
	.long	.LFE4939
	.value	0x2
	.byte	0x75
	.sleb128 8
	.long	0x0
	.long	0x0
.LLST54:
	.long	.LFB4941
	.long	.LCFI136
	.value	0x2
	.byte	0x74
	.sleb128 4
	.long	.LCFI136
	.long	.LCFI137
	.value	0x2
	.byte	0x74
	.sleb128 8
	.long	.LCFI137
	.long	.LFE4941
	.value	0x2
	.byte	0x75
	.sleb128 8
	.long	0x0
	.long	0x0
.LLST55:
	.long	.LFB4944
	.long	.LCFI139
	.value	0x2
	.byte	0x74
	.sleb128 4
	.long	.LCFI139
	.long	.LCFI140
	.value	0x2
	.byte	0x74
	.sleb128 8
	.long	.LCFI140
	.long	.LFE4944
	.value	0x2
	.byte	0x75
	.sleb128 8
	.long	0x0
	.long	0x0
.LLST56:
	.long	.LFB4945
	.long	.LCFI141
	.value	0x2
	.byte	0x74
	.sleb128 4
	.long	.LCFI141
	.long	.LCFI142
	.value	0x2
	.byte	0x74
	.sleb128 8
	.long	.LCFI142
	.long	.LFE4945
	.value	0x2
	.byte	0x75
	.sleb128 8
	.long	0x0
	.long	0x0
.LLST57:
	.long	.LFB4946
	.long	.LCFI143
	.value	0x2
	.byte	0x74
	.sleb128 4
	.long	.LCFI143
	.long	.LCFI144
	.value	0x2
	.byte	0x74
	.sleb128 8
	.long	.LCFI144
	.long	.LFE4946
	.value	0x2
	.byte	0x75
	.sleb128 8
	.long	0x0
	.long	0x0
.LLST58:
	.long	.LFB4960
	.long	.LCFI145
	.value	0x2
	.byte	0x74
	.sleb128 4
	.long	.LCFI145
	.long	.LCFI146
	.value	0x2
	.byte	0x74
	.sleb128 8
	.long	.LCFI146
	.long	.LFE4960
	.value	0x2
	.byte	0x75
	.sleb128 8
	.long	0x0
	.long	0x0
.LLST59:
	.long	.LFB4968
	.long	.LCFI147
	.value	0x2
	.byte	0x74
	.sleb128 4
	.long	.LCFI147
	.long	.LCFI148
	.value	0x2
	.byte	0x74
	.sleb128 8
	.long	.LCFI148
	.long	.LFE4968
	.value	0x2
	.byte	0x75
	.sleb128 8
	.long	0x0
	.long	0x0
.LLST60:
	.long	.LFB4969
	.long	.LCFI149
	.value	0x2
	.byte	0x74
	.sleb128 4
	.long	.LCFI149
	.long	.LCFI150
	.value	0x2
	.byte	0x74
	.sleb128 8
	.long	.LCFI150
	.long	.LFE4969
	.value	0x2
	.byte	0x75
	.sleb128 8
	.long	0x0
	.long	0x0
.LLST61:
	.long	.LFB4970
	.long	.LCFI151
	.value	0x2
	.byte	0x74
	.sleb128 4
	.long	.LCFI151
	.long	.LCFI152
	.value	0x2
	.byte	0x74
	.sleb128 8
	.long	.LCFI152
	.long	.LFE4970
	.value	0x2
	.byte	0x75
	.sleb128 8
	.long	0x0
	.long	0x0
.LLST62:
	.long	.LFB4971
	.long	.LCFI153
	.value	0x2
	.byte	0x74
	.sleb128 4
	.long	.LCFI153
	.long	.LCFI154
	.value	0x2
	.byte	0x74
	.sleb128 8
	.long	.LCFI154
	.long	.LFE4971
	.value	0x2
	.byte	0x75
	.sleb128 8
	.long	0x0
	.long	0x0
.LLST63:
	.long	.LFB5606
	.long	.LCFI155
	.value	0x2
	.byte	0x74
	.sleb128 4
	.long	.LCFI155
	.long	.LCFI156
	.value	0x2
	.byte	0x74
	.sleb128 8
	.long	.LCFI156
	.long	.LFE5606
	.value	0x2
	.byte	0x75
	.sleb128 8
	.long	0x0
	.long	0x0
.LLST64:
	.long	.LFB5614
	.long	.LCFI157
	.value	0x2
	.byte	0x74
	.sleb128 4
	.long	.LCFI157
	.long	.LCFI158
	.value	0x2
	.byte	0x74
	.sleb128 8
	.long	.LCFI158
	.long	.LFE5614
	.value	0x2
	.byte	0x75
	.sleb128 8
	.long	0x0
	.long	0x0
.LLST65:
	.long	.LFB5635
	.long	.LCFI160
	.value	0x2
	.byte	0x74
	.sleb128 4
	.long	.LCFI160
	.long	.LCFI161
	.value	0x2
	.byte	0x74
	.sleb128 8
	.long	.LCFI161
	.long	.LFE5635
	.value	0x2
	.byte	0x75
	.sleb128 8
	.long	0x0
	.long	0x0
.LLST66:
	.long	.LFB5637
	.long	.LCFI164
	.value	0x2
	.byte	0x74
	.sleb128 4
	.long	.LCFI164
	.long	.LCFI165
	.value	0x2
	.byte	0x74
	.sleb128 8
	.long	.LCFI165
	.long	.LFE5637
	.value	0x2
	.byte	0x75
	.sleb128 8
	.long	0x0
	.long	0x0
.LLST67:
	.long	.LFB5640
	.long	.LCFI167
	.value	0x2
	.byte	0x74
	.sleb128 4
	.long	.LCFI167
	.long	.LCFI168
	.value	0x2
	.byte	0x74
	.sleb128 8
	.long	.LCFI168
	.long	.LFE5640
	.value	0x2
	.byte	0x75
	.sleb128 8
	.long	0x0
	.long	0x0
.LLST68:
	.long	.LFB5917
	.long	.LCFI170
	.value	0x2
	.byte	0x74
	.sleb128 4
	.long	.LCFI170
	.long	.LCFI171
	.value	0x2
	.byte	0x74
	.sleb128 8
	.long	.LCFI171
	.long	.LFE5917
	.value	0x2
	.byte	0x75
	.sleb128 8
	.long	0x0
	.long	0x0
.LLST69:
	.long	.LFB5992
	.long	.LCFI174
	.value	0x2
	.byte	0x74
	.sleb128 4
	.long	.LCFI174
	.long	.LCFI175
	.value	0x2
	.byte	0x74
	.sleb128 8
	.long	.LCFI175
	.long	.LFE5992
	.value	0x2
	.byte	0x75
	.sleb128 8
	.long	0x0
	.long	0x0
.LLST70:
	.long	.LFB5999
	.long	.LCFI176
	.value	0x2
	.byte	0x74
	.sleb128 4
	.long	.LCFI176
	.long	.LCFI177
	.value	0x2
	.byte	0x74
	.sleb128 8
	.long	.LCFI177
	.long	.LFE5999
	.value	0x2
	.byte	0x75
	.sleb128 8
	.long	0x0
	.long	0x0
.LLST71:
	.long	.LFB6000
	.long	.LCFI178
	.value	0x2
	.byte	0x74
	.sleb128 4
	.long	.LCFI178
	.long	.LCFI179
	.value	0x2
	.byte	0x74
	.sleb128 8
	.long	.LCFI179
	.long	.LFE6000
	.value	0x2
	.byte	0x75
	.sleb128 8
	.long	0x0
	.long	0x0
.LLST72:
	.long	.LFB6003
	.long	.LCFI181
	.value	0x2
	.byte	0x74
	.sleb128 4
	.long	.LCFI181
	.long	.LCFI182
	.value	0x2
	.byte	0x74
	.sleb128 8
	.long	.LCFI182
	.long	.LFE6003
	.value	0x2
	.byte	0x75
	.sleb128 8
	.long	0x0
	.long	0x0
.LLST73:
	.long	.LFB6004
	.long	.LCFI184
	.value	0x2
	.byte	0x74
	.sleb128 4
	.long	.LCFI184
	.long	.LCFI185
	.value	0x2
	.byte	0x74
	.sleb128 8
	.long	.LCFI185
	.long	.LFE6004
	.value	0x2
	.byte	0x75
	.sleb128 8
	.long	0x0
	.long	0x0
.LLST74:
	.long	.LFB6013
	.long	.LCFI186
	.value	0x2
	.byte	0x74
	.sleb128 4
	.long	.LCFI186
	.long	.LCFI187
	.value	0x2
	.byte	0x74
	.sleb128 8
	.long	.LCFI187
	.long	.LFE6013
	.value	0x2
	.byte	0x75
	.sleb128 8
	.long	0x0
	.long	0x0
.LLST75:
	.long	.LFB6014
	.long	.LCFI188
	.value	0x2
	.byte	0x74
	.sleb128 4
	.long	.LCFI188
	.long	.LCFI189
	.value	0x2
	.byte	0x74
	.sleb128 8
	.long	.LCFI189
	.long	.LFE6014
	.value	0x2
	.byte	0x75
	.sleb128 8
	.long	0x0
	.long	0x0
.LLST76:
	.long	.LFB6015
	.long	.LCFI192
	.value	0x2
	.byte	0x74
	.sleb128 4
	.long	.LCFI192
	.long	.LCFI193
	.value	0x2
	.byte	0x74
	.sleb128 8
	.long	.LCFI193
	.long	.LFE6015
	.value	0x2
	.byte	0x75
	.sleb128 8
	.long	0x0
	.long	0x0
.LLST77:
	.long	.LFB6093
	.long	.LCFI194
	.value	0x2
	.byte	0x74
	.sleb128 4
	.long	.LCFI194
	.long	.LCFI195
	.value	0x2
	.byte	0x74
	.sleb128 8
	.long	.LCFI195
	.long	.LFE6093
	.value	0x2
	.byte	0x75
	.sleb128 8
	.long	0x0
	.long	0x0
.LLST78:
	.long	.LFB6094
	.long	.LCFI196
	.value	0x2
	.byte	0x74
	.sleb128 4
	.long	.LCFI196
	.long	.LCFI197
	.value	0x2
	.byte	0x74
	.sleb128 8
	.long	.LCFI197
	.long	.LFE6094
	.value	0x2
	.byte	0x75
	.sleb128 8
	.long	0x0
	.long	0x0
.LLST79:
	.long	.LFB6142
	.long	.LCFI198
	.value	0x2
	.byte	0x74
	.sleb128 4
	.long	.LCFI198
	.long	.LCFI199
	.value	0x2
	.byte	0x74
	.sleb128 8
	.long	.LCFI199
	.long	.LFE6142
	.value	0x2
	.byte	0x75
	.sleb128 8
	.long	0x0
	.long	0x0
.LLST80:
	.long	.LFB6141
	.long	.LCFI201
	.value	0x2
	.byte	0x74
	.sleb128 4
	.long	.LCFI201
	.long	.LCFI202
	.value	0x2
	.byte	0x74
	.sleb128 8
	.long	.LCFI202
	.long	.LFE6141
	.value	0x2
	.byte	0x75
	.sleb128 8
	.long	0x0
	.long	0x0
.LLST81:
	.long	.LFB4849
	.long	.LCFI204
	.value	0x2
	.byte	0x74
	.sleb128 4
	.long	.LCFI204
	.long	.LCFI205
	.value	0x2
	.byte	0x74
	.sleb128 8
	.long	.LCFI205
	.long	.LFE4849
	.value	0x2
	.byte	0x75
	.sleb128 8
	.long	0x0
	.long	0x0
.LLST82:
	.long	.LFB4771
	.long	.LCFI207
	.value	0x2
	.byte	0x74
	.sleb128 4
	.long	.LCFI207
	.long	.LCFI208
	.value	0x2
	.byte	0x74
	.sleb128 8
	.long	.LCFI208
	.long	.LFE4771
	.value	0x2
	.byte	0x75
	.sleb128 8
	.long	0x0
	.long	0x0
.LLST83:
	.long	.LFB4757
	.long	.LCFI212
	.value	0x2
	.byte	0x74
	.sleb128 4
	.long	.LCFI212
	.long	.LCFI213
	.value	0x2
	.byte	0x74
	.sleb128 8
	.long	.LCFI213
	.long	.LFE4757
	.value	0x2
	.byte	0x75
	.sleb128 8
	.long	0x0
	.long	0x0
.LLST84:
	.long	.LFB1402
	.long	.LCFI215
	.value	0x2
	.byte	0x74
	.sleb128 4
	.long	.LCFI215
	.long	.LCFI216
	.value	0x2
	.byte	0x74
	.sleb128 8
	.long	.LCFI216
	.long	.LFE1402
	.value	0x2
	.byte	0x75
	.sleb128 8
	.long	0x0
	.long	0x0
.LLST85:
	.long	.LFB4753
	.long	.LCFI218
	.value	0x2
	.byte	0x74
	.sleb128 4
	.long	.LCFI218
	.long	.LCFI219
	.value	0x2
	.byte	0x74
	.sleb128 8
	.long	.LCFI219
	.long	.LFE4753
	.value	0x2
	.byte	0x75
	.sleb128 8
	.long	0x0
	.long	0x0
.LLST86:
	.long	.LFB4752
	.long	.LCFI221
	.value	0x2
	.byte	0x74
	.sleb128 4
	.long	.LCFI221
	.long	.LCFI222
	.value	0x2
	.byte	0x74
	.sleb128 8
	.long	.LCFI222
	.long	.LFE4752
	.value	0x2
	.byte	0x75
	.sleb128 8
	.long	0x0
	.long	0x0
.LLST87:
	.long	.LFB1226
	.long	.LCFI224
	.value	0x2
	.byte	0x74
	.sleb128 4
	.long	.LCFI224
	.long	.LCFI225
	.value	0x2
	.byte	0x74
	.sleb128 8
	.long	.LCFI225
	.long	.LFE1226
	.value	0x2
	.byte	0x75
	.sleb128 8
	.long	0x0
	.long	0x0
.LLST88:
	.long	.LFB4667
	.long	.LCFI227
	.value	0x2
	.byte	0x74
	.sleb128 4
	.long	.LCFI227
	.long	.LCFI228
	.value	0x2
	.byte	0x74
	.sleb128 8
	.long	.LCFI228
	.long	.LFE4667
	.value	0x2
	.byte	0x75
	.sleb128 8
	.long	0x0
	.long	0x0
.LLST89:
	.long	.LFB1079
	.long	.LCFI230
	.value	0x2
	.byte	0x74
	.sleb128 4
	.long	.LCFI230
	.long	.LCFI231
	.value	0x2
	.byte	0x74
	.sleb128 8
	.long	.LCFI231
	.long	.LFE1079
	.value	0x2
	.byte	0x75
	.sleb128 8
	.long	0x0
	.long	0x0
.LLST90:
	.long	.LFB1160
	.long	.LCFI233
	.value	0x2
	.byte	0x74
	.sleb128 4
	.long	.LCFI233
	.long	.LCFI234
	.value	0x2
	.byte	0x74
	.sleb128 8
	.long	.LCFI234
	.long	.LFE1160
	.value	0x2
	.byte	0x75
	.sleb128 8
	.long	0x0
	.long	0x0
.LLST91:
	.long	.LFB4938
	.long	.LCFI236
	.value	0x2
	.byte	0x74
	.sleb128 4
	.long	.LCFI236
	.long	.LCFI237
	.value	0x2
	.byte	0x74
	.sleb128 8
	.long	.LCFI237
	.long	.LFE4938
	.value	0x2
	.byte	0x75
	.sleb128 8
	.long	0x0
	.long	0x0
.LLST92:
	.long	.LFB6121
	.long	.LCFI240
	.value	0x2
	.byte	0x74
	.sleb128 4
	.long	.LCFI240
	.long	.LCFI241
	.value	0x2
	.byte	0x74
	.sleb128 8
	.long	.LCFI241
	.long	.LFE6121
	.value	0x2
	.byte	0x75
	.sleb128 8
	.long	0x0
	.long	0x0
.LLST93:
	.long	.LFB6147
	.long	.LCFI244
	.value	0x2
	.byte	0x74
	.sleb128 4
	.long	.LCFI244
	.long	.LCFI245
	.value	0x2
	.byte	0x74
	.sleb128 8
	.long	.LCFI245
	.long	.LFE6147
	.value	0x2
	.byte	0x75
	.sleb128 8
	.long	0x0
	.long	0x0
.LLST94:
	.long	.LFB6123
	.long	.LCFI247
	.value	0x2
	.byte	0x74
	.sleb128 4
	.long	.LCFI247
	.long	.LCFI248
	.value	0x2
	.byte	0x74
	.sleb128 8
	.long	.LCFI248
	.long	.LFE6123
	.value	0x2
	.byte	0x75
	.sleb128 8
	.long	0x0
	.long	0x0
.LLST95:
	.long	.LFB6122
	.long	.LCFI250
	.value	0x2
	.byte	0x74
	.sleb128 4
	.long	.LCFI250
	.long	.LCFI251
	.value	0x2
	.byte	0x74
	.sleb128 8
	.long	.LCFI251
	.long	.LFE6122
	.value	0x2
	.byte	0x75
	.sleb128 8
	.long	0x0
	.long	0x0
.LLST96:
	.long	.LFB1037
	.long	.LCFI253
	.value	0x2
	.byte	0x74
	.sleb128 4
	.long	.LCFI253
	.long	.LCFI254
	.value	0x2
	.byte	0x74
	.sleb128 8
	.long	.LCFI254
	.long	.LFE1037
	.value	0x2
	.byte	0x75
	.sleb128 8
	.long	0x0
	.long	0x0
.LLST97:
	.long	.LFB1091
	.long	.LCFI256
	.value	0x2
	.byte	0x74
	.sleb128 4
	.long	.LCFI256
	.long	.LCFI257
	.value	0x2
	.byte	0x74
	.sleb128 8
	.long	.LCFI257
	.long	.LFE1091
	.value	0x2
	.byte	0x75
	.sleb128 8
	.long	0x0
	.long	0x0
.LLST98:
	.long	.LFB1180
	.long	.LCFI259
	.value	0x2
	.byte	0x74
	.sleb128 4
	.long	.LCFI259
	.long	.LCFI260
	.value	0x2
	.byte	0x74
	.sleb128 8
	.long	.LCFI260
	.long	.LFE1180
	.value	0x2
	.byte	0x75
	.sleb128 8
	.long	0x0
	.long	0x0
.LLST99:
	.long	.LFB6104
	.long	.LCFI262
	.value	0x2
	.byte	0x74
	.sleb128 4
	.long	.LCFI262
	.long	.LCFI263
	.value	0x2
	.byte	0x74
	.sleb128 8
	.long	.LCFI263
	.long	.LFE6104
	.value	0x2
	.byte	0x75
	.sleb128 8
	.long	0x0
	.long	0x0
.LLST100:
	.long	.LFB5636
	.long	.LCFI266
	.value	0x2
	.byte	0x74
	.sleb128 4
	.long	.LCFI266
	.long	.LCFI267
	.value	0x2
	.byte	0x74
	.sleb128 8
	.long	.LCFI267
	.long	.LFE5636
	.value	0x2
	.byte	0x75
	.sleb128 8
	.long	0x0
	.long	0x0
.LLST101:
	.long	.LFB6103
	.long	.LCFI270
	.value	0x2
	.byte	0x74
	.sleb128 4
	.long	.LCFI270
	.long	.LCFI271
	.value	0x2
	.byte	0x74
	.sleb128 8
	.long	.LCFI271
	.long	.LFE6103
	.value	0x2
	.byte	0x75
	.sleb128 8
	.long	0x0
	.long	0x0
.LLST102:
	.long	.LFB6102
	.long	.LCFI273
	.value	0x2
	.byte	0x74
	.sleb128 4
	.long	.LCFI273
	.long	.LCFI274
	.value	0x2
	.byte	0x74
	.sleb128 8
	.long	.LCFI274
	.long	.LFE6102
	.value	0x2
	.byte	0x75
	.sleb128 8
	.long	0x0
	.long	0x0
.LLST103:
	.long	.LFB6024
	.long	.LCFI276
	.value	0x2
	.byte	0x74
	.sleb128 4
	.long	.LCFI276
	.long	.LCFI277
	.value	0x2
	.byte	0x74
	.sleb128 8
	.long	.LCFI277
	.long	.LFE6024
	.value	0x2
	.byte	0x75
	.sleb128 8
	.long	0x0
	.long	0x0
.LLST104:
	.long	.LFB6030
	.long	.LCFI279
	.value	0x2
	.byte	0x74
	.sleb128 4
	.long	.LCFI279
	.long	.LCFI280
	.value	0x2
	.byte	0x74
	.sleb128 8
	.long	.LCFI280
	.long	.LFE6030
	.value	0x2
	.byte	0x75
	.sleb128 8
	.long	0x0
	.long	0x0
.LLST105:
	.long	.LFB6041
	.long	.LCFI282
	.value	0x2
	.byte	0x74
	.sleb128 4
	.long	.LCFI282
	.long	.LCFI283
	.value	0x2
	.byte	0x74
	.sleb128 8
	.long	.LCFI283
	.long	.LFE6041
	.value	0x2
	.byte	0x75
	.sleb128 8
	.long	0x0
	.long	0x0
.LLST106:
	.long	.LFB6101
	.long	.LCFI285
	.value	0x2
	.byte	0x74
	.sleb128 4
	.long	.LCFI285
	.long	.LCFI286
	.value	0x2
	.byte	0x74
	.sleb128 8
	.long	.LCFI286
	.long	.LFE6101
	.value	0x2
	.byte	0x75
	.sleb128 8
	.long	0x0
	.long	0x0
.LLST107:
	.long	.LFB6100
	.long	.LCFI288
	.value	0x2
	.byte	0x74
	.sleb128 4
	.long	.LCFI288
	.long	.LCFI289
	.value	0x2
	.byte	0x74
	.sleb128 8
	.long	.LCFI289
	.long	.LFE6100
	.value	0x2
	.byte	0x75
	.sleb128 8
	.long	0x0
	.long	0x0
.LLST108:
	.long	.LFB6099
	.long	.LCFI291
	.value	0x2
	.byte	0x74
	.sleb128 4
	.long	.LCFI291
	.long	.LCFI292
	.value	0x2
	.byte	0x74
	.sleb128 8
	.long	.LCFI292
	.long	.LFE6099
	.value	0x2
	.byte	0x75
	.sleb128 8
	.long	0x0
	.long	0x0
.LLST109:
	.long	.LFB4966
	.long	.LCFI294
	.value	0x2
	.byte	0x74
	.sleb128 4
	.long	.LCFI294
	.long	.LCFI295
	.value	0x2
	.byte	0x74
	.sleb128 8
	.long	.LCFI295
	.long	.LFE4966
	.value	0x2
	.byte	0x75
	.sleb128 8
	.long	0x0
	.long	0x0
.LLST110:
	.long	.LFB1239
	.long	.LCFI297
	.value	0x2
	.byte	0x74
	.sleb128 4
	.long	.LCFI297
	.long	.LCFI298
	.value	0x2
	.byte	0x74
	.sleb128 8
	.long	.LCFI298
	.long	.LFE1239
	.value	0x2
	.byte	0x75
	.sleb128 8
	.long	0x0
	.long	0x0
.LLST111:
	.long	.LFB5609
	.long	.LCFI300
	.value	0x2
	.byte	0x74
	.sleb128 4
	.long	.LCFI300
	.long	.LCFI301
	.value	0x2
	.byte	0x74
	.sleb128 8
	.long	.LCFI301
	.long	.LFE5609
	.value	0x2
	.byte	0x75
	.sleb128 8
	.long	0x0
	.long	0x0
.LLST112:
	.long	.LFB5645
	.long	.LCFI305
	.value	0x2
	.byte	0x74
	.sleb128 4
	.long	.LCFI305
	.long	.LCFI306
	.value	0x2
	.byte	0x74
	.sleb128 8
	.long	.LCFI306
	.long	.LFE5645
	.value	0x2
	.byte	0x75
	.sleb128 8
	.long	0x0
	.long	0x0
.LLST113:
	.long	.LFB5644
	.long	.LCFI308
	.value	0x2
	.byte	0x74
	.sleb128 4
	.long	.LCFI308
	.long	.LCFI309
	.value	0x2
	.byte	0x74
	.sleb128 8
	.long	.LCFI309
	.long	.LFE5644
	.value	0x2
	.byte	0x75
	.sleb128 8
	.long	0x0
	.long	0x0
.LLST114:
	.long	.LFB5643
	.long	.LCFI311
	.value	0x2
	.byte	0x74
	.sleb128 4
	.long	.LCFI311
	.long	.LCFI312
	.value	0x2
	.byte	0x74
	.sleb128 8
	.long	.LCFI312
	.long	.LFE5643
	.value	0x2
	.byte	0x75
	.sleb128 8
	.long	0x0
	.long	0x0
.LLST115:
	.long	.LFB2040
	.long	.LCFI314
	.value	0x2
	.byte	0x74
	.sleb128 4
	.long	.LCFI314
	.long	.LCFI315
	.value	0x2
	.byte	0x74
	.sleb128 8
	.long	.LCFI315
	.long	.LFE2040
	.value	0x2
	.byte	0x75
	.sleb128 8
	.long	0x0
	.long	0x0
.LLST116:
	.long	.LFB2044
	.long	.LCFI317
	.value	0x2
	.byte	0x74
	.sleb128 4
	.long	.LCFI317
	.long	.LCFI318
	.value	0x2
	.byte	0x74
	.sleb128 8
	.long	.LCFI318
	.long	.LFE2044
	.value	0x2
	.byte	0x75
	.sleb128 8
	.long	0x0
	.long	0x0
.LLST117:
	.long	.LFB2042
	.long	.LCFI320
	.value	0x2
	.byte	0x74
	.sleb128 4
	.long	.LCFI320
	.long	.LCFI321
	.value	0x2
	.byte	0x74
	.sleb128 8
	.long	.LCFI321
	.long	.LFE2042
	.value	0x2
	.byte	0x75
	.sleb128 8
	.long	0x0
	.long	0x0
.LLST118:
	.long	.LFB2041
	.long	.LCFI323
	.value	0x2
	.byte	0x74
	.sleb128 4
	.long	.LCFI323
	.long	.LCFI324
	.value	0x2
	.byte	0x74
	.sleb128 8
	.long	.LCFI324
	.long	.LFE2041
	.value	0x2
	.byte	0x75
	.sleb128 8
	.long	0x0
	.long	0x0
.LLST119:
	.long	.LFB1936
	.long	.LCFI326
	.value	0x2
	.byte	0x74
	.sleb128 4
	.long	.LCFI326
	.long	.LCFI327
	.value	0x2
	.byte	0x74
	.sleb128 8
	.long	.LCFI327
	.long	.LFE1936
	.value	0x2
	.byte	0x75
	.sleb128 8
	.long	0x0
	.long	0x0
.LLST120:
	.long	.LFB1901
	.long	.LCFI329
	.value	0x2
	.byte	0x74
	.sleb128 4
	.long	.LCFI329
	.long	.LCFI330
	.value	0x2
	.byte	0x74
	.sleb128 8
	.long	.LCFI330
	.long	.LFE1901
	.value	0x2
	.byte	0x75
	.sleb128 8
	.long	0x0
	.long	0x0
.LLST121:
	.long	.LFB1940
	.long	.LCFI333
	.value	0x2
	.byte	0x74
	.sleb128 4
	.long	.LCFI333
	.long	.LCFI334
	.value	0x2
	.byte	0x74
	.sleb128 8
	.long	.LCFI334
	.long	.LFE1940
	.value	0x2
	.byte	0x75
	.sleb128 8
	.long	0x0
	.long	0x0
.LLST122:
	.long	.LFB4963
	.long	.LCFI338
	.value	0x2
	.byte	0x74
	.sleb128 4
	.long	.LCFI338
	.long	.LCFI339
	.value	0x2
	.byte	0x74
	.sleb128 8
	.long	.LCFI339
	.long	.LFE4963
	.value	0x2
	.byte	0x75
	.sleb128 8
	.long	0x0
	.long	0x0
.LLST123:
	.long	.LFB5650
	.long	.LCFI341
	.value	0x2
	.byte	0x74
	.sleb128 4
	.long	.LCFI341
	.long	.LCFI342
	.value	0x2
	.byte	0x74
	.sleb128 8
	.long	.LCFI342
	.long	.LFE5650
	.value	0x2
	.byte	0x75
	.sleb128 8
	.long	0x0
	.long	0x0
.LLST124:
	.long	.LFB4976
	.long	.LCFI345
	.value	0x2
	.byte	0x74
	.sleb128 4
	.long	.LCFI345
	.long	.LCFI346
	.value	0x2
	.byte	0x74
	.sleb128 8
	.long	.LCFI346
	.long	.LFE4976
	.value	0x2
	.byte	0x75
	.sleb128 8
	.long	0x0
	.long	0x0
.LLST125:
	.long	.LFB4975
	.long	.LCFI348
	.value	0x2
	.byte	0x74
	.sleb128 4
	.long	.LCFI348
	.long	.LCFI349
	.value	0x2
	.byte	0x74
	.sleb128 8
	.long	.LCFI349
	.long	.LFE4975
	.value	0x2
	.byte	0x75
	.sleb128 8
	.long	0x0
	.long	0x0
.LLST126:
	.long	.LFB4974
	.long	.LCFI351
	.value	0x2
	.byte	0x74
	.sleb128 4
	.long	.LCFI351
	.long	.LCFI352
	.value	0x2
	.byte	0x74
	.sleb128 8
	.long	.LCFI352
	.long	.LFE4974
	.value	0x2
	.byte	0x75
	.sleb128 8
	.long	0x0
	.long	0x0
.LLST127:
	.long	.LFB4492
	.long	.LCFI354
	.value	0x2
	.byte	0x74
	.sleb128 4
	.long	.LCFI354
	.long	.LCFI355
	.value	0x2
	.byte	0x74
	.sleb128 8
	.long	.LCFI355
	.long	.LFE4492
	.value	0x2
	.byte	0x75
	.sleb128 8
	.long	0x0
	.long	0x0
.LLST128:
	.long	.LFB4978
	.long	.LCFI357
	.value	0x2
	.byte	0x74
	.sleb128 4
	.long	.LCFI357
	.long	.LCFI358
	.value	0x2
	.byte	0x74
	.sleb128 8
	.long	.LCFI358
	.long	.LFE4978
	.value	0x2
	.byte	0x75
	.sleb128 8
	.long	0x0
	.long	0x0
.LLST129:
	.long	.LFB5918
	.long	.LCFI361
	.value	0x2
	.byte	0x74
	.sleb128 4
	.long	.LCFI361
	.long	.LCFI362
	.value	0x2
	.byte	0x74
	.sleb128 8
	.long	.LCFI362
	.long	.LFE5918
	.value	0x2
	.byte	0x75
	.sleb128 8
	.long	0x0
	.long	0x0
.LLST130:
	.long	.LFB5919
	.long	.LCFI365
	.value	0x2
	.byte	0x74
	.sleb128 4
	.long	.LCFI365
	.long	.LCFI366
	.value	0x2
	.byte	0x74
	.sleb128 8
	.long	.LCFI366
	.long	.LFE5919
	.value	0x2
	.byte	0x75
	.sleb128 8
	.long	0x0
	.long	0x0
.LLST131:
	.long	.LFB6097
	.long	.LCFI369
	.value	0x2
	.byte	0x74
	.sleb128 4
	.long	.LCFI369
	.long	.LCFI370
	.value	0x2
	.byte	0x74
	.sleb128 8
	.long	.LCFI370
	.long	.LFE6097
	.value	0x2
	.byte	0x75
	.sleb128 8
	.long	0x0
	.long	0x0
.LLST132:
	.long	.LFB6096
	.long	.LCFI373
	.value	0x2
	.byte	0x74
	.sleb128 4
	.long	.LCFI373
	.long	.LCFI374
	.value	0x2
	.byte	0x74
	.sleb128 8
	.long	.LCFI374
	.long	.LFE6096
	.value	0x2
	.byte	0x75
	.sleb128 8
	.long	0x0
	.long	0x0
	.section	.debug_info
	.long	0x1fc17
	.value	0x2
	.long	.Ldebug_abbrev0
	.byte	0x4
	.uleb128 0x1
	.long	.Ldebug_line0
	.long	0x0
	.string	"GNU C++ 4.1.2 20070925 (Red Hat 4.1.2-33)"
	.byte	0x4
	.string	"TestDialog.cpp"
	.string	"/root/develop_wxwidgets/wxDialog_app/src_gen"
	.uleb128 0x2
	.string	"short int"
	.byte	0x2
	.byte	0x5
	.uleb128 0x3
	.string	"wxWindowID"
	.byte	0x3b
	.byte	0xf4
	.long	0x9a
	.uleb128 0x2
	.string	"int"
	.byte	0x4
	.byte	0x5
	.uleb128 0x3
	.string	"size_t"
	.byte	0x1d
	.byte	0xd6
	.long	0xaf
	.uleb128 0x4
	.long	.LASF0
	.byte	0x4
	.byte	0x7
	.uleb128 0x2
	.string	"unsigned char"
	.byte	0x1
	.byte	0x8
	.uleb128 0x2
	.string	"short unsigned int"
	.byte	0x2
	.byte	0x7
	.uleb128 0x2
	.string	"long unsigned int"
	.byte	0x4
	.byte	0x7
	.uleb128 0x2
	.string	"signed char"
	.byte	0x1
	.byte	0x6
	.uleb128 0x3
	.string	"__int32_t"
	.byte	0x23
	.byte	0x29
	.long	0x9a
	.uleb128 0x2
	.string	"long long int"
	.byte	0x8
	.byte	0x5
	.uleb128 0x2
	.string	"long long unsigned int"
	.byte	0x8
	.byte	0x7
	.uleb128 0x3
	.string	"__quad_t"
	.byte	0x23
	.byte	0x38
	.long	0x112
	.uleb128 0x3
	.string	"__off_t"
	.byte	0x23
	.byte	0x8d
	.long	0x15c
	.uleb128 0x2
	.string	"long int"
	.byte	0x4
	.byte	0x5
	.uleb128 0x3
	.string	"__off64_t"
	.byte	0x23
	.byte	0x8e
	.long	0x13d
	.uleb128 0x4
	.long	.LASF0
	.byte	0x4
	.byte	0x7
	.uleb128 0x3
	.string	"__clock_t"
	.byte	0x23
	.byte	0x91
	.long	0x15c
	.uleb128 0x3
	.string	"__time_t"
	.byte	0x23
	.byte	0x95
	.long	0x15c
	.uleb128 0x5
	.byte	0x4
	.uleb128 0x6
	.byte	0x4
	.long	0x1a9
	.uleb128 0x2
	.string	"char"
	.byte	0x1
	.byte	0x6
	.uleb128 0x3
	.string	"FILE"
	.byte	0x21
	.byte	0x31
	.long	0x1bd
	.uleb128 0x7
	.long	0x43e
	.string	"_IO_FILE"
	.byte	0x94
	.byte	0x22
	.value	0x10f
	.uleb128 0x8
	.string	"_flags"
	.byte	0x22
	.value	0x110
	.long	0x9a
	.byte	0x2
	.byte	0x23
	.uleb128 0x0
	.uleb128 0x8
	.string	"_IO_read_ptr"
	.byte	0x22
	.value	0x115
	.long	0x1a3
	.byte	0x2
	.byte	0x23
	.uleb128 0x4
	.uleb128 0x8
	.string	"_IO_read_end"
	.byte	0x22
	.value	0x116
	.long	0x1a3
	.byte	0x2
	.byte	0x23
	.uleb128 0x8
	.uleb128 0x8
	.string	"_IO_read_base"
	.byte	0x22
	.value	0x117
	.long	0x1a3
	.byte	0x2
	.byte	0x23
	.uleb128 0xc
	.uleb128 0x8
	.string	"_IO_write_base"
	.byte	0x22
	.value	0x118
	.long	0x1a3
	.byte	0x2
	.byte	0x23
	.uleb128 0x10
	.uleb128 0x8
	.string	"_IO_write_ptr"
	.byte	0x22
	.value	0x119
	.long	0x1a3
	.byte	0x2
	.byte	0x23
	.uleb128 0x14
	.uleb128 0x8
	.string	"_IO_write_end"
	.byte	0x22
	.value	0x11a
	.long	0x1a3
	.byte	0x2
	.byte	0x23
	.uleb128 0x18
	.uleb128 0x8
	.string	"_IO_buf_base"
	.byte	0x22
	.value	0x11b
	.long	0x1a3
	.byte	0x2
	.byte	0x23
	.uleb128 0x1c
	.uleb128 0x8
	.string	"_IO_buf_end"
	.byte	0x22
	.value	0x11c
	.long	0x1a3
	.byte	0x2
	.byte	0x23
	.uleb128 0x20
	.uleb128 0x8
	.string	"_IO_save_base"
	.byte	0x22
	.value	0x11e
	.long	0x1a3
	.byte	0x2
	.byte	0x23
	.uleb128 0x24
	.uleb128 0x8
	.string	"_IO_backup_base"
	.byte	0x22
	.value	0x11f
	.long	0x1a3
	.byte	0x2
	.byte	0x23
	.uleb128 0x28
	.uleb128 0x8
	.string	"_IO_save_end"
	.byte	0x22
	.value	0x120
	.long	0x1a3
	.byte	0x2
	.byte	0x23
	.uleb128 0x2c
	.uleb128 0x8
	.string	"_markers"
	.byte	0x22
	.value	0x122
	.long	0x551
	.byte	0x2
	.byte	0x23
	.uleb128 0x30
	.uleb128 0x8
	.string	"_chain"
	.byte	0x22
	.value	0x124
	.long	0x557
	.byte	0x2
	.byte	0x23
	.uleb128 0x34
	.uleb128 0x8
	.string	"_fileno"
	.byte	0x22
	.value	0x126
	.long	0x9a
	.byte	0x2
	.byte	0x23
	.uleb128 0x38
	.uleb128 0x8
	.string	"_flags2"
	.byte	0x22
	.value	0x12a
	.long	0x9a
	.byte	0x2
	.byte	0x23
	.uleb128 0x3c
	.uleb128 0x8
	.string	"_old_offset"
	.byte	0x22
	.value	0x12c
	.long	0x14d
	.byte	0x2
	.byte	0x23
	.uleb128 0x40
	.uleb128 0x8
	.string	"_cur_column"
	.byte	0x22
	.value	0x130
	.long	0xc7
	.byte	0x2
	.byte	0x23
	.uleb128 0x44
	.uleb128 0x8
	.string	"_vtable_offset"
	.byte	0x22
	.value	0x131
	.long	0xf2
	.byte	0x2
	.byte	0x23
	.uleb128 0x46
	.uleb128 0x8
	.string	"_shortbuf"
	.byte	0x22
	.value	0x132
	.long	0x55d
	.byte	0x2
	.byte	0x23
	.uleb128 0x47
	.uleb128 0x8
	.string	"_lock"
	.byte	0x22
	.value	0x136
	.long	0x56d
	.byte	0x2
	.byte	0x23
	.uleb128 0x48
	.uleb128 0x8
	.string	"_offset"
	.byte	0x22
	.value	0x13f
	.long	0x168
	.byte	0x2
	.byte	0x23
	.uleb128 0x4c
	.uleb128 0x8
	.string	"__pad1"
	.byte	0x22
	.value	0x148
	.long	0x1a1
	.byte	0x2
	.byte	0x23
	.uleb128 0x54
	.uleb128 0x8
	.string	"__pad2"
	.byte	0x22
	.value	0x149
	.long	0x1a1
	.byte	0x2
	.byte	0x23
	.uleb128 0x58
	.uleb128 0x8
	.string	"__pad3"
	.byte	0x22
	.value	0x14a
	.long	0x1a1
	.byte	0x2
	.byte	0x23
	.uleb128 0x5c
	.uleb128 0x8
	.string	"__pad4"
	.byte	0x22
	.value	0x14b
	.long	0x1a1
	.byte	0x2
	.byte	0x23
	.uleb128 0x60
	.uleb128 0x8
	.string	"__pad5"
	.byte	0x22
	.value	0x14c
	.long	0xa1
	.byte	0x2
	.byte	0x23
	.uleb128 0x64
	.uleb128 0x8
	.string	"_mode"
	.byte	0x22
	.value	0x14e
	.long	0x9a
	.byte	0x2
	.byte	0x23
	.uleb128 0x68
	.uleb128 0x8
	.string	"_unused2"
	.byte	0x22
	.value	0x150
	.long	0x573
	.byte	0x2
	.byte	0x23
	.uleb128 0x6c
	.byte	0x0
	.uleb128 0x3
	.string	"__FILE"
	.byte	0x21
	.byte	0x41
	.long	0x1bd
	.uleb128 0x9
	.long	0x4a5
	.string	"._1"
	.byte	0x8
	.byte	0x25
	.byte	0x4f
	.uleb128 0xa
	.long	0x480
	.string	"._2"
	.byte	0x4
	.byte	0x25
	.byte	0x52
	.uleb128 0xb
	.string	"__wch"
	.byte	0x25
	.byte	0x54
	.long	0xaf
	.uleb128 0xb
	.string	"__wchb"
	.byte	0x25
	.byte	0x58
	.long	0x4a5
	.byte	0x0
	.uleb128 0xc
	.string	"__count"
	.byte	0x25
	.byte	0x50
	.long	0x9a
	.byte	0x2
	.byte	0x23
	.uleb128 0x0
	.uleb128 0xc
	.string	"__value"
	.byte	0x25
	.byte	0x59
	.long	0x458
	.byte	0x2
	.byte	0x23
	.uleb128 0x4
	.byte	0x0
	.uleb128 0xd
	.long	0x4b5
	.long	0x1a9
	.uleb128 0xe
	.long	0x179
	.byte	0x3
	.byte	0x0
	.uleb128 0x9
	.long	0x4e4
	.string	"._4"
	.byte	0x10
	.byte	0x24
	.byte	0x1c
	.uleb128 0xc
	.string	"__pos"
	.byte	0x24
	.byte	0x1d
	.long	0x168
	.byte	0x2
	.byte	0x23
	.uleb128 0x0
	.uleb128 0xc
	.string	"__state"
	.byte	0x24
	.byte	0x1e
	.long	0x44c
	.byte	0x2
	.byte	0x23
	.uleb128 0x8
	.byte	0x0
	.uleb128 0x3
	.string	"__gnuc_va_list"
	.byte	0x26
	.byte	0x2b
	.long	0x4fa
	.uleb128 0x6
	.byte	0x4
	.long	0x1a9
	.uleb128 0xf
	.string	"_IO_lock_t"
	.byte	0x22
	.byte	0xb4
	.uleb128 0x9
	.long	0x551
	.string	"_IO_marker"
	.byte	0xc
	.byte	0x22
	.byte	0xba
	.uleb128 0xc
	.string	"_next"
	.byte	0x22
	.byte	0xbb
	.long	0x551
	.byte	0x2
	.byte	0x23
	.uleb128 0x0
	.uleb128 0xc
	.string	"_sbuf"
	.byte	0x22
	.byte	0xbc
	.long	0x557
	.byte	0x2
	.byte	0x23
	.uleb128 0x4
	.uleb128 0xc
	.string	"_pos"
	.byte	0x22
	.byte	0xc0
	.long	0x9a
	.byte	0x2
	.byte	0x23
	.uleb128 0x8
	.byte	0x0
	.uleb128 0x6
	.byte	0x4
	.long	0x50e
	.uleb128 0x6
	.byte	0x4
	.long	0x1bd
	.uleb128 0xd
	.long	0x56d
	.long	0x1a9
	.uleb128 0xe
	.long	0x179
	.byte	0x0
	.byte	0x0
	.uleb128 0x6
	.byte	0x4
	.long	0x500
	.uleb128 0xd
	.long	0x583
	.long	0x1a9
	.uleb128 0xe
	.long	0x179
	.byte	0x27
	.byte	0x0
	.uleb128 0x6
	.byte	0x4
	.long	0x589
	.uleb128 0x10
	.long	0x1a9
	.uleb128 0x3
	.string	"va_list"
	.byte	0x21
	.byte	0x50
	.long	0x4e4
	.uleb128 0x3
	.string	"fpos_t"
	.byte	0x21
	.byte	0x5d
	.long	0x4b5
	.uleb128 0x11
	.long	.LASF1
	.byte	0x1d
	.value	0x163
	.long	0xaf
	.uleb128 0x3
	.string	"mbstate_t"
	.byte	0x25
	.byte	0x65
	.long	0x44c
	.uleb128 0x10
	.long	0xc7
	.uleb128 0x10
	.long	0x9a
	.uleb128 0x3
	.string	"wxChar"
	.byte	0x33
	.byte	0xd4
	.long	0x5e0
	.uleb128 0x2
	.string	"wchar_t"
	.byte	0x4
	.byte	0x5
	.uleb128 0x12
	.long	.LASF2
	.byte	0x2d
	.byte	0x35
	.long	0xdd
	.uleb128 0x3
	.string	"wctrans_t"
	.byte	0x2d
	.byte	0xbb
	.long	0x607
	.uleb128 0x6
	.byte	0x4
	.long	0x60d
	.uleb128 0x10
	.long	0x101
	.uleb128 0x3
	.string	"clock_t"
	.byte	0x2a
	.byte	0x3d
	.long	0x180
	.uleb128 0x3
	.string	"time_t"
	.byte	0x2a
	.byte	0x4d
	.long	0x191
	.uleb128 0x9
	.long	0x701
	.string	"tm"
	.byte	0x2c
	.byte	0x2a
	.byte	0x87
	.uleb128 0xc
	.string	"tm_sec"
	.byte	0x2a
	.byte	0x88
	.long	0x9a
	.byte	0x2
	.byte	0x23
	.uleb128 0x0
	.uleb128 0xc
	.string	"tm_min"
	.byte	0x2a
	.byte	0x89
	.long	0x9a
	.byte	0x2
	.byte	0x23
	.uleb128 0x4
	.uleb128 0xc
	.string	"tm_hour"
	.byte	0x2a
	.byte	0x8a
	.long	0x9a
	.byte	0x2
	.byte	0x23
	.uleb128 0x8
	.uleb128 0xc
	.string	"tm_mday"
	.byte	0x2a
	.byte	0x8b
	.long	0x9a
	.byte	0x2
	.byte	0x23
	.uleb128 0xc
	.uleb128 0xc
	.string	"tm_mon"
	.byte	0x2a
	.byte	0x8c
	.long	0x9a
	.byte	0x2
	.byte	0x23
	.uleb128 0x10
	.uleb128 0xc
	.string	"tm_year"
	.byte	0x2a
	.byte	0x8d
	.long	0x9a
	.byte	0x2
	.byte	0x23
	.uleb128 0x14
	.uleb128 0xc
	.string	"tm_wday"
	.byte	0x2a
	.byte	0x8e
	.long	0x9a
	.byte	0x2
	.byte	0x23
	.uleb128 0x18
	.uleb128 0xc
	.string	"tm_yday"
	.byte	0x2a
	.byte	0x8f
	.long	0x9a
	.byte	0x2
	.byte	0x23
	.uleb128 0x1c
	.uleb128 0xc
	.string	"tm_isdst"
	.byte	0x2a
	.byte	0x90
	.long	0x9a
	.byte	0x2
	.byte	0x23
	.uleb128 0x20
	.uleb128 0xc
	.string	"tm_gmtoff"
	.byte	0x2a
	.byte	0x93
	.long	0x15c
	.byte	0x2
	.byte	0x23
	.uleb128 0x24
	.uleb128 0xc
	.string	"tm_zone"
	.byte	0x2a
	.byte	0x94
	.long	0x583
	.byte	0x2
	.byte	0x23
	.uleb128 0x28
	.byte	0x0
	.uleb128 0x12
	.long	.LASF3
	.byte	0x1d
	.byte	0x98
	.long	0x9a
	.uleb128 0x13
	.string	"wxCoord"
	.byte	0x3b
	.value	0x28b
	.long	0x9a
	.uleb128 0x13
	.string	"wxUint8"
	.byte	0x3b
	.value	0x29f
	.long	0xb6
	.uleb128 0x13
	.string	"wxByte"
	.byte	0x3b
	.value	0x2a0
	.long	0x71c
	.uleb128 0x13
	.string	"wxInt32"
	.byte	0x3b
	.value	0x30d
	.long	0x9a
	.uleb128 0x13
	.string	"wxUint32"
	.byte	0x3b
	.value	0x30e
	.long	0xaf
	.uleb128 0x2
	.string	"float"
	.byte	0x4
	.byte	0x4
	.uleb128 0x2
	.string	"double"
	.byte	0x8
	.byte	0x4
	.uleb128 0x14
	.long	0x7c7
	.string	"wxBackgroundStyle"
	.byte	0x4
	.byte	0x3b
	.value	0x65b
	.uleb128 0x15
	.string	"wxBG_STYLE_SYSTEM"
	.sleb128 0
	.uleb128 0x15
	.string	"wxBG_STYLE_COLOUR"
	.sleb128 1
	.uleb128 0x15
	.string	"wxBG_STYLE_CUSTOM"
	.sleb128 2
	.byte	0x0
	.uleb128 0x13
	.string	"GtkWidget"
	.byte	0x3b
	.value	0xaf9
	.long	0x7d9
	.uleb128 0x16
	.string	"_GtkWidget"
	.byte	0x1
	.uleb128 0x13
	.string	"WXWidget"
	.byte	0x3b
	.value	0xb07
	.long	0x7f7
	.uleb128 0x6
	.byte	0x4
	.long	0x7c7
	.uleb128 0x9
	.long	0x828
	.string	"._18"
	.byte	0x8
	.byte	0x1f
	.byte	0x63
	.uleb128 0xc
	.string	"quot"
	.byte	0x1f
	.byte	0x64
	.long	0x9a
	.byte	0x2
	.byte	0x23
	.uleb128 0x0
	.uleb128 0xc
	.string	"rem"
	.byte	0x1f
	.byte	0x65
	.long	0x9a
	.byte	0x2
	.byte	0x23
	.uleb128 0x4
	.byte	0x0
	.uleb128 0x9
	.long	0x853
	.string	"._19"
	.byte	0x8
	.byte	0x1f
	.byte	0x6b
	.uleb128 0xc
	.string	"quot"
	.byte	0x1f
	.byte	0x6c
	.long	0x15c
	.byte	0x2
	.byte	0x23
	.uleb128 0x0
	.uleb128 0xc
	.string	"rem"
	.byte	0x1f
	.byte	0x6d
	.long	0x15c
	.byte	0x2
	.byte	0x23
	.uleb128 0x4
	.byte	0x0
	.uleb128 0x9
	.long	0x87e
	.string	"._20"
	.byte	0x10
	.byte	0x1f
	.byte	0x77
	.uleb128 0xc
	.string	"quot"
	.byte	0x1f
	.byte	0x78
	.long	0x112
	.byte	0x2
	.byte	0x23
	.uleb128 0x0
	.uleb128 0xc
	.string	"rem"
	.byte	0x1f
	.byte	0x79
	.long	0x112
	.byte	0x2
	.byte	0x23
	.uleb128 0x8
	.byte	0x0
	.uleb128 0x3
	.string	"pthread_once_t"
	.byte	0x4f
	.byte	0x71
	.long	0x9a
	.uleb128 0x13
	.string	"__compar_fn_t"
	.byte	0x1f
	.value	0x29e
	.long	0x8aa
	.uleb128 0x6
	.byte	0x4
	.long	0x8b0
	.uleb128 0x17
	.long	0x8c4
	.long	0x9a
	.uleb128 0x18
	.long	0x8c4
	.uleb128 0x18
	.long	0x8c4
	.byte	0x0
	.uleb128 0x6
	.byte	0x4
	.long	0x8ca
	.uleb128 0x19
	.uleb128 0x1a
	.long	0xb3d
	.long	.LASF4
	.byte	0x4
	.byte	0x39
	.byte	0x7f
	.uleb128 0x1b
	.string	"m_str"
	.byte	0x39
	.byte	0x7f
	.long	0x1a3
	.byte	0x2
	.byte	0x23
	.uleb128 0x0
	.byte	0x3
	.uleb128 0x1c
	.long	0x901
	.byte	0x1
	.long	.LASF4
	.byte	0x39
	.byte	0x7f
	.byte	0x1
	.uleb128 0x1d
	.long	0xb3d
	.byte	0x1
	.uleb128 0x18
	.long	0x583
	.byte	0x0
	.uleb128 0x1c
	.long	0x91a
	.byte	0x1
	.long	.LASF4
	.byte	0x39
	.byte	0x7f
	.byte	0x1
	.uleb128 0x1d
	.long	0xb3d
	.byte	0x1
	.uleb128 0x18
	.long	0xa1
	.byte	0x0
	.uleb128 0x1e
	.long	0x93e
	.byte	0x1
	.string	"~wxCharBuffer"
	.byte	0x39
	.byte	0x7f
	.byte	0x1
	.uleb128 0x1d
	.long	0xb3d
	.byte	0x1
	.uleb128 0x1d
	.long	0x9a
	.byte	0x1
	.byte	0x0
	.uleb128 0x1f
	.long	0x977
	.byte	0x1
	.string	"release"
	.byte	0x39
	.byte	0x7f
	.string	"_ZNK12wxCharBuffer7releaseEv"
	.long	0x1a3
	.byte	0x1
	.uleb128 0x1d
	.long	0xb43
	.byte	0x1
	.byte	0x0
	.uleb128 0x20
	.long	0x9a7
	.byte	0x1
	.string	"reset"
	.byte	0x39
	.byte	0x7f
	.string	"_ZN12wxCharBuffer5resetEv"
	.byte	0x1
	.uleb128 0x1d
	.long	0xb3d
	.byte	0x1
	.byte	0x0
	.uleb128 0x1c
	.long	0x9c0
	.byte	0x1
	.long	.LASF4
	.byte	0x39
	.byte	0x7f
	.byte	0x1
	.uleb128 0x1d
	.long	0xb3d
	.byte	0x1
	.uleb128 0x18
	.long	0xb4e
	.byte	0x0
	.uleb128 0x21
	.long	0x9f5
	.byte	0x1
	.long	.LASF5
	.byte	0x39
	.byte	0x7f
	.string	"_ZN12wxCharBufferaSEPKc"
	.long	0xb54
	.byte	0x1
	.uleb128 0x1d
	.long	0xb3d
	.byte	0x1
	.uleb128 0x18
	.long	0x583
	.byte	0x0
	.uleb128 0x21
	.long	0xa2b
	.byte	0x1
	.long	.LASF5
	.byte	0x39
	.byte	0x7f
	.string	"_ZN12wxCharBufferaSERKS_"
	.long	0xb54
	.byte	0x1
	.uleb128 0x1d
	.long	0xb3d
	.byte	0x1
	.uleb128 0x18
	.long	0xb4e
	.byte	0x0
	.uleb128 0x1f
	.long	0xa66
	.byte	0x1
	.string	"extend"
	.byte	0x39
	.byte	0x7f
	.string	"_ZN12wxCharBuffer6extendEj"
	.long	0xb5a
	.byte	0x1
	.uleb128 0x1d
	.long	0xb3d
	.byte	0x1
	.uleb128 0x18
	.long	0xa1
	.byte	0x0
	.uleb128 0x21
	.long	0xa97
	.byte	0x1
	.long	.LASF6
	.byte	0x39
	.byte	0x7f
	.string	"_ZN12wxCharBuffer4dataEv"
	.long	0x1a3
	.byte	0x1
	.uleb128 0x1d
	.long	0xb3d
	.byte	0x1
	.byte	0x0
	.uleb128 0x21
	.long	0xac9
	.byte	0x1
	.long	.LASF6
	.byte	0x39
	.byte	0x7f
	.string	"_ZNK12wxCharBuffer4dataEv"
	.long	0x583
	.byte	0x1
	.uleb128 0x1d
	.long	0xb43
	.byte	0x1
	.byte	0x0
	.uleb128 0x1f
	.long	0xb0c
	.byte	0x1
	.string	"operator const char*"
	.byte	0x39
	.byte	0x7f
	.string	"_ZNK12wxCharBuffercvPKcEv"
	.long	0x583
	.byte	0x1
	.uleb128 0x1d
	.long	0xb43
	.byte	0x1
	.byte	0x0
	.uleb128 0x22
	.byte	0x1
	.long	.LASF8
	.byte	0x39
	.byte	0x7f
	.string	"_ZNK12wxCharBufferixEj"
	.long	0x1a9
	.byte	0x1
	.uleb128 0x1d
	.long	0xb43
	.byte	0x1
	.uleb128 0x18
	.long	0xa1
	.byte	0x0
	.byte	0x0
	.uleb128 0x6
	.byte	0x4
	.long	0x8cb
	.uleb128 0x6
	.byte	0x4
	.long	0xb49
	.uleb128 0x10
	.long	0x8cb
	.uleb128 0x23
	.byte	0x4
	.long	0xb49
	.uleb128 0x23
	.byte	0x4
	.long	0x8cb
	.uleb128 0x2
	.string	"bool"
	.byte	0x1
	.byte	0x2
	.uleb128 0x1a
	.long	0xbe9
	.long	.LASF7
	.byte	0x4
	.byte	0x39
	.byte	0x81
	.uleb128 0x24
	.long	0x8cb
	.byte	0x2
	.byte	0x23
	.uleb128 0x0
	.byte	0x1
	.uleb128 0x1c
	.long	0xb90
	.byte	0x1
	.long	.LASF7
	.byte	0x39
	.byte	0x81
	.byte	0x1
	.uleb128 0x1d
	.long	0xbe9
	.byte	0x1
	.uleb128 0x18
	.long	0xb4e
	.byte	0x0
	.uleb128 0x1c
	.long	0xba9
	.byte	0x1
	.long	.LASF7
	.byte	0x39
	.byte	0x81
	.byte	0x1
	.uleb128 0x1d
	.long	0xbe9
	.byte	0x1
	.uleb128 0x18
	.long	0x583
	.byte	0x0
	.uleb128 0x25
	.byte	0x1
	.string	"operator char*"
	.byte	0x39
	.byte	0x81
	.string	"_ZN20wxWritableCharBuffercvPcEv"
	.long	0x1a3
	.byte	0x1
	.uleb128 0x1d
	.long	0xbe9
	.byte	0x1
	.byte	0x0
	.byte	0x0
	.uleb128 0x6
	.byte	0x4
	.long	0xb62
	.uleb128 0x1a
	.long	0xe6e
	.long	.LASF9
	.byte	0x4
	.byte	0x39
	.byte	0x86
	.uleb128 0x1b
	.string	"m_str"
	.byte	0x39
	.byte	0x86
	.long	0xe6e
	.byte	0x2
	.byte	0x23
	.uleb128 0x0
	.byte	0x3
	.uleb128 0x1c
	.long	0xc25
	.byte	0x1
	.long	.LASF9
	.byte	0x39
	.byte	0x86
	.byte	0x1
	.uleb128 0x1d
	.long	0xe74
	.byte	0x1
	.uleb128 0x18
	.long	0xe7a
	.byte	0x0
	.uleb128 0x1c
	.long	0xc3e
	.byte	0x1
	.long	.LASF9
	.byte	0x39
	.byte	0x86
	.byte	0x1
	.uleb128 0x1d
	.long	0xe74
	.byte	0x1
	.uleb128 0x18
	.long	0xa1
	.byte	0x0
	.uleb128 0x1e
	.long	0xc63
	.byte	0x1
	.string	"~wxWCharBuffer"
	.byte	0x39
	.byte	0x86
	.byte	0x1
	.uleb128 0x1d
	.long	0xe74
	.byte	0x1
	.uleb128 0x1d
	.long	0x9a
	.byte	0x1
	.byte	0x0
	.uleb128 0x1f
	.long	0xc9d
	.byte	0x1
	.string	"release"
	.byte	0x39
	.byte	0x86
	.string	"_ZNK13wxWCharBuffer7releaseEv"
	.long	0xe6e
	.byte	0x1
	.uleb128 0x1d
	.long	0xe85
	.byte	0x1
	.byte	0x0
	.uleb128 0x20
	.long	0xcce
	.byte	0x1
	.string	"reset"
	.byte	0x39
	.byte	0x86
	.string	"_ZN13wxWCharBuffer5resetEv"
	.byte	0x1
	.uleb128 0x1d
	.long	0xe74
	.byte	0x1
	.byte	0x0
	.uleb128 0x1c
	.long	0xce7
	.byte	0x1
	.long	.LASF9
	.byte	0x39
	.byte	0x86
	.byte	0x1
	.uleb128 0x1d
	.long	0xe74
	.byte	0x1
	.uleb128 0x18
	.long	0xe90
	.byte	0x0
	.uleb128 0x21
	.long	0xd1d
	.byte	0x1
	.long	.LASF5
	.byte	0x39
	.byte	0x86
	.string	"_ZN13wxWCharBufferaSEPKw"
	.long	0xe96
	.byte	0x1
	.uleb128 0x1d
	.long	0xe74
	.byte	0x1
	.uleb128 0x18
	.long	0xe7a
	.byte	0x0
	.uleb128 0x21
	.long	0xd54
	.byte	0x1
	.long	.LASF5
	.byte	0x39
	.byte	0x86
	.string	"_ZN13wxWCharBufferaSERKS_"
	.long	0xe96
	.byte	0x1
	.uleb128 0x1d
	.long	0xe74
	.byte	0x1
	.uleb128 0x18
	.long	0xe90
	.byte	0x0
	.uleb128 0x1f
	.long	0xd90
	.byte	0x1
	.string	"extend"
	.byte	0x39
	.byte	0x86
	.string	"_ZN13wxWCharBuffer6extendEj"
	.long	0xb5a
	.byte	0x1
	.uleb128 0x1d
	.long	0xe74
	.byte	0x1
	.uleb128 0x18
	.long	0xa1
	.byte	0x0
	.uleb128 0x21
	.long	0xdc2
	.byte	0x1
	.long	.LASF6
	.byte	0x39
	.byte	0x86
	.string	"_ZN13wxWCharBuffer4dataEv"
	.long	0xe6e
	.byte	0x1
	.uleb128 0x1d
	.long	0xe74
	.byte	0x1
	.byte	0x0
	.uleb128 0x21
	.long	0xdf5
	.byte	0x1
	.long	.LASF6
	.byte	0x39
	.byte	0x86
	.string	"_ZNK13wxWCharBuffer4dataEv"
	.long	0xe7a
	.byte	0x1
	.uleb128 0x1d
	.long	0xe85
	.byte	0x1
	.byte	0x0
	.uleb128 0x1f
	.long	0xe3c
	.byte	0x1
	.string	"operator const wchar_t*"
	.byte	0x39
	.byte	0x86
	.string	"_ZNK13wxWCharBuffercvPKwEv"
	.long	0xe7a
	.byte	0x1
	.uleb128 0x1d
	.long	0xe85
	.byte	0x1
	.byte	0x0
	.uleb128 0x22
	.byte	0x1
	.long	.LASF8
	.byte	0x39
	.byte	0x86
	.string	"_ZNK13wxWCharBufferixEj"
	.long	0x5e0
	.byte	0x1
	.uleb128 0x1d
	.long	0xe85
	.byte	0x1
	.uleb128 0x18
	.long	0xa1
	.byte	0x0
	.byte	0x0
	.uleb128 0x6
	.byte	0x4
	.long	0x5e0
	.uleb128 0x6
	.byte	0x4
	.long	0xbef
	.uleb128 0x6
	.byte	0x4
	.long	0xe80
	.uleb128 0x10
	.long	0x5e0
	.uleb128 0x6
	.byte	0x4
	.long	0xe8b
	.uleb128 0x10
	.long	0xbef
	.uleb128 0x23
	.byte	0x4
	.long	0xe8b
	.uleb128 0x23
	.byte	0x4
	.long	0xbef
	.uleb128 0x1a
	.long	0xf27
	.long	.LASF10
	.byte	0x4
	.byte	0x39
	.byte	0x88
	.uleb128 0x24
	.long	0xbef
	.byte	0x2
	.byte	0x23
	.uleb128 0x0
	.byte	0x1
	.uleb128 0x1c
	.long	0xeca
	.byte	0x1
	.long	.LASF10
	.byte	0x39
	.byte	0x88
	.byte	0x1
	.uleb128 0x1d
	.long	0xf27
	.byte	0x1
	.uleb128 0x18
	.long	0xe90
	.byte	0x0
	.uleb128 0x1c
	.long	0xee3
	.byte	0x1
	.long	.LASF10
	.byte	0x39
	.byte	0x88
	.byte	0x1
	.uleb128 0x1d
	.long	0xf27
	.byte	0x1
	.uleb128 0x18
	.long	0xe7a
	.byte	0x0
	.uleb128 0x25
	.byte	0x1
	.string	"operator wchar_t*"
	.byte	0x39
	.byte	0x88
	.string	"_ZN21wxWritableWCharBuffercvPwEv"
	.long	0xe6e
	.byte	0x1
	.uleb128 0x1d
	.long	0xf27
	.byte	0x1
	.byte	0x0
	.byte	0x0
	.uleb128 0x6
	.byte	0x4
	.long	0xe9c
	.uleb128 0x16
	.string	"wxMBConvUTF8"
	.byte	0x1
	.uleb128 0x26
	.long	0x196b
	.string	"wxFontEncoding"
	.byte	0x4
	.byte	0x4c
	.byte	0x10
	.uleb128 0x15
	.string	"wxFONTENCODING_SYSTEM"
	.sleb128 -1
	.uleb128 0x15
	.string	"wxFONTENCODING_DEFAULT"
	.sleb128 0
	.uleb128 0x15
	.string	"wxFONTENCODING_ISO8859_1"
	.sleb128 1
	.uleb128 0x15
	.string	"wxFONTENCODING_ISO8859_2"
	.sleb128 2
	.uleb128 0x15
	.string	"wxFONTENCODING_ISO8859_3"
	.sleb128 3
	.uleb128 0x15
	.string	"wxFONTENCODING_ISO8859_4"
	.sleb128 4
	.uleb128 0x15
	.string	"wxFONTENCODING_ISO8859_5"
	.sleb128 5
	.uleb128 0x15
	.string	"wxFONTENCODING_ISO8859_6"
	.sleb128 6
	.uleb128 0x15
	.string	"wxFONTENCODING_ISO8859_7"
	.sleb128 7
	.uleb128 0x15
	.string	"wxFONTENCODING_ISO8859_8"
	.sleb128 8
	.uleb128 0x15
	.string	"wxFONTENCODING_ISO8859_9"
	.sleb128 9
	.uleb128 0x15
	.string	"wxFONTENCODING_ISO8859_10"
	.sleb128 10
	.uleb128 0x15
	.string	"wxFONTENCODING_ISO8859_11"
	.sleb128 11
	.uleb128 0x15
	.string	"wxFONTENCODING_ISO8859_12"
	.sleb128 12
	.uleb128 0x15
	.string	"wxFONTENCODING_ISO8859_13"
	.sleb128 13
	.uleb128 0x15
	.string	"wxFONTENCODING_ISO8859_14"
	.sleb128 14
	.uleb128 0x15
	.string	"wxFONTENCODING_ISO8859_15"
	.sleb128 15
	.uleb128 0x15
	.string	"wxFONTENCODING_ISO8859_MAX"
	.sleb128 16
	.uleb128 0x15
	.string	"wxFONTENCODING_KOI8"
	.sleb128 17
	.uleb128 0x15
	.string	"wxFONTENCODING_KOI8_U"
	.sleb128 18
	.uleb128 0x15
	.string	"wxFONTENCODING_ALTERNATIVE"
	.sleb128 19
	.uleb128 0x15
	.string	"wxFONTENCODING_BULGARIAN"
	.sleb128 20
	.uleb128 0x15
	.string	"wxFONTENCODING_CP437"
	.sleb128 21
	.uleb128 0x15
	.string	"wxFONTENCODING_CP850"
	.sleb128 22
	.uleb128 0x15
	.string	"wxFONTENCODING_CP852"
	.sleb128 23
	.uleb128 0x15
	.string	"wxFONTENCODING_CP855"
	.sleb128 24
	.uleb128 0x15
	.string	"wxFONTENCODING_CP866"
	.sleb128 25
	.uleb128 0x15
	.string	"wxFONTENCODING_CP874"
	.sleb128 26
	.uleb128 0x15
	.string	"wxFONTENCODING_CP932"
	.sleb128 27
	.uleb128 0x15
	.string	"wxFONTENCODING_CP936"
	.sleb128 28
	.uleb128 0x15
	.string	"wxFONTENCODING_CP949"
	.sleb128 29
	.uleb128 0x15
	.string	"wxFONTENCODING_CP950"
	.sleb128 30
	.uleb128 0x15
	.string	"wxFONTENCODING_CP1250"
	.sleb128 31
	.uleb128 0x15
	.string	"wxFONTENCODING_CP1251"
	.sleb128 32
	.uleb128 0x15
	.string	"wxFONTENCODING_CP1252"
	.sleb128 33
	.uleb128 0x15
	.string	"wxFONTENCODING_CP1253"
	.sleb128 34
	.uleb128 0x15
	.string	"wxFONTENCODING_CP1254"
	.sleb128 35
	.uleb128 0x15
	.string	"wxFONTENCODING_CP1255"
	.sleb128 36
	.uleb128 0x15
	.string	"wxFONTENCODING_CP1256"
	.sleb128 37
	.uleb128 0x15
	.string	"wxFONTENCODING_CP1257"
	.sleb128 38
	.uleb128 0x15
	.string	"wxFONTENCODING_CP12_MAX"
	.sleb128 39
	.uleb128 0x15
	.string	"wxFONTENCODING_UTF7"
	.sleb128 40
	.uleb128 0x15
	.string	"wxFONTENCODING_UTF8"
	.sleb128 41
	.uleb128 0x15
	.string	"wxFONTENCODING_EUC_JP"
	.sleb128 42
	.uleb128 0x15
	.string	"wxFONTENCODING_UTF16BE"
	.sleb128 43
	.uleb128 0x15
	.string	"wxFONTENCODING_UTF16LE"
	.sleb128 44
	.uleb128 0x15
	.string	"wxFONTENCODING_UTF32BE"
	.sleb128 45
	.uleb128 0x15
	.string	"wxFONTENCODING_UTF32LE"
	.sleb128 46
	.uleb128 0x15
	.string	"wxFONTENCODING_MACROMAN"
	.sleb128 47
	.uleb128 0x15
	.string	"wxFONTENCODING_MACJAPANESE"
	.sleb128 48
	.uleb128 0x15
	.string	"wxFONTENCODING_MACCHINESETRAD"
	.sleb128 49
	.uleb128 0x15
	.string	"wxFONTENCODING_MACKOREAN"
	.sleb128 50
	.uleb128 0x15
	.string	"wxFONTENCODING_MACARABIC"
	.sleb128 51
	.uleb128 0x15
	.string	"wxFONTENCODING_MACHEBREW"
	.sleb128 52
	.uleb128 0x15
	.string	"wxFONTENCODING_MACGREEK"
	.sleb128 53
	.uleb128 0x15
	.string	"wxFONTENCODING_MACCYRILLIC"
	.sleb128 54
	.uleb128 0x15
	.string	"wxFONTENCODING_MACDEVANAGARI"
	.sleb128 55
	.uleb128 0x15
	.string	"wxFONTENCODING_MACGURMUKHI"
	.sleb128 56
	.uleb128 0x15
	.string	"wxFONTENCODING_MACGUJARATI"
	.sleb128 57
	.uleb128 0x15
	.string	"wxFONTENCODING_MACORIYA"
	.sleb128 58
	.uleb128 0x15
	.string	"wxFONTENCODING_MACBENGALI"
	.sleb128 59
	.uleb128 0x15
	.string	"wxFONTENCODING_MACTAMIL"
	.sleb128 60
	.uleb128 0x15
	.string	"wxFONTENCODING_MACTELUGU"
	.sleb128 61
	.uleb128 0x15
	.string	"wxFONTENCODING_MACKANNADA"
	.sleb128 62
	.uleb128 0x15
	.string	"wxFONTENCODING_MACMALAJALAM"
	.sleb128 63
	.uleb128 0x15
	.string	"wxFONTENCODING_MACSINHALESE"
	.sleb128 64
	.uleb128 0x15
	.string	"wxFONTENCODING_MACBURMESE"
	.sleb128 65
	.uleb128 0x15
	.string	"wxFONTENCODING_MACKHMER"
	.sleb128 66
	.uleb128 0x15
	.string	"wxFONTENCODING_MACTHAI"
	.sleb128 67
	.uleb128 0x15
	.string	"wxFONTENCODING_MACLAOTIAN"
	.sleb128 68
	.uleb128 0x15
	.string	"wxFONTENCODING_MACGEORGIAN"
	.sleb128 69
	.uleb128 0x15
	.string	"wxFONTENCODING_MACARMENIAN"
	.sleb128 70
	.uleb128 0x15
	.string	"wxFONTENCODING_MACCHINESESIMP"
	.sleb128 71
	.uleb128 0x15
	.string	"wxFONTENCODING_MACTIBETAN"
	.sleb128 72
	.uleb128 0x15
	.string	"wxFONTENCODING_MACMONGOLIAN"
	.sleb128 73
	.uleb128 0x15
	.string	"wxFONTENCODING_MACETHIOPIC"
	.sleb128 74
	.uleb128 0x15
	.string	"wxFONTENCODING_MACCENTRALEUR"
	.sleb128 75
	.uleb128 0x15
	.string	"wxFONTENCODING_MACVIATNAMESE"
	.sleb128 76
	.uleb128 0x15
	.string	"wxFONTENCODING_MACARABICEXT"
	.sleb128 77
	.uleb128 0x15
	.string	"wxFONTENCODING_MACSYMBOL"
	.sleb128 78
	.uleb128 0x15
	.string	"wxFONTENCODING_MACDINGBATS"
	.sleb128 79
	.uleb128 0x15
	.string	"wxFONTENCODING_MACTURKISH"
	.sleb128 80
	.uleb128 0x15
	.string	"wxFONTENCODING_MACCROATIAN"
	.sleb128 81
	.uleb128 0x15
	.string	"wxFONTENCODING_MACICELANDIC"
	.sleb128 82
	.uleb128 0x15
	.string	"wxFONTENCODING_MACROMANIAN"
	.sleb128 83
	.uleb128 0x15
	.string	"wxFONTENCODING_MACCELTIC"
	.sleb128 84
	.uleb128 0x15
	.string	"wxFONTENCODING_MACGAELIC"
	.sleb128 85
	.uleb128 0x15
	.string	"wxFONTENCODING_MACKEYBOARD"
	.sleb128 86
	.uleb128 0x15
	.string	"wxFONTENCODING_MAX"
	.sleb128 87
	.uleb128 0x15
	.string	"wxFONTENCODING_MACMIN"
	.sleb128 47
	.uleb128 0x15
	.string	"wxFONTENCODING_MACMAX"
	.sleb128 86
	.uleb128 0x15
	.string	"wxFONTENCODING_UTF16"
	.sleb128 44
	.uleb128 0x15
	.string	"wxFONTENCODING_UTF32"
	.sleb128 46
	.uleb128 0x15
	.string	"wxFONTENCODING_UNICODE"
	.sleb128 46
	.uleb128 0x15
	.string	"wxFONTENCODING_GB2312"
	.sleb128 28
	.uleb128 0x15
	.string	"wxFONTENCODING_BIG5"
	.sleb128 30
	.uleb128 0x15
	.string	"wxFONTENCODING_SHIFT_JIS"
	.sleb128 27
	.byte	0x0
	.uleb128 0x27
	.long	0x1986
	.string	"__gnu_debug"
	.byte	0x18
	.byte	0x2e
	.uleb128 0x28
	.byte	0x18
	.byte	0x2f
	.long	0x1986
	.byte	0x0
	.uleb128 0x29
	.string	"__gnu_debug_def"
	.byte	0x18
	.byte	0x2b
	.uleb128 0x27
	.long	0x255c
	.string	"std"
	.byte	0x19
	.byte	0x0
	.uleb128 0x2a
	.byte	0x1a
	.byte	0x36
	.long	0x255c
	.uleb128 0x2a
	.byte	0x1a
	.byte	0x37
	.long	0x2563
	.uleb128 0x2a
	.byte	0x1b
	.byte	0x58
	.long	0x256d
	.uleb128 0x2a
	.byte	0x1b
	.byte	0x5a
	.long	0x258d
	.uleb128 0x2a
	.byte	0x1b
	.byte	0x5d
	.long	0x25b2
	.uleb128 0x2a
	.byte	0x1b
	.byte	0x5f
	.long	0x25d1
	.uleb128 0x2a
	.byte	0x1b
	.byte	0x62
	.long	0x25ee
	.uleb128 0x2a
	.byte	0x1e
	.byte	0x69
	.long	0x7fd
	.uleb128 0x2a
	.byte	0x1e
	.byte	0x6a
	.long	0x828
	.uleb128 0x2a
	.byte	0x1e
	.byte	0x6e
	.long	0x2612
	.uleb128 0x2a
	.byte	0x1e
	.byte	0x6f
	.long	0x2634
	.uleb128 0x2a
	.byte	0x1e
	.byte	0x70
	.long	0x264c
	.uleb128 0x2a
	.byte	0x1e
	.byte	0x71
	.long	0x2664
	.uleb128 0x2a
	.byte	0x1e
	.byte	0x72
	.long	0x267c
	.uleb128 0x2a
	.byte	0x1e
	.byte	0x74
	.long	0x26ac
	.uleb128 0x2a
	.byte	0x1e
	.byte	0x76
	.long	0x26c9
	.uleb128 0x2a
	.byte	0x1e
	.byte	0x77
	.long	0x26de
	.uleb128 0x2a
	.byte	0x1e
	.byte	0x79
	.long	0x26f9
	.uleb128 0x2a
	.byte	0x1e
	.byte	0x7c
	.long	0x2717
	.uleb128 0x2a
	.byte	0x1e
	.byte	0x7d
	.long	0x2736
	.uleb128 0x2a
	.byte	0x1e
	.byte	0x7e
	.long	0x275d
	.uleb128 0x2a
	.byte	0x1e
	.byte	0x80
	.long	0x2782
	.uleb128 0x2a
	.byte	0x1e
	.byte	0x81
	.long	0x27a7
	.uleb128 0x2a
	.byte	0x1e
	.byte	0x82
	.long	0x27b6
	.uleb128 0x2a
	.byte	0x1e
	.byte	0x83
	.long	0x27d7
	.uleb128 0x2a
	.byte	0x1e
	.byte	0x84
	.long	0x27ed
	.uleb128 0x2a
	.byte	0x1e
	.byte	0x85
	.long	0x2812
	.uleb128 0x2a
	.byte	0x1e
	.byte	0x86
	.long	0x2836
	.uleb128 0x2a
	.byte	0x1e
	.byte	0x87
	.long	0x285b
	.uleb128 0x2a
	.byte	0x1e
	.byte	0x89
	.long	0x2876
	.uleb128 0x2a
	.byte	0x1e
	.byte	0x8a
	.long	0x289d
	.uleb128 0x2a
	.byte	0x1e
	.byte	0xcb
	.long	0x853
	.uleb128 0x2a
	.byte	0x1e
	.byte	0xcd
	.long	0x2bdb
	.uleb128 0x2a
	.byte	0x1e
	.byte	0xce
	.long	0x28ce
	.uleb128 0x2a
	.byte	0x1e
	.byte	0xd0
	.long	0x2bf1
	.uleb128 0x2a
	.byte	0x1e
	.byte	0xd1
	.long	0x28f9
	.uleb128 0x2a
	.byte	0x1e
	.byte	0xd2
	.long	0x2b0a
	.uleb128 0x2a
	.byte	0x1e
	.byte	0xd4
	.long	0x2b29
	.uleb128 0x2a
	.byte	0x1e
	.byte	0xd5
	.long	0x2b8d
	.uleb128 0x2a
	.byte	0x1e
	.byte	0xd6
	.long	0x2b42
	.uleb128 0x2a
	.byte	0x1e
	.byte	0xd7
	.long	0x2b67
	.uleb128 0x2a
	.byte	0x1e
	.byte	0xd8
	.long	0x2bac
	.uleb128 0x2a
	.byte	0x20
	.byte	0x64
	.long	0x1b1
	.uleb128 0x2a
	.byte	0x20
	.byte	0x65
	.long	0x59d
	.uleb128 0x2a
	.byte	0x20
	.byte	0x67
	.long	0x2c0b
	.uleb128 0x2a
	.byte	0x20
	.byte	0x68
	.long	0x2c2a
	.uleb128 0x2a
	.byte	0x20
	.byte	0x69
	.long	0x2c44
	.uleb128 0x2a
	.byte	0x20
	.byte	0x6a
	.long	0x2c5d
	.uleb128 0x2a
	.byte	0x20
	.byte	0x6b
	.long	0x2c78
	.uleb128 0x2a
	.byte	0x20
	.byte	0x6c
	.long	0x2c92
	.uleb128 0x2a
	.byte	0x20
	.byte	0x6d
	.long	0x2cac
	.uleb128 0x2a
	.byte	0x20
	.byte	0x6e
	.long	0x2cde
	.uleb128 0x2a
	.byte	0x20
	.byte	0x6f
	.long	0x2d02
	.uleb128 0x2a
	.byte	0x20
	.byte	0x73
	.long	0x2d2a
	.uleb128 0x2a
	.byte	0x20
	.byte	0x74
	.long	0x2d53
	.uleb128 0x2a
	.byte	0x20
	.byte	0x76
	.long	0x2d84
	.uleb128 0x2a
	.byte	0x20
	.byte	0x77
	.long	0x2da8
	.uleb128 0x2a
	.byte	0x20
	.byte	0x78
	.long	0x2ddf
	.uleb128 0x2a
	.byte	0x20
	.byte	0x7a
	.long	0x2df9
	.uleb128 0x2a
	.byte	0x20
	.byte	0x7b
	.long	0x2e12
	.uleb128 0x2a
	.byte	0x20
	.byte	0x7c
	.long	0x2e24
	.uleb128 0x2a
	.byte	0x20
	.byte	0x7d
	.long	0x2e3d
	.uleb128 0x2a
	.byte	0x20
	.byte	0x7f
	.long	0x2e54
	.uleb128 0x2a
	.byte	0x20
	.byte	0x82
	.long	0x2e72
	.uleb128 0x2a
	.byte	0x20
	.byte	0x83
	.long	0x2e8c
	.uleb128 0x2a
	.byte	0x20
	.byte	0x84
	.long	0x2eab
	.uleb128 0x2a
	.byte	0x20
	.byte	0x86
	.long	0x2ec2
	.uleb128 0x2a
	.byte	0x20
	.byte	0x87
	.long	0x2ede
	.uleb128 0x2a
	.byte	0x20
	.byte	0x8a
	.long	0x2f09
	.uleb128 0x2a
	.byte	0x20
	.byte	0x8b
	.long	0x2f25
	.uleb128 0x2a
	.byte	0x20
	.byte	0x8c
	.long	0x2f3f
	.uleb128 0x2a
	.byte	0x20
	.byte	0xb3
	.long	0x2f5f
	.uleb128 0x2a
	.byte	0x20
	.byte	0xb4
	.long	0x2f87
	.uleb128 0x2a
	.byte	0x20
	.byte	0xb5
	.long	0x2fad
	.uleb128 0x2a
	.byte	0x20
	.byte	0xb6
	.long	0x2fcd
	.uleb128 0x2a
	.byte	0x20
	.byte	0xb7
	.long	0x2ffa
	.uleb128 0x2a
	.byte	0x27
	.byte	0x3a
	.long	0x3020
	.uleb128 0x2a
	.byte	0x27
	.byte	0x3b
	.long	0x3289
	.uleb128 0x2a
	.byte	0x27
	.byte	0x3c
	.long	0x32ab
	.uleb128 0x2a
	.byte	0x29
	.byte	0x43
	.long	0x32dd
	.uleb128 0x2a
	.byte	0x29
	.byte	0x44
	.long	0x32e8
	.uleb128 0x2a
	.byte	0x29
	.byte	0x45
	.long	0x62f
	.uleb128 0x2a
	.byte	0x29
	.byte	0x47
	.long	0x32f2
	.uleb128 0x2a
	.byte	0x29
	.byte	0x48
	.long	0x3301
	.uleb128 0x2a
	.byte	0x29
	.byte	0x49
	.long	0x3322
	.uleb128 0x2a
	.byte	0x29
	.byte	0x4a
	.long	0x3342
	.uleb128 0x2a
	.byte	0x29
	.byte	0x4b
	.long	0x3360
	.uleb128 0x2a
	.byte	0x29
	.byte	0x4c
	.long	0x3386
	.uleb128 0x2a
	.byte	0x29
	.byte	0x4d
	.long	0x33ab
	.uleb128 0x2a
	.byte	0x29
	.byte	0x4e
	.long	0x33c5
	.uleb128 0x2a
	.byte	0x29
	.byte	0x4f
	.long	0x33e2
	.uleb128 0x2a
	.byte	0x2b
	.byte	0x48
	.long	0x5b7
	.uleb128 0x2a
	.byte	0x2b
	.byte	0x90
	.long	0x340d
	.uleb128 0x2a
	.byte	0x2b
	.byte	0x92
	.long	0x3414
	.uleb128 0x2a
	.byte	0x2b
	.byte	0x93
	.long	0x342e
	.uleb128 0x2a
	.byte	0x2b
	.byte	0x94
	.long	0x344f
	.uleb128 0x2a
	.byte	0x2b
	.byte	0x95
	.long	0x3474
	.uleb128 0x2a
	.byte	0x2b
	.byte	0x96
	.long	0x3494
	.uleb128 0x2a
	.byte	0x2b
	.byte	0x97
	.long	0x34b4
	.uleb128 0x2a
	.byte	0x2b
	.byte	0x98
	.long	0x34d3
	.uleb128 0x2a
	.byte	0x2b
	.byte	0x99
	.long	0x34f6
	.uleb128 0x2a
	.byte	0x2b
	.byte	0x9a
	.long	0x3518
	.uleb128 0x2a
	.byte	0x2b
	.byte	0x9b
	.long	0x3532
	.uleb128 0x2a
	.byte	0x2b
	.byte	0x9c
	.long	0x3545
	.uleb128 0x2a
	.byte	0x2b
	.byte	0x9d
	.long	0x3570
	.uleb128 0x2a
	.byte	0x2b
	.byte	0x9e
	.long	0x359b
	.uleb128 0x2a
	.byte	0x2b
	.byte	0x9f
	.long	0x35c2
	.uleb128 0x2a
	.byte	0x2b
	.byte	0xa0
	.long	0x35f5
	.uleb128 0x2a
	.byte	0x2b
	.byte	0xa1
	.long	0x3614
	.uleb128 0x2a
	.byte	0x2b
	.byte	0xa2
	.long	0x3631
	.uleb128 0x2a
	.byte	0x2b
	.byte	0xa3
	.long	0x3659
	.uleb128 0x2a
	.byte	0x2b
	.byte	0xa4
	.long	0x367b
	.uleb128 0x2a
	.byte	0x2b
	.byte	0xa5
	.long	0x369c
	.uleb128 0x2a
	.byte	0x2b
	.byte	0xa7
	.long	0x36c4
	.uleb128 0x2a
	.byte	0x2b
	.byte	0xa9
	.long	0x36eb
	.uleb128 0x2a
	.byte	0x2b
	.byte	0xab
	.long	0x3718
	.uleb128 0x2a
	.byte	0x2b
	.byte	0xad
	.long	0x373f
	.uleb128 0x2a
	.byte	0x2b
	.byte	0xaf
	.long	0x3761
	.uleb128 0x2a
	.byte	0x2b
	.byte	0xb1
	.long	0x3782
	.uleb128 0x2a
	.byte	0x2b
	.byte	0xb2
	.long	0x37a8
	.uleb128 0x2a
	.byte	0x2b
	.byte	0xb3
	.long	0x37c7
	.uleb128 0x2a
	.byte	0x2b
	.byte	0xb4
	.long	0x37e6
	.uleb128 0x2a
	.byte	0x2b
	.byte	0xb5
	.long	0x3806
	.uleb128 0x2a
	.byte	0x2b
	.byte	0xb6
	.long	0x3825
	.uleb128 0x2a
	.byte	0x2b
	.byte	0xb7
	.long	0x3845
	.uleb128 0x2a
	.byte	0x2b
	.byte	0xb8
	.long	0x3871
	.uleb128 0x2a
	.byte	0x2b
	.byte	0xb9
	.long	0x388b
	.uleb128 0x2a
	.byte	0x2b
	.byte	0xba
	.long	0x38b0
	.uleb128 0x2a
	.byte	0x2b
	.byte	0xbb
	.long	0x38d5
	.uleb128 0x2a
	.byte	0x2b
	.byte	0xbc
	.long	0x38fa
	.uleb128 0x2a
	.byte	0x2b
	.byte	0xbd
	.long	0x392d
	.uleb128 0x2a
	.byte	0x2b
	.byte	0xbe
	.long	0x394c
	.uleb128 0x2a
	.byte	0x2b
	.byte	0xc0
	.long	0x3972
	.uleb128 0x2a
	.byte	0x2b
	.byte	0xc2
	.long	0x3992
	.uleb128 0x2a
	.byte	0x2b
	.byte	0xc3
	.long	0x39b6
	.uleb128 0x2a
	.byte	0x2b
	.byte	0xc4
	.long	0x39db
	.uleb128 0x2a
	.byte	0x2b
	.byte	0xc5
	.long	0x3a01
	.uleb128 0x2a
	.byte	0x2b
	.byte	0xc6
	.long	0x3a26
	.uleb128 0x2a
	.byte	0x2b
	.byte	0xc7
	.long	0x3a40
	.uleb128 0x2a
	.byte	0x2b
	.byte	0xc8
	.long	0x3a66
	.uleb128 0x2a
	.byte	0x2b
	.byte	0xc9
	.long	0x3a8c
	.uleb128 0x2a
	.byte	0x2b
	.byte	0xca
	.long	0x3ab3
	.uleb128 0x2a
	.byte	0x2b
	.byte	0xcb
	.long	0x3ad9
	.uleb128 0x2a
	.byte	0x2b
	.byte	0xcc
	.long	0x3af6
	.uleb128 0x2a
	.byte	0x2b
	.byte	0xce
	.long	0x3b12
	.uleb128 0x2a
	.byte	0x2b
	.byte	0xd4
	.long	0x3b31
	.uleb128 0x2a
	.byte	0x2b
	.byte	0xda
	.long	0x3b51
	.uleb128 0x2a
	.byte	0x2b
	.byte	0xe0
	.long	0x3b71
	.uleb128 0x2a
	.byte	0x2b
	.byte	0xe6
	.long	0x3b90
	.uleb128 0x2b
	.byte	0x2b
	.value	0x10a
	.long	0x3bb6
	.uleb128 0x2b
	.byte	0x2b
	.value	0x10b
	.long	0x3bd7
	.uleb128 0x2b
	.byte	0x2b
	.value	0x10c
	.long	0x3bfd
	.uleb128 0x16
	.string	"nothrow_t"
	.byte	0x1
	.uleb128 0x16
	.string	"allocator<char>"
	.byte	0x1
	.uleb128 0x16
	.string	"allocator<wchar_t>"
	.byte	0x1
	.uleb128 0x26
	.long	0x1e56
	.string	"float_denorm_style"
	.byte	0x4
	.byte	0x49
	.byte	0xab
	.uleb128 0x15
	.string	"denorm_indeterminate"
	.sleb128 -1
	.uleb128 0x15
	.string	"denorm_absent"
	.sleb128 0
	.uleb128 0x15
	.string	"denorm_present"
	.sleb128 1
	.byte	0x0
	.uleb128 0x2c
	.long	0x1eda
	.string	"basic_string<char,std::char_traits<char>,std::allocator<char> >"
	.byte	0x1
	.uleb128 0x2d
	.long	.LASF11
	.byte	0x4
	.byte	0x35
	.byte	0xff
	.uleb128 0x24
	.long	0x3ebc
	.byte	0x2
	.byte	0x23
	.uleb128 0x0
	.byte	0x1
	.uleb128 0x8
	.string	"_M_p"
	.byte	0x35
	.value	0x103
	.long	0x1a3
	.byte	0x2
	.byte	0x23
	.uleb128 0x0
	.uleb128 0x2e
	.byte	0x1
	.long	.LASF11
	.byte	0x35
	.value	0x100
	.byte	0x1
	.uleb128 0x1d
	.long	0x4220
	.byte	0x1
	.uleb128 0x18
	.long	0x1a3
	.uleb128 0x18
	.long	0x3f1b
	.byte	0x0
	.byte	0x0
	.byte	0x0
	.uleb128 0x16
	.string	"reverse_iterator<__gnu_cxx::__normal_iterator<const char*, std::basic_string<char, std::char_traits<char>, std::allocator<char> > > >"
	.byte	0x1
	.uleb128 0x16
	.string	"reverse_iterator<__gnu_cxx::__normal_iterator<char*, std::basic_string<char, std::char_traits<char>, std::allocator<char> > > >"
	.byte	0x1
	.uleb128 0x2c
	.long	0x2071
	.string	"basic_string<wchar_t,std::char_traits<wchar_t>,std::allocator<wchar_t> >"
	.byte	0x1
	.uleb128 0x2d
	.long	.LASF11
	.byte	0x4
	.byte	0x35
	.byte	0xff
	.uleb128 0x24
	.long	0x4198
	.byte	0x2
	.byte	0x23
	.uleb128 0x0
	.byte	0x1
	.uleb128 0x8
	.string	"_M_p"
	.byte	0x35
	.value	0x103
	.long	0xe6e
	.byte	0x2
	.byte	0x23
	.uleb128 0x0
	.uleb128 0x2e
	.byte	0x1
	.long	.LASF11
	.byte	0x35
	.value	0x100
	.byte	0x1
	.uleb128 0x1d
	.long	0x623a
	.byte	0x1
	.uleb128 0x18
	.long	0xe6e
	.uleb128 0x18
	.long	0x41f7
	.byte	0x0
	.byte	0x0
	.byte	0x0
	.uleb128 0x16
	.string	"reverse_iterator<__gnu_cxx::__normal_iterator<const wchar_t*, std::basic_string<wchar_t, std::char_traits<wchar_t>, std::allocator<wchar_t> > > >"
	.byte	0x1
	.uleb128 0x16
	.string	"reverse_iterator<__gnu_cxx::__normal_iterator<wchar_t*, std::basic_string<wchar_t, std::char_traits<wchar_t>, std::allocator<wchar_t> > > >"
	.byte	0x1
	.uleb128 0x2f
	.long	.LASF12
	.byte	0x1
	.uleb128 0x26
	.long	0x22c0
	.string	"_Ios_Fmtflags"
	.byte	0x4
	.byte	0x31
	.byte	0x37
	.uleb128 0x15
	.string	"_S_boolalpha"
	.sleb128 1
	.uleb128 0x15
	.string	"_S_dec"
	.sleb128 2
	.uleb128 0x15
	.string	"_S_fixed"
	.sleb128 4
	.uleb128 0x15
	.string	"_S_hex"
	.sleb128 8
	.uleb128 0x15
	.string	"_S_internal"
	.sleb128 16
	.uleb128 0x15
	.string	"_S_left"
	.sleb128 32
	.uleb128 0x15
	.string	"_S_oct"
	.sleb128 64
	.uleb128 0x15
	.string	"_S_right"
	.sleb128 128
	.uleb128 0x15
	.string	"_S_scientific"
	.sleb128 256
	.uleb128 0x15
	.string	"_S_showbase"
	.sleb128 512
	.uleb128 0x15
	.string	"_S_showpoint"
	.sleb128 1024
	.uleb128 0x15
	.string	"_S_showpos"
	.sleb128 2048
	.uleb128 0x15
	.string	"_S_skipws"
	.sleb128 4096
	.uleb128 0x15
	.string	"_S_unitbuf"
	.sleb128 8192
	.uleb128 0x15
	.string	"_S_uppercase"
	.sleb128 16384
	.uleb128 0x15
	.string	"_S_adjustfield"
	.sleb128 176
	.uleb128 0x15
	.string	"_S_basefield"
	.sleb128 74
	.uleb128 0x15
	.string	"_S_floatfield"
	.sleb128 260
	.uleb128 0x15
	.string	"_S_ios_fmtflags_end"
	.sleb128 65536
	.byte	0x0
	.uleb128 0x26
	.long	0x2326
	.string	"_Ios_Openmode"
	.byte	0x4
	.byte	0x31
	.byte	0x6b
	.uleb128 0x15
	.string	"_S_app"
	.sleb128 1
	.uleb128 0x15
	.string	"_S_ate"
	.sleb128 2
	.uleb128 0x15
	.string	"_S_bin"
	.sleb128 4
	.uleb128 0x15
	.string	"_S_in"
	.sleb128 8
	.uleb128 0x15
	.string	"_S_out"
	.sleb128 16
	.uleb128 0x15
	.string	"_S_trunc"
	.sleb128 32
	.uleb128 0x15
	.string	"_S_ios_openmode_end"
	.sleb128 65536
	.byte	0x0
	.uleb128 0x26
	.long	0x2385
	.string	"_Ios_Iostate"
	.byte	0x4
	.byte	0x31
	.byte	0x93
	.uleb128 0x15
	.string	"_S_goodbit"
	.sleb128 0
	.uleb128 0x15
	.string	"_S_badbit"
	.sleb128 1
	.uleb128 0x15
	.string	"_S_eofbit"
	.sleb128 2
	.uleb128 0x15
	.string	"_S_failbit"
	.sleb128 4
	.uleb128 0x15
	.string	"_S_ios_iostate_end"
	.sleb128 65536
	.byte	0x0
	.uleb128 0x26
	.long	0x23cd
	.string	"_Ios_Seekdir"
	.byte	0x4
	.byte	0x31
	.byte	0xb8
	.uleb128 0x15
	.string	"_S_beg"
	.sleb128 0
	.uleb128 0x15
	.string	"_S_cur"
	.sleb128 1
	.uleb128 0x15
	.string	"_S_end"
	.sleb128 2
	.uleb128 0x15
	.string	"_S_ios_seekdir_end"
	.sleb128 65536
	.byte	0x0
	.uleb128 0x2c
	.long	0x2493
	.string	"ios_base"
	.byte	0x1
	.uleb128 0x30
	.string	"Init"
	.byte	0x1
	.byte	0x31
	.value	0x213
	.uleb128 0x31
	.long	.LASF13
	.byte	0x31
	.value	0x21a
	.string	"_ZNSt8ios_base4Init11_S_refcountE"
	.long	0x420c
	.byte	0x1
	.byte	0x3
	.byte	0x1
	.uleb128 0x32
	.string	"_S_synced_with_stdio"
	.byte	0x31
	.value	0x21b
	.string	"_ZNSt8ios_base4Init20_S_synced_with_stdioE"
	.long	0xb5a
	.byte	0x1
	.byte	0x3
	.byte	0x1
	.uleb128 0x33
	.long	0x2478
	.byte	0x1
	.string	"Init"
	.byte	0x31
	.value	0x216
	.byte	0x1
	.uleb128 0x1d
	.long	0x1a659
	.byte	0x1
	.byte	0x0
	.uleb128 0x34
	.byte	0x1
	.string	"~Init"
	.byte	0x31
	.value	0x217
	.byte	0x1
	.uleb128 0x1d
	.long	0x1a659
	.byte	0x1
	.uleb128 0x1d
	.long	0x9a
	.byte	0x1
	.byte	0x0
	.byte	0x0
	.byte	0x0
	.uleb128 0x2a
	.byte	0x2c
	.byte	0x51
	.long	0x1a65f
	.uleb128 0x2a
	.byte	0x2c
	.byte	0x53
	.long	0x1a666
	.uleb128 0x2a
	.byte	0x2c
	.byte	0x54
	.long	0x5f6
	.uleb128 0x2a
	.byte	0x2c
	.byte	0x5c
	.long	0x1a66d
	.uleb128 0x2a
	.byte	0x2c
	.byte	0x65
	.long	0x1a68e
	.uleb128 0x2a
	.byte	0x2c
	.byte	0x68
	.long	0x1a6b0
	.uleb128 0x2a
	.byte	0x2c
	.byte	0x69
	.long	0x1a6cb
	.uleb128 0x2c
	.long	0x24f5
	.string	"money_base"
	.byte	0x1
	.uleb128 0x30
	.string	"pattern"
	.byte	0x4
	.byte	0x52
	.value	0xd97
	.uleb128 0x8
	.string	"field"
	.byte	0x52
	.value	0xd97
	.long	0x4a5
	.byte	0x2
	.byte	0x23
	.uleb128 0x0
	.byte	0x0
	.byte	0x0
	.uleb128 0x16
	.string	"basic_ostream<char,std::char_traits<char> >"
	.byte	0x1
	.uleb128 0x35
	.string	"nothrow"
	.byte	0x2e
	.byte	0x41
	.long	.LASF14
	.long	0x1edec
	.byte	0x1
	.byte	0x1
	.uleb128 0x35
	.string	"cout"
	.byte	0x12
	.byte	0x3f
	.long	.LASF15
	.long	0x1ab93
	.byte	0x1
	.byte	0x1
	.uleb128 0x36
	.string	"__ioinit"
	.byte	0x12
	.byte	0x4c
	.long	0x23dc
	.byte	0x1
	.byte	0x0
	.uleb128 0x4
	.long	.LASF3
	.byte	0x4
	.byte	0x5
	.uleb128 0x2
	.string	"size_t"
	.byte	0x4
	.byte	0x7
	.uleb128 0x37
	.long	0x258d
	.byte	0x1
	.string	"strcoll"
	.byte	0x1c
	.byte	0x6b
	.long	0x9a
	.byte	0x1
	.uleb128 0x18
	.long	0x583
	.uleb128 0x18
	.long	0x583
	.byte	0x0
	.uleb128 0x37
	.long	0x25b2
	.byte	0x1
	.string	"strxfrm"
	.byte	0x1c
	.byte	0x6f
	.long	0xa1
	.byte	0x1
	.uleb128 0x18
	.long	0x1a3
	.uleb128 0x18
	.long	0x583
	.uleb128 0x18
	.long	0xa1
	.byte	0x0
	.uleb128 0x37
	.long	0x25d1
	.byte	0x1
	.string	"strtok"
	.byte	0x1c
	.byte	0xc8
	.long	0x1a3
	.byte	0x1
	.uleb128 0x18
	.long	0x1a3
	.uleb128 0x18
	.long	0x583
	.byte	0x0
	.uleb128 0x38
	.long	0x25ee
	.byte	0x1
	.string	"strerror"
	.byte	0x1c
	.value	0x100
	.long	0x1a3
	.byte	0x1
	.uleb128 0x18
	.long	0x9a
	.byte	0x0
	.uleb128 0x37
	.long	0x2612
	.byte	0x1
	.string	"memchr"
	.byte	0x1c
	.byte	0x43
	.long	0x1a1
	.byte	0x1
	.uleb128 0x18
	.long	0x8c4
	.uleb128 0x18
	.long	0x9a
	.uleb128 0x18
	.long	0xa1
	.byte	0x0
	.uleb128 0x38
	.long	0x262d
	.byte	0x1
	.string	"atexit"
	.byte	0x1f
	.value	0x205
	.long	0x9a
	.byte	0x1
	.uleb128 0x18
	.long	0x262d
	.byte	0x0
	.uleb128 0x6
	.byte	0x4
	.long	0x2633
	.uleb128 0x39
	.uleb128 0x37
	.long	0x264c
	.byte	0x1
	.string	"atof"
	.byte	0x1f
	.byte	0x92
	.long	0x765
	.byte	0x1
	.uleb128 0x18
	.long	0x583
	.byte	0x0
	.uleb128 0x37
	.long	0x2664
	.byte	0x1
	.string	"atoi"
	.byte	0x1f
	.byte	0x95
	.long	0x9a
	.byte	0x1
	.uleb128 0x18
	.long	0x583
	.byte	0x0
	.uleb128 0x37
	.long	0x267c
	.byte	0x1
	.string	"atol"
	.byte	0x1f
	.byte	0x98
	.long	0x15c
	.byte	0x1
	.uleb128 0x18
	.long	0x583
	.byte	0x0
	.uleb128 0x38
	.long	0x26ac
	.byte	0x1
	.string	"bsearch"
	.byte	0x1f
	.value	0x2aa
	.long	0x1a1
	.byte	0x1
	.uleb128 0x18
	.long	0x8c4
	.uleb128 0x18
	.long	0x8c4
	.uleb128 0x18
	.long	0xa1
	.uleb128 0x18
	.long	0xa1
	.uleb128 0x18
	.long	0x894
	.byte	0x0
	.uleb128 0x38
	.long	0x26c9
	.byte	0x1
	.string	"div"
	.byte	0x1f
	.value	0x2c2
	.long	0x7fd
	.byte	0x1
	.uleb128 0x18
	.long	0x9a
	.uleb128 0x18
	.long	0x9a
	.byte	0x0
	.uleb128 0x33
	.long	0x26de
	.byte	0x1
	.string	"free"
	.byte	0x1f
	.value	0x1e8
	.byte	0x1
	.uleb128 0x18
	.long	0x1a1
	.byte	0x0
	.uleb128 0x38
	.long	0x26f9
	.byte	0x1
	.string	"getenv"
	.byte	0x1f
	.value	0x221
	.long	0x1a3
	.byte	0x1
	.uleb128 0x18
	.long	0x583
	.byte	0x0
	.uleb128 0x38
	.long	0x2717
	.byte	0x1
	.string	"ldiv"
	.byte	0x1f
	.value	0x2c4
	.long	0x828
	.byte	0x1
	.uleb128 0x18
	.long	0x15c
	.uleb128 0x18
	.long	0x15c
	.byte	0x0
	.uleb128 0x38
	.long	0x2736
	.byte	0x1
	.string	"mblen"
	.byte	0x1f
	.value	0x30b
	.long	0x9a
	.byte	0x1
	.uleb128 0x18
	.long	0x583
	.uleb128 0x18
	.long	0xa1
	.byte	0x0
	.uleb128 0x38
	.long	0x275d
	.byte	0x1
	.string	"mbstowcs"
	.byte	0x1f
	.value	0x317
	.long	0xa1
	.byte	0x1
	.uleb128 0x18
	.long	0xe6e
	.uleb128 0x18
	.long	0x583
	.uleb128 0x18
	.long	0xa1
	.byte	0x0
	.uleb128 0x38
	.long	0x2782
	.byte	0x1
	.string	"mbtowc"
	.byte	0x1f
	.value	0x30f
	.long	0x9a
	.byte	0x1
	.uleb128 0x18
	.long	0xe6e
	.uleb128 0x18
	.long	0x583
	.uleb128 0x18
	.long	0xa1
	.byte	0x0
	.uleb128 0x33
	.long	0x27a7
	.byte	0x1
	.string	"qsort"
	.byte	0x1f
	.value	0x2af
	.byte	0x1
	.uleb128 0x18
	.long	0x1a1
	.uleb128 0x18
	.long	0xa1
	.uleb128 0x18
	.long	0xa1
	.uleb128 0x18
	.long	0x894
	.byte	0x0
	.uleb128 0x3a
	.byte	0x1
	.string	"rand"
	.byte	0x1f
	.value	0x17c
	.long	0x9a
	.byte	0x1
	.uleb128 0x38
	.long	0x27d7
	.byte	0x1
	.string	"realloc"
	.byte	0x1f
	.value	0x1e6
	.long	0x1a1
	.byte	0x1
	.uleb128 0x18
	.long	0x1a1
	.uleb128 0x18
	.long	0xa1
	.byte	0x0
	.uleb128 0x33
	.long	0x27ed
	.byte	0x1
	.string	"srand"
	.byte	0x1f
	.value	0x17e
	.byte	0x1
	.uleb128 0x18
	.long	0xaf
	.byte	0x0
	.uleb128 0x37
	.long	0x280c
	.byte	0x1
	.string	"strtod"
	.byte	0x1f
	.byte	0xa7
	.long	0x765
	.byte	0x1
	.uleb128 0x18
	.long	0x583
	.uleb128 0x18
	.long	0x280c
	.byte	0x0
	.uleb128 0x6
	.byte	0x4
	.long	0x1a3
	.uleb128 0x37
	.long	0x2836
	.byte	0x1
	.string	"strtol"
	.byte	0x1f
	.byte	0xba
	.long	0x15c
	.byte	0x1
	.uleb128 0x18
	.long	0x583
	.uleb128 0x18
	.long	0x280c
	.uleb128 0x18
	.long	0x9a
	.byte	0x0
	.uleb128 0x37
	.long	0x285b
	.byte	0x1
	.string	"strtoul"
	.byte	0x1f
	.byte	0xbe
	.long	0xdd
	.byte	0x1
	.uleb128 0x18
	.long	0x583
	.uleb128 0x18
	.long	0x280c
	.uleb128 0x18
	.long	0x9a
	.byte	0x0
	.uleb128 0x38
	.long	0x2876
	.byte	0x1
	.string	"system"
	.byte	0x1f
	.value	0x285
	.long	0x9a
	.byte	0x1
	.uleb128 0x18
	.long	0x583
	.byte	0x0
	.uleb128 0x38
	.long	0x289d
	.byte	0x1
	.string	"wcstombs"
	.byte	0x1f
	.value	0x31b
	.long	0xa1
	.byte	0x1
	.uleb128 0x18
	.long	0x1a3
	.uleb128 0x18
	.long	0xe7a
	.uleb128 0x18
	.long	0xa1
	.byte	0x0
	.uleb128 0x38
	.long	0x28bd
	.byte	0x1
	.string	"wctomb"
	.byte	0x1f
	.value	0x312
	.long	0x9a
	.byte	0x1
	.uleb128 0x18
	.long	0x1a3
	.uleb128 0x18
	.long	0x5e0
	.byte	0x0
	.uleb128 0x27
	.long	0x2b0a
	.string	"__gnu_cxx"
	.byte	0x1e
	.byte	0xa0
	.uleb128 0x1f
	.long	0x28f9
	.byte	0x1
	.string	"abs"
	.byte	0x1e
	.byte	0xac
	.string	"_ZN9__gnu_cxx3absEx"
	.long	0x112
	.byte	0x1
	.uleb128 0x18
	.long	0x112
	.byte	0x0
	.uleb128 0x1f
	.long	0x292a
	.byte	0x1
	.string	"div"
	.byte	0x1e
	.byte	0xb2
	.string	"_ZN9__gnu_cxx3divExx"
	.long	0x853
	.byte	0x1
	.uleb128 0x18
	.long	0x112
	.uleb128 0x18
	.long	0x112
	.byte	0x0
	.uleb128 0x16
	.string	"new_allocator<char>"
	.byte	0x1
	.uleb128 0x16
	.string	"new_allocator<wchar_t>"
	.byte	0x1
	.uleb128 0x16
	.string	"__normal_iterator<char*,std::basic_string<char, std::char_traits<char>, std::allocator<char> > >"
	.byte	0x1
	.uleb128 0x16
	.string	"__normal_iterator<const char*,std::basic_string<char, std::char_traits<char>, std::allocator<char> > >"
	.byte	0x1
	.uleb128 0x16
	.string	"__normal_iterator<wchar_t*,std::basic_string<wchar_t, std::char_traits<wchar_t>, std::allocator<wchar_t> > >"
	.byte	0x1
	.uleb128 0x16
	.string	"__normal_iterator<const wchar_t*,std::basic_string<wchar_t, std::char_traits<wchar_t>, std::allocator<wchar_t> > >"
	.byte	0x1
	.byte	0x0
	.uleb128 0x38
	.long	0x2b29
	.byte	0x1
	.string	"lldiv"
	.byte	0x1f
	.value	0x2cb
	.long	0x853
	.byte	0x1
	.uleb128 0x18
	.long	0x112
	.uleb128 0x18
	.long	0x112
	.byte	0x0
	.uleb128 0x37
	.long	0x2b42
	.byte	0x1
	.string	"atoll"
	.byte	0x1f
	.byte	0x9f
	.long	0x112
	.byte	0x1
	.uleb128 0x18
	.long	0x583
	.byte	0x0
	.uleb128 0x37
	.long	0x2b67
	.byte	0x1
	.string	"strtoll"
	.byte	0x1f
	.byte	0xd4
	.long	0x112
	.byte	0x1
	.uleb128 0x18
	.long	0x583
	.uleb128 0x18
	.long	0x280c
	.uleb128 0x18
	.long	0x9a
	.byte	0x0
	.uleb128 0x37
	.long	0x2b8d
	.byte	0x1
	.string	"strtoull"
	.byte	0x1f
	.byte	0xd9
	.long	0x123
	.byte	0x1
	.uleb128 0x18
	.long	0x583
	.uleb128 0x18
	.long	0x280c
	.uleb128 0x18
	.long	0x9a
	.byte	0x0
	.uleb128 0x37
	.long	0x2bac
	.byte	0x1
	.string	"strtof"
	.byte	0x1f
	.byte	0xae
	.long	0x75c
	.byte	0x1
	.uleb128 0x18
	.long	0x583
	.uleb128 0x18
	.long	0x280c
	.byte	0x0
	.uleb128 0x37
	.long	0x2bcc
	.byte	0x1
	.string	"strtold"
	.byte	0x1f
	.byte	0xb2
	.long	0x2bcc
	.byte	0x1
	.uleb128 0x18
	.long	0x583
	.uleb128 0x18
	.long	0x280c
	.byte	0x0
	.uleb128 0x2
	.string	"long double"
	.byte	0xc
	.byte	0x4
	.uleb128 0x33
	.long	0x2bf1
	.byte	0x1
	.string	"_Exit"
	.byte	0x1f
	.value	0x21a
	.byte	0x1
	.uleb128 0x18
	.long	0x9a
	.byte	0x0
	.uleb128 0x38
	.long	0x2c0b
	.byte	0x1
	.string	"llabs"
	.byte	0x1f
	.value	0x2b9
	.long	0x112
	.byte	0x1
	.uleb128 0x18
	.long	0x112
	.byte	0x0
	.uleb128 0x33
	.long	0x2c24
	.byte	0x1
	.string	"clearerr"
	.byte	0x21
	.value	0x31d
	.byte	0x1
	.uleb128 0x18
	.long	0x2c24
	.byte	0x0
	.uleb128 0x6
	.byte	0x4
	.long	0x1b1
	.uleb128 0x37
	.long	0x2c44
	.byte	0x1
	.string	"fclose"
	.byte	0x21
	.byte	0xd8
	.long	0x9a
	.byte	0x1
	.uleb128 0x18
	.long	0x2c24
	.byte	0x0
	.uleb128 0x38
	.long	0x2c5d
	.byte	0x1
	.string	"feof"
	.byte	0x21
	.value	0x31f
	.long	0x9a
	.byte	0x1
	.uleb128 0x18
	.long	0x2c24
	.byte	0x0
	.uleb128 0x38
	.long	0x2c78
	.byte	0x1
	.string	"ferror"
	.byte	0x21
	.value	0x321
	.long	0x9a
	.byte	0x1
	.uleb128 0x18
	.long	0x2c24
	.byte	0x0
	.uleb128 0x37
	.long	0x2c92
	.byte	0x1
	.string	"fflush"
	.byte	0x21
	.byte	0xdd
	.long	0x9a
	.byte	0x1
	.uleb128 0x18
	.long	0x2c24
	.byte	0x0
	.uleb128 0x38
	.long	0x2cac
	.byte	0x1
	.string	"fgetc"
	.byte	0x21
	.value	0x1ff
	.long	0x9a
	.byte	0x1
	.uleb128 0x18
	.long	0x2c24
	.byte	0x0
	.uleb128 0x3b
	.long	0x2cd8
	.byte	0x1
	.string	"fgetpos"
	.byte	0x21
	.value	0x309
	.string	"*fgetpos64"
	.long	0x9a
	.byte	0x1
	.uleb128 0x18
	.long	0x2c24
	.uleb128 0x18
	.long	0x2cd8
	.byte	0x0
	.uleb128 0x6
	.byte	0x4
	.long	0x59d
	.uleb128 0x38
	.long	0x2d02
	.byte	0x1
	.string	"fgets"
	.byte	0x21
	.value	0x25a
	.long	0x1a3
	.byte	0x1
	.uleb128 0x18
	.long	0x1a3
	.uleb128 0x18
	.long	0x9a
	.uleb128 0x18
	.long	0x2c24
	.byte	0x0
	.uleb128 0x3b
	.long	0x2d2a
	.byte	0x1
	.string	"fopen"
	.byte	0x21
	.value	0x106
	.string	"*fopen64"
	.long	0x2c24
	.byte	0x1
	.uleb128 0x18
	.long	0x583
	.uleb128 0x18
	.long	0x583
	.byte	0x0
	.uleb128 0x38
	.long	0x2d53
	.byte	0x1
	.string	"fread"
	.byte	0x21
	.value	0x2a9
	.long	0xa1
	.byte	0x1
	.uleb128 0x18
	.long	0x1a1
	.uleb128 0x18
	.long	0xa1
	.uleb128 0x18
	.long	0xa1
	.uleb128 0x18
	.long	0x2c24
	.byte	0x0
	.uleb128 0x3b
	.long	0x2d84
	.byte	0x1
	.string	"freopen"
	.byte	0x21
	.value	0x109
	.string	"*freopen64"
	.long	0x2c24
	.byte	0x1
	.uleb128 0x18
	.long	0x583
	.uleb128 0x18
	.long	0x583
	.uleb128 0x18
	.long	0x2c24
	.byte	0x0
	.uleb128 0x38
	.long	0x2da8
	.byte	0x1
	.string	"fseek"
	.byte	0x21
	.value	0x2d0
	.long	0x9a
	.byte	0x1
	.uleb128 0x18
	.long	0x2c24
	.uleb128 0x18
	.long	0x15c
	.uleb128 0x18
	.long	0x9a
	.byte	0x0
	.uleb128 0x3b
	.long	0x2dd4
	.byte	0x1
	.string	"fsetpos"
	.byte	0x21
	.value	0x30b
	.string	"*fsetpos64"
	.long	0x9a
	.byte	0x1
	.uleb128 0x18
	.long	0x2c24
	.uleb128 0x18
	.long	0x2dd4
	.byte	0x0
	.uleb128 0x6
	.byte	0x4
	.long	0x2dda
	.uleb128 0x10
	.long	0x59d
	.uleb128 0x38
	.long	0x2df9
	.byte	0x1
	.string	"ftell"
	.byte	0x21
	.value	0x2d5
	.long	0x15c
	.byte	0x1
	.uleb128 0x18
	.long	0x2c24
	.byte	0x0
	.uleb128 0x38
	.long	0x2e12
	.byte	0x1
	.string	"getc"
	.byte	0x21
	.value	0x200
	.long	0x9a
	.byte	0x1
	.uleb128 0x18
	.long	0x2c24
	.byte	0x0
	.uleb128 0x3a
	.byte	0x1
	.string	"getchar"
	.byte	0x21
	.value	0x206
	.long	0x9a
	.byte	0x1
	.uleb128 0x38
	.long	0x2e3d
	.byte	0x1
	.string	"gets"
	.byte	0x21
	.value	0x262
	.long	0x1a3
	.byte	0x1
	.uleb128 0x18
	.long	0x1a3
	.byte	0x0
	.uleb128 0x33
	.long	0x2e54
	.byte	0x1
	.string	"perror"
	.byte	0x21
	.value	0x331
	.byte	0x1
	.uleb128 0x18
	.long	0x583
	.byte	0x0
	.uleb128 0x38
	.long	0x2e72
	.byte	0x1
	.string	"putc"
	.byte	0x21
	.value	0x22a
	.long	0x9a
	.byte	0x1
	.uleb128 0x18
	.long	0x9a
	.uleb128 0x18
	.long	0x2c24
	.byte	0x0
	.uleb128 0x37
	.long	0x2e8c
	.byte	0x1
	.string	"remove"
	.byte	0x21
	.byte	0x9d
	.long	0x9a
	.byte	0x1
	.uleb128 0x18
	.long	0x583
	.byte	0x0
	.uleb128 0x37
	.long	0x2eab
	.byte	0x1
	.string	"rename"
	.byte	0x21
	.byte	0x9f
	.long	0x9a
	.byte	0x1
	.uleb128 0x18
	.long	0x583
	.uleb128 0x18
	.long	0x583
	.byte	0x0
	.uleb128 0x33
	.long	0x2ec2
	.byte	0x1
	.string	"rewind"
	.byte	0x21
	.value	0x2da
	.byte	0x1
	.uleb128 0x18
	.long	0x2c24
	.byte	0x0
	.uleb128 0x33
	.long	0x2ede
	.byte	0x1
	.string	"setbuf"
	.byte	0x21
	.value	0x135
	.byte	0x1
	.uleb128 0x18
	.long	0x2c24
	.uleb128 0x18
	.long	0x1a3
	.byte	0x0
	.uleb128 0x38
	.long	0x2f09
	.byte	0x1
	.string	"setvbuf"
	.byte	0x21
	.value	0x13a
	.long	0x9a
	.byte	0x1
	.uleb128 0x18
	.long	0x2c24
	.uleb128 0x18
	.long	0x1a3
	.uleb128 0x18
	.long	0x9a
	.uleb128 0x18
	.long	0xa1
	.byte	0x0
	.uleb128 0x3c
	.byte	0x1
	.string	"tmpfile"
	.byte	0x21
	.byte	0xb1
	.string	"*tmpfile64"
	.long	0x2c24
	.byte	0x1
	.uleb128 0x37
	.long	0x2f3f
	.byte	0x1
	.string	"tmpnam"
	.byte	0x21
	.byte	0xbc
	.long	0x1a3
	.byte	0x1
	.uleb128 0x18
	.long	0x1a3
	.byte	0x0
	.uleb128 0x38
	.long	0x2f5f
	.byte	0x1
	.string	"ungetc"
	.byte	0x21
	.value	0x2a1
	.long	0x9a
	.byte	0x1
	.uleb128 0x18
	.long	0x9a
	.uleb128 0x18
	.long	0x2c24
	.byte	0x0
	.uleb128 0x38
	.long	0x2f87
	.byte	0x1
	.string	"snprintf"
	.byte	0x21
	.value	0x16d
	.long	0x9a
	.byte	0x1
	.uleb128 0x18
	.long	0x1a3
	.uleb128 0x18
	.long	0xa1
	.uleb128 0x18
	.long	0x583
	.uleb128 0x3d
	.byte	0x0
	.uleb128 0x38
	.long	0x2fad
	.byte	0x1
	.string	"vfscanf"
	.byte	0x21
	.value	0x1c5
	.long	0x9a
	.byte	0x1
	.uleb128 0x18
	.long	0x2c24
	.uleb128 0x18
	.long	0x583
	.uleb128 0x18
	.long	0x4e4
	.byte	0x0
	.uleb128 0x38
	.long	0x2fcd
	.byte	0x1
	.string	"vscanf"
	.byte	0x21
	.value	0x1cc
	.long	0x9a
	.byte	0x1
	.uleb128 0x18
	.long	0x583
	.uleb128 0x18
	.long	0x4e4
	.byte	0x0
	.uleb128 0x38
	.long	0x2ffa
	.byte	0x1
	.string	"vsnprintf"
	.byte	0x21
	.value	0x171
	.long	0x9a
	.byte	0x1
	.uleb128 0x18
	.long	0x1a3
	.uleb128 0x18
	.long	0xa1
	.uleb128 0x18
	.long	0x583
	.uleb128 0x18
	.long	0x4e4
	.byte	0x0
	.uleb128 0x38
	.long	0x3020
	.byte	0x1
	.string	"vsscanf"
	.byte	0x21
	.value	0x1d1
	.long	0x9a
	.byte	0x1
	.uleb128 0x18
	.long	0x583
	.uleb128 0x18
	.long	0x583
	.uleb128 0x18
	.long	0x4e4
	.byte	0x0
	.uleb128 0x9
	.long	0x3289
	.string	"lconv"
	.byte	0x38
	.byte	0x28
	.byte	0x37
	.uleb128 0xc
	.string	"decimal_point"
	.byte	0x28
	.byte	0x3a
	.long	0x1a3
	.byte	0x2
	.byte	0x23
	.uleb128 0x0
	.uleb128 0xc
	.string	"thousands_sep"
	.byte	0x28
	.byte	0x3b
	.long	0x1a3
	.byte	0x2
	.byte	0x23
	.uleb128 0x4
	.uleb128 0xc
	.string	"grouping"
	.byte	0x28
	.byte	0x41
	.long	0x1a3
	.byte	0x2
	.byte	0x23
	.uleb128 0x8
	.uleb128 0xc
	.string	"int_curr_symbol"
	.byte	0x28
	.byte	0x47
	.long	0x1a3
	.byte	0x2
	.byte	0x23
	.uleb128 0xc
	.uleb128 0xc
	.string	"currency_symbol"
	.byte	0x28
	.byte	0x48
	.long	0x1a3
	.byte	0x2
	.byte	0x23
	.uleb128 0x10
	.uleb128 0xc
	.string	"mon_decimal_point"
	.byte	0x28
	.byte	0x49
	.long	0x1a3
	.byte	0x2
	.byte	0x23
	.uleb128 0x14
	.uleb128 0xc
	.string	"mon_thousands_sep"
	.byte	0x28
	.byte	0x4a
	.long	0x1a3
	.byte	0x2
	.byte	0x23
	.uleb128 0x18
	.uleb128 0xc
	.string	"mon_grouping"
	.byte	0x28
	.byte	0x4b
	.long	0x1a3
	.byte	0x2
	.byte	0x23
	.uleb128 0x1c
	.uleb128 0xc
	.string	"positive_sign"
	.byte	0x28
	.byte	0x4c
	.long	0x1a3
	.byte	0x2
	.byte	0x23
	.uleb128 0x20
	.uleb128 0xc
	.string	"negative_sign"
	.byte	0x28
	.byte	0x4d
	.long	0x1a3
	.byte	0x2
	.byte	0x23
	.uleb128 0x24
	.uleb128 0xc
	.string	"int_frac_digits"
	.byte	0x28
	.byte	0x4e
	.long	0x1a9
	.byte	0x2
	.byte	0x23
	.uleb128 0x28
	.uleb128 0xc
	.string	"frac_digits"
	.byte	0x28
	.byte	0x4f
	.long	0x1a9
	.byte	0x2
	.byte	0x23
	.uleb128 0x29
	.uleb128 0xc
	.string	"p_cs_precedes"
	.byte	0x28
	.byte	0x51
	.long	0x1a9
	.byte	0x2
	.byte	0x23
	.uleb128 0x2a
	.uleb128 0xc
	.string	"p_sep_by_space"
	.byte	0x28
	.byte	0x53
	.long	0x1a9
	.byte	0x2
	.byte	0x23
	.uleb128 0x2b
	.uleb128 0xc
	.string	"n_cs_precedes"
	.byte	0x28
	.byte	0x55
	.long	0x1a9
	.byte	0x2
	.byte	0x23
	.uleb128 0x2c
	.uleb128 0xc
	.string	"n_sep_by_space"
	.byte	0x28
	.byte	0x57
	.long	0x1a9
	.byte	0x2
	.byte	0x23
	.uleb128 0x2d
	.uleb128 0xc
	.string	"p_sign_posn"
	.byte	0x28
	.byte	0x5e
	.long	0x1a9
	.byte	0x2
	.byte	0x23
	.uleb128 0x2e
	.uleb128 0xc
	.string	"n_sign_posn"
	.byte	0x28
	.byte	0x5f
	.long	0x1a9
	.byte	0x2
	.byte	0x23
	.uleb128 0x2f
	.uleb128 0xc
	.string	"int_p_cs_precedes"
	.byte	0x28
	.byte	0x62
	.long	0x1a9
	.byte	0x2
	.byte	0x23
	.uleb128 0x30
	.uleb128 0xc
	.string	"int_p_sep_by_space"
	.byte	0x28
	.byte	0x64
	.long	0x1a9
	.byte	0x2
	.byte	0x23
	.uleb128 0x31
	.uleb128 0xc
	.string	"int_n_cs_precedes"
	.byte	0x28
	.byte	0x66
	.long	0x1a9
	.byte	0x2
	.byte	0x23
	.uleb128 0x32
	.uleb128 0xc
	.string	"int_n_sep_by_space"
	.byte	0x28
	.byte	0x68
	.long	0x1a9
	.byte	0x2
	.byte	0x23
	.uleb128 0x33
	.uleb128 0xc
	.string	"int_p_sign_posn"
	.byte	0x28
	.byte	0x6f
	.long	0x1a9
	.byte	0x2
	.byte	0x23
	.uleb128 0x34
	.uleb128 0xc
	.string	"int_n_sign_posn"
	.byte	0x28
	.byte	0x70
	.long	0x1a9
	.byte	0x2
	.byte	0x23
	.uleb128 0x35
	.byte	0x0
	.uleb128 0x37
	.long	0x32ab
	.byte	0x1
	.string	"setlocale"
	.byte	0x28
	.byte	0x7d
	.long	0x1a3
	.byte	0x1
	.uleb128 0x18
	.long	0x9a
	.uleb128 0x18
	.long	0x583
	.byte	0x0
	.uleb128 0x3e
	.byte	0x1
	.string	"localeconv"
	.byte	0x28
	.byte	0x80
	.long	0x32bf
	.byte	0x1
	.uleb128 0x6
	.byte	0x4
	.long	0x3020
	.uleb128 0x3
	.string	"__gthread_once_t"
	.byte	0x4e
	.byte	0x2f
	.long	0x87e
	.uleb128 0x2
	.string	"clock_t"
	.byte	0x4
	.byte	0x5
	.uleb128 0x2
	.string	"time_t"
	.byte	0x4
	.byte	0x5
	.uleb128 0x3e
	.byte	0x1
	.string	"clock"
	.byte	0x2a
	.byte	0xb8
	.long	0x612
	.byte	0x1
	.uleb128 0x37
	.long	0x3322
	.byte	0x1
	.string	"difftime"
	.byte	0x2a
	.byte	0xbf
	.long	0x765
	.byte	0x1
	.uleb128 0x18
	.long	0x621
	.uleb128 0x18
	.long	0x621
	.byte	0x0
	.uleb128 0x37
	.long	0x333c
	.byte	0x1
	.string	"mktime"
	.byte	0x2a
	.byte	0xc2
	.long	0x621
	.byte	0x1
	.uleb128 0x18
	.long	0x333c
	.byte	0x0
	.uleb128 0x6
	.byte	0x4
	.long	0x62f
	.uleb128 0x37
	.long	0x335a
	.byte	0x1
	.string	"time"
	.byte	0x2a
	.byte	0xbb
	.long	0x621
	.byte	0x1
	.uleb128 0x18
	.long	0x335a
	.byte	0x0
	.uleb128 0x6
	.byte	0x4
	.long	0x621
	.uleb128 0x37
	.long	0x337b
	.byte	0x1
	.string	"asctime"
	.byte	0x2a
	.byte	0xfe
	.long	0x1a3
	.byte	0x1
	.uleb128 0x18
	.long	0x337b
	.byte	0x0
	.uleb128 0x6
	.byte	0x4
	.long	0x3381
	.uleb128 0x10
	.long	0x62f
	.uleb128 0x38
	.long	0x33a0
	.byte	0x1
	.string	"ctime"
	.byte	0x2a
	.value	0x101
	.long	0x1a3
	.byte	0x1
	.uleb128 0x18
	.long	0x33a0
	.byte	0x0
	.uleb128 0x6
	.byte	0x4
	.long	0x33a6
	.uleb128 0x10
	.long	0x621
	.uleb128 0x37
	.long	0x33c5
	.byte	0x1
	.string	"gmtime"
	.byte	0x2a
	.byte	0xe8
	.long	0x333c
	.byte	0x1
	.uleb128 0x18
	.long	0x33a0
	.byte	0x0
	.uleb128 0x37
	.long	0x33e2
	.byte	0x1
	.string	"localtime"
	.byte	0x2a
	.byte	0xec
	.long	0x333c
	.byte	0x1
	.uleb128 0x18
	.long	0x33a0
	.byte	0x0
	.uleb128 0x37
	.long	0x340d
	.byte	0x1
	.string	"strftime"
	.byte	0x2a
	.byte	0xca
	.long	0xa1
	.byte	0x1
	.uleb128 0x18
	.long	0x1a3
	.uleb128 0x18
	.long	0xa1
	.uleb128 0x18
	.long	0x583
	.uleb128 0x18
	.long	0x337b
	.byte	0x0
	.uleb128 0x4
	.long	.LASF1
	.byte	0x4
	.byte	0x7
	.uleb128 0x38
	.long	0x342e
	.byte	0x1
	.string	"btowc"
	.byte	0x25
	.value	0x12c
	.long	0x5ab
	.byte	0x1
	.uleb128 0x18
	.long	0x9a
	.byte	0x0
	.uleb128 0x38
	.long	0x3449
	.byte	0x1
	.string	"fgetwc"
	.byte	0x25
	.value	0x2b4
	.long	0x5ab
	.byte	0x1
	.uleb128 0x18
	.long	0x3449
	.byte	0x0
	.uleb128 0x6
	.byte	0x4
	.long	0x43e
	.uleb128 0x38
	.long	0x3474
	.byte	0x1
	.string	"fgetws"
	.byte	0x25
	.value	0x2d2
	.long	0xe6e
	.byte	0x1
	.uleb128 0x18
	.long	0xe6e
	.uleb128 0x18
	.long	0x9a
	.uleb128 0x18
	.long	0x3449
	.byte	0x0
	.uleb128 0x38
	.long	0x3494
	.byte	0x1
	.string	"fputwc"
	.byte	0x25
	.value	0x2c2
	.long	0x5ab
	.byte	0x1
	.uleb128 0x18
	.long	0x5e0
	.uleb128 0x18
	.long	0x3449
	.byte	0x0
	.uleb128 0x38
	.long	0x34b4
	.byte	0x1
	.string	"fputws"
	.byte	0x25
	.value	0x2d9
	.long	0x9a
	.byte	0x1
	.uleb128 0x18
	.long	0xe7a
	.uleb128 0x18
	.long	0x3449
	.byte	0x0
	.uleb128 0x38
	.long	0x34d3
	.byte	0x1
	.string	"fwide"
	.byte	0x25
	.value	0x216
	.long	0x9a
	.byte	0x1
	.uleb128 0x18
	.long	0x3449
	.uleb128 0x18
	.long	0x9a
	.byte	0x0
	.uleb128 0x38
	.long	0x34f6
	.byte	0x1
	.string	"fwprintf"
	.byte	0x25
	.value	0x21e
	.long	0x9a
	.byte	0x1
	.uleb128 0x18
	.long	0x3449
	.uleb128 0x18
	.long	0xe7a
	.uleb128 0x3d
	.byte	0x0
	.uleb128 0x38
	.long	0x3518
	.byte	0x1
	.string	"fwscanf"
	.byte	0x25
	.value	0x247
	.long	0x9a
	.byte	0x1
	.uleb128 0x18
	.long	0x3449
	.uleb128 0x18
	.long	0xe7a
	.uleb128 0x3d
	.byte	0x0
	.uleb128 0x38
	.long	0x3532
	.byte	0x1
	.string	"getwc"
	.byte	0x25
	.value	0x2b5
	.long	0x5ab
	.byte	0x1
	.uleb128 0x18
	.long	0x3449
	.byte	0x0
	.uleb128 0x3a
	.byte	0x1
	.string	"getwchar"
	.byte	0x25
	.value	0x2bb
	.long	0x5ab
	.byte	0x1
	.uleb128 0x38
	.long	0x356a
	.byte	0x1
	.string	"mbrlen"
	.byte	0x25
	.value	0x144
	.long	0xa1
	.byte	0x1
	.uleb128 0x18
	.long	0x583
	.uleb128 0x18
	.long	0xa1
	.uleb128 0x18
	.long	0x356a
	.byte	0x0
	.uleb128 0x6
	.byte	0x4
	.long	0x5b7
	.uleb128 0x38
	.long	0x359b
	.byte	0x1
	.string	"mbrtowc"
	.byte	0x25
	.value	0x13a
	.long	0xa1
	.byte	0x1
	.uleb128 0x18
	.long	0xe6e
	.uleb128 0x18
	.long	0x583
	.uleb128 0x18
	.long	0xa1
	.uleb128 0x18
	.long	0x356a
	.byte	0x0
	.uleb128 0x38
	.long	0x35b7
	.byte	0x1
	.string	"mbsinit"
	.byte	0x25
	.value	0x134
	.long	0x9a
	.byte	0x1
	.uleb128 0x18
	.long	0x35b7
	.byte	0x0
	.uleb128 0x6
	.byte	0x4
	.long	0x35bd
	.uleb128 0x10
	.long	0x5b7
	.uleb128 0x38
	.long	0x35ef
	.byte	0x1
	.string	"mbsrtowcs"
	.byte	0x25
	.value	0x165
	.long	0xa1
	.byte	0x1
	.uleb128 0x18
	.long	0xe6e
	.uleb128 0x18
	.long	0x35ef
	.uleb128 0x18
	.long	0xa1
	.uleb128 0x18
	.long	0x356a
	.byte	0x0
	.uleb128 0x6
	.byte	0x4
	.long	0x583
	.uleb128 0x38
	.long	0x3614
	.byte	0x1
	.string	"putwc"
	.byte	0x25
	.value	0x2c3
	.long	0x5ab
	.byte	0x1
	.uleb128 0x18
	.long	0x5e0
	.uleb128 0x18
	.long	0x3449
	.byte	0x0
	.uleb128 0x38
	.long	0x3631
	.byte	0x1
	.string	"putwchar"
	.byte	0x25
	.value	0x2c9
	.long	0x5ab
	.byte	0x1
	.uleb128 0x18
	.long	0x5e0
	.byte	0x0
	.uleb128 0x38
	.long	0x3659
	.byte	0x1
	.string	"swprintf"
	.byte	0x25
	.value	0x229
	.long	0x9a
	.byte	0x1
	.uleb128 0x18
	.long	0xe6e
	.uleb128 0x18
	.long	0xa1
	.uleb128 0x18
	.long	0xe7a
	.uleb128 0x3d
	.byte	0x0
	.uleb128 0x38
	.long	0x367b
	.byte	0x1
	.string	"swscanf"
	.byte	0x25
	.value	0x252
	.long	0x9a
	.byte	0x1
	.uleb128 0x18
	.long	0xe7a
	.uleb128 0x18
	.long	0xe7a
	.uleb128 0x3d
	.byte	0x0
	.uleb128 0x38
	.long	0x369c
	.byte	0x1
	.string	"ungetwc"
	.byte	0x25
	.value	0x2e0
	.long	0x5ab
	.byte	0x1
	.uleb128 0x18
	.long	0x5ab
	.uleb128 0x18
	.long	0x3449
	.byte	0x0
	.uleb128 0x38
	.long	0x36c4
	.byte	0x1
	.string	"vfwprintf"
	.byte	0x25
	.value	0x231
	.long	0x9a
	.byte	0x1
	.uleb128 0x18
	.long	0x3449
	.uleb128 0x18
	.long	0xe7a
	.uleb128 0x18
	.long	0x4e4
	.byte	0x0
	.uleb128 0x38
	.long	0x36eb
	.byte	0x1
	.string	"vfwscanf"
	.byte	0x25
	.value	0x27e
	.long	0x9a
	.byte	0x1
	.uleb128 0x18
	.long	0x3449
	.uleb128 0x18
	.long	0xe7a
	.uleb128 0x18
	.long	0x4e4
	.byte	0x0
	.uleb128 0x38
	.long	0x3718
	.byte	0x1
	.string	"vswprintf"
	.byte	0x25
	.value	0x23f
	.long	0x9a
	.byte	0x1
	.uleb128 0x18
	.long	0xe6e
	.uleb128 0x18
	.long	0xa1
	.uleb128 0x18
	.long	0xe7a
	.uleb128 0x18
	.long	0x4e4
	.byte	0x0
	.uleb128 0x38
	.long	0x373f
	.byte	0x1
	.string	"vswscanf"
	.byte	0x25
	.value	0x28b
	.long	0x9a
	.byte	0x1
	.uleb128 0x18
	.long	0xe7a
	.uleb128 0x18
	.long	0xe7a
	.uleb128 0x18
	.long	0x4e4
	.byte	0x0
	.uleb128 0x38
	.long	0x3761
	.byte	0x1
	.string	"vwprintf"
	.byte	0x25
	.value	0x238
	.long	0x9a
	.byte	0x1
	.uleb128 0x18
	.long	0xe7a
	.uleb128 0x18
	.long	0x4e4
	.byte	0x0
	.uleb128 0x38
	.long	0x3782
	.byte	0x1
	.string	"vwscanf"
	.byte	0x25
	.value	0x285
	.long	0x9a
	.byte	0x1
	.uleb128 0x18
	.long	0xe7a
	.uleb128 0x18
	.long	0x4e4
	.byte	0x0
	.uleb128 0x38
	.long	0x37a8
	.byte	0x1
	.string	"wcrtomb"
	.byte	0x25
	.value	0x13e
	.long	0xa1
	.byte	0x1
	.uleb128 0x18
	.long	0x1a3
	.uleb128 0x18
	.long	0x5e0
	.uleb128 0x18
	.long	0x356a
	.byte	0x0
	.uleb128 0x37
	.long	0x37c7
	.byte	0x1
	.string	"wcscat"
	.byte	0x25
	.byte	0x94
	.long	0xe6e
	.byte	0x1
	.uleb128 0x18
	.long	0xe6e
	.uleb128 0x18
	.long	0xe7a
	.byte	0x0
	.uleb128 0x37
	.long	0x37e6
	.byte	0x1
	.string	"wcscmp"
	.byte	0x25
	.byte	0x9c
	.long	0x9a
	.byte	0x1
	.uleb128 0x18
	.long	0xe7a
	.uleb128 0x18
	.long	0xe7a
	.byte	0x0
	.uleb128 0x37
	.long	0x3806
	.byte	0x1
	.string	"wcscoll"
	.byte	0x25
	.byte	0xb8
	.long	0x9a
	.byte	0x1
	.uleb128 0x18
	.long	0xe7a
	.uleb128 0x18
	.long	0xe7a
	.byte	0x0
	.uleb128 0x37
	.long	0x3825
	.byte	0x1
	.string	"wcscpy"
	.byte	0x25
	.byte	0x8c
	.long	0xe6e
	.byte	0x1
	.uleb128 0x18
	.long	0xe6e
	.uleb128 0x18
	.long	0xe7a
	.byte	0x0
	.uleb128 0x37
	.long	0x3845
	.byte	0x1
	.string	"wcscspn"
	.byte	0x25
	.byte	0xe7
	.long	0xa1
	.byte	0x1
	.uleb128 0x18
	.long	0xe7a
	.uleb128 0x18
	.long	0xe7a
	.byte	0x0
	.uleb128 0x38
	.long	0x3871
	.byte	0x1
	.string	"wcsftime"
	.byte	0x25
	.value	0x324
	.long	0xa1
	.byte	0x1
	.uleb128 0x18
	.long	0xe6e
	.uleb128 0x18
	.long	0xa1
	.uleb128 0x18
	.long	0xe7a
	.uleb128 0x18
	.long	0x337b
	.byte	0x0
	.uleb128 0x37
	.long	0x388b
	.byte	0x1
	.string	"wcslen"
	.byte	0x25
	.byte	0xf9
	.long	0xa1
	.byte	0x1
	.uleb128 0x18
	.long	0xe7a
	.byte	0x0
	.uleb128 0x37
	.long	0x38b0
	.byte	0x1
	.string	"wcsncat"
	.byte	0x25
	.byte	0x98
	.long	0xe6e
	.byte	0x1
	.uleb128 0x18
	.long	0xe6e
	.uleb128 0x18
	.long	0xe7a
	.uleb128 0x18
	.long	0xa1
	.byte	0x0
	.uleb128 0x37
	.long	0x38d5
	.byte	0x1
	.string	"wcsncmp"
	.byte	0x25
	.byte	0x9f
	.long	0x9a
	.byte	0x1
	.uleb128 0x18
	.long	0xe7a
	.uleb128 0x18
	.long	0xe7a
	.uleb128 0x18
	.long	0xa1
	.byte	0x0
	.uleb128 0x37
	.long	0x38fa
	.byte	0x1
	.string	"wcsncpy"
	.byte	0x25
	.byte	0x90
	.long	0xe6e
	.byte	0x1
	.uleb128 0x18
	.long	0xe6e
	.uleb128 0x18
	.long	0xe7a
	.uleb128 0x18
	.long	0xa1
	.byte	0x0
	.uleb128 0x38
	.long	0x3927
	.byte	0x1
	.string	"wcsrtombs"
	.byte	0x25
	.value	0x16b
	.long	0xa1
	.byte	0x1
	.uleb128 0x18
	.long	0x1a3
	.uleb128 0x18
	.long	0x3927
	.uleb128 0x18
	.long	0xa1
	.uleb128 0x18
	.long	0x356a
	.byte	0x0
	.uleb128 0x6
	.byte	0x4
	.long	0xe7a
	.uleb128 0x37
	.long	0x394c
	.byte	0x1
	.string	"wcsspn"
	.byte	0x25
	.byte	0xeb
	.long	0xa1
	.byte	0x1
	.uleb128 0x18
	.long	0xe7a
	.uleb128 0x18
	.long	0xe7a
	.byte	0x0
	.uleb128 0x38
	.long	0x396c
	.byte	0x1
	.string	"wcstod"
	.byte	0x25
	.value	0x18e
	.long	0x765
	.byte	0x1
	.uleb128 0x18
	.long	0xe7a
	.uleb128 0x18
	.long	0x396c
	.byte	0x0
	.uleb128 0x6
	.byte	0x4
	.long	0xe6e
	.uleb128 0x38
	.long	0x3992
	.byte	0x1
	.string	"wcstof"
	.byte	0x25
	.value	0x195
	.long	0x75c
	.byte	0x1
	.uleb128 0x18
	.long	0xe7a
	.uleb128 0x18
	.long	0x396c
	.byte	0x0
	.uleb128 0x37
	.long	0x39b6
	.byte	0x1
	.string	"wcstok"
	.byte	0x25
	.byte	0xf6
	.long	0xe6e
	.byte	0x1
	.uleb128 0x18
	.long	0xe6e
	.uleb128 0x18
	.long	0xe7a
	.uleb128 0x18
	.long	0x396c
	.byte	0x0
	.uleb128 0x38
	.long	0x39db
	.byte	0x1
	.string	"wcstol"
	.byte	0x25
	.value	0x1a0
	.long	0x15c
	.byte	0x1
	.uleb128 0x18
	.long	0xe7a
	.uleb128 0x18
	.long	0x396c
	.uleb128 0x18
	.long	0x9a
	.byte	0x0
	.uleb128 0x38
	.long	0x3a01
	.byte	0x1
	.string	"wcstoul"
	.byte	0x25
	.value	0x1a6
	.long	0xdd
	.byte	0x1
	.uleb128 0x18
	.long	0xe7a
	.uleb128 0x18
	.long	0x396c
	.uleb128 0x18
	.long	0x9a
	.byte	0x0
	.uleb128 0x37
	.long	0x3a26
	.byte	0x1
	.string	"wcsxfrm"
	.byte	0x25
	.byte	0xbd
	.long	0xa1
	.byte	0x1
	.uleb128 0x18
	.long	0xe6e
	.uleb128 0x18
	.long	0xe7a
	.uleb128 0x18
	.long	0xa1
	.byte	0x0
	.uleb128 0x38
	.long	0x3a40
	.byte	0x1
	.string	"wctob"
	.byte	0x25
	.value	0x130
	.long	0x9a
	.byte	0x1
	.uleb128 0x18
	.long	0x5ab
	.byte	0x0
	.uleb128 0x38
	.long	0x3a66
	.byte	0x1
	.string	"wmemcmp"
	.byte	0x25
	.value	0x111
	.long	0x9a
	.byte	0x1
	.uleb128 0x18
	.long	0xe7a
	.uleb128 0x18
	.long	0xe7a
	.uleb128 0x18
	.long	0xa1
	.byte	0x0
	.uleb128 0x38
	.long	0x3a8c
	.byte	0x1
	.string	"wmemcpy"
	.byte	0x25
	.value	0x115
	.long	0xe6e
	.byte	0x1
	.uleb128 0x18
	.long	0xe6e
	.uleb128 0x18
	.long	0xe7a
	.uleb128 0x18
	.long	0xa1
	.byte	0x0
	.uleb128 0x38
	.long	0x3ab3
	.byte	0x1
	.string	"wmemmove"
	.byte	0x25
	.value	0x11a
	.long	0xe6e
	.byte	0x1
	.uleb128 0x18
	.long	0xe6e
	.uleb128 0x18
	.long	0xe7a
	.uleb128 0x18
	.long	0xa1
	.byte	0x0
	.uleb128 0x38
	.long	0x3ad9
	.byte	0x1
	.string	"wmemset"
	.byte	0x25
	.value	0x11d
	.long	0xe6e
	.byte	0x1
	.uleb128 0x18
	.long	0xe6e
	.uleb128 0x18
	.long	0x5e0
	.uleb128 0x18
	.long	0xa1
	.byte	0x0
	.uleb128 0x38
	.long	0x3af6
	.byte	0x1
	.string	"wprintf"
	.byte	0x25
	.value	0x224
	.long	0x9a
	.byte	0x1
	.uleb128 0x18
	.long	0xe7a
	.uleb128 0x3d
	.byte	0x0
	.uleb128 0x38
	.long	0x3b12
	.byte	0x1
	.string	"wscanf"
	.byte	0x25
	.value	0x24d
	.long	0x9a
	.byte	0x1
	.uleb128 0x18
	.long	0xe7a
	.uleb128 0x3d
	.byte	0x0
	.uleb128 0x37
	.long	0x3b31
	.byte	0x1
	.string	"wcschr"
	.byte	0x25
	.byte	0xd6
	.long	0xe6e
	.byte	0x1
	.uleb128 0x18
	.long	0xe7a
	.uleb128 0x18
	.long	0x5e0
	.byte	0x0
	.uleb128 0x37
	.long	0x3b51
	.byte	0x1
	.string	"wcspbrk"
	.byte	0x25
	.byte	0xee
	.long	0xe6e
	.byte	0x1
	.uleb128 0x18
	.long	0xe7a
	.uleb128 0x18
	.long	0xe7a
	.byte	0x0
	.uleb128 0x37
	.long	0x3b71
	.byte	0x1
	.string	"wcsrchr"
	.byte	0x25
	.byte	0xd9
	.long	0xe6e
	.byte	0x1
	.uleb128 0x18
	.long	0xe7a
	.uleb128 0x18
	.long	0x5e0
	.byte	0x0
	.uleb128 0x37
	.long	0x3b90
	.byte	0x1
	.string	"wcsstr"
	.byte	0x25
	.byte	0xf1
	.long	0xe6e
	.byte	0x1
	.uleb128 0x18
	.long	0xe7a
	.uleb128 0x18
	.long	0xe7a
	.byte	0x0
	.uleb128 0x38
	.long	0x3bb6
	.byte	0x1
	.string	"wmemchr"
	.byte	0x25
	.value	0x10c
	.long	0xe6e
	.byte	0x1
	.uleb128 0x18
	.long	0xe7a
	.uleb128 0x18
	.long	0x5e0
	.uleb128 0x18
	.long	0xa1
	.byte	0x0
	.uleb128 0x38
	.long	0x3bd7
	.byte	0x1
	.string	"wcstold"
	.byte	0x25
	.value	0x197
	.long	0x2bcc
	.byte	0x1
	.uleb128 0x18
	.long	0xe7a
	.uleb128 0x18
	.long	0x396c
	.byte	0x0
	.uleb128 0x38
	.long	0x3bfd
	.byte	0x1
	.string	"wcstoll"
	.byte	0x25
	.value	0x1b0
	.long	0x112
	.byte	0x1
	.uleb128 0x18
	.long	0xe7a
	.uleb128 0x18
	.long	0x396c
	.uleb128 0x18
	.long	0x9a
	.byte	0x0
	.uleb128 0x38
	.long	0x3c24
	.byte	0x1
	.string	"wcstoull"
	.byte	0x25
	.value	0x1b7
	.long	0x123
	.byte	0x1
	.uleb128 0x18
	.long	0xe7a
	.uleb128 0x18
	.long	0x396c
	.uleb128 0x18
	.long	0x9a
	.byte	0x0
	.uleb128 0x23
	.byte	0x4
	.long	0x1a9
	.uleb128 0x23
	.byte	0x4
	.long	0x589
	.uleb128 0x23
	.byte	0x4
	.long	0x5cd
	.uleb128 0x23
	.byte	0x4
	.long	0x5e0
	.uleb128 0x23
	.byte	0x4
	.long	0xe80
	.uleb128 0x3f
	.long	0x1dcf
	.byte	0x1
	.byte	0x2e
	.byte	0x40
	.uleb128 0x40
	.long	0x3ea5
	.long	0x292a
	.byte	0x1
	.byte	0x36
	.byte	0x33
	.uleb128 0x1c
	.long	0x3c6a
	.byte	0x1
	.long	.LASF16
	.byte	0x36
	.byte	0x41
	.byte	0x1
	.uleb128 0x1d
	.long	0x3ea5
	.byte	0x1
	.byte	0x0
	.uleb128 0x1c
	.long	0x3c83
	.byte	0x1
	.long	.LASF16
	.byte	0x36
	.byte	0x43
	.byte	0x1
	.uleb128 0x1d
	.long	0x3ea5
	.byte	0x1
	.uleb128 0x18
	.long	0x3eab
	.byte	0x0
	.uleb128 0x1c
	.long	0x3c9d
	.byte	0x1
	.long	.LASF17
	.byte	0x36
	.byte	0x48
	.byte	0x1
	.uleb128 0x1d
	.long	0x3ea5
	.byte	0x1
	.uleb128 0x1d
	.long	0x9a
	.byte	0x1
	.byte	0x0
	.uleb128 0x21
	.long	0x3ce6
	.byte	0x1
	.long	.LASF18
	.byte	0x36
	.byte	0x4b
	.string	"_ZNK9__gnu_cxx13new_allocatorIcE7addressERc"
	.long	0x1a3
	.byte	0x1
	.uleb128 0x1d
	.long	0x3eb6
	.byte	0x1
	.uleb128 0x18
	.long	0x3c24
	.byte	0x0
	.uleb128 0x21
	.long	0x3d30
	.byte	0x1
	.long	.LASF18
	.byte	0x36
	.byte	0x4e
	.string	"_ZNK9__gnu_cxx13new_allocatorIcE7addressERKc"
	.long	0x583
	.byte	0x1
	.uleb128 0x1d
	.long	0x3eb6
	.byte	0x1
	.uleb128 0x18
	.long	0x3c2a
	.byte	0x0
	.uleb128 0x21
	.long	0x3d80
	.byte	0x1
	.long	.LASF19
	.byte	0x36
	.byte	0x53
	.string	"_ZN9__gnu_cxx13new_allocatorIcE8allocateEjPKv"
	.long	0x1a3
	.byte	0x1
	.uleb128 0x1d
	.long	0x3ea5
	.byte	0x1
	.uleb128 0x18
	.long	0xaf
	.uleb128 0x18
	.long	0x8c4
	.byte	0x0
	.uleb128 0x41
	.long	0x3dce
	.byte	0x1
	.long	.LASF20
	.byte	0x36
	.byte	0x5d
	.string	"_ZN9__gnu_cxx13new_allocatorIcE10deallocateEPcj"
	.byte	0x1
	.uleb128 0x1d
	.long	0x3ea5
	.byte	0x1
	.uleb128 0x18
	.long	0x1a3
	.uleb128 0x18
	.long	0xaf
	.byte	0x0
	.uleb128 0x21
	.long	0x3e12
	.byte	0x1
	.long	.LASF21
	.byte	0x36
	.byte	0x61
	.string	"_ZNK9__gnu_cxx13new_allocatorIcE8max_sizeEv"
	.long	0xa1
	.byte	0x1
	.uleb128 0x1d
	.long	0x3eb6
	.byte	0x1
	.byte	0x0
	.uleb128 0x41
	.long	0x3e60
	.byte	0x1
	.long	.LASF22
	.byte	0x36
	.byte	0x67
	.string	"_ZN9__gnu_cxx13new_allocatorIcE9constructEPcRKc"
	.byte	0x1
	.uleb128 0x1d
	.long	0x3ea5
	.byte	0x1
	.uleb128 0x18
	.long	0x1a3
	.uleb128 0x18
	.long	0x3c2a
	.byte	0x0
	.uleb128 0x42
	.byte	0x1
	.string	"destroy"
	.byte	0x36
	.byte	0x6b
	.string	"_ZN9__gnu_cxx13new_allocatorIcE7destroyEPc"
	.byte	0x1
	.uleb128 0x1d
	.long	0x3ea5
	.byte	0x1
	.uleb128 0x18
	.long	0x1a3
	.byte	0x0
	.byte	0x0
	.uleb128 0x6
	.byte	0x4
	.long	0x3c4a
	.uleb128 0x23
	.byte	0x4
	.long	0x3eb1
	.uleb128 0x10
	.long	0x3c4a
	.uleb128 0x6
	.byte	0x4
	.long	0x3eb1
	.uleb128 0x40
	.long	0x3f15
	.long	0x1ddb
	.byte	0x1
	.byte	0x34
	.byte	0x31
	.uleb128 0x24
	.long	0x3c4a
	.byte	0x2
	.byte	0x23
	.uleb128 0x0
	.byte	0x1
	.uleb128 0x1c
	.long	0x3ee5
	.byte	0x1
	.long	.LASF23
	.byte	0x37
	.byte	0x61
	.byte	0x1
	.uleb128 0x1d
	.long	0x3f15
	.byte	0x1
	.byte	0x0
	.uleb128 0x1c
	.long	0x3efe
	.byte	0x1
	.long	.LASF23
	.byte	0x37
	.byte	0x63
	.byte	0x1
	.uleb128 0x1d
	.long	0x3f15
	.byte	0x1
	.uleb128 0x18
	.long	0x3f1b
	.byte	0x0
	.uleb128 0x43
	.byte	0x1
	.long	.LASF24
	.byte	0x37
	.byte	0x69
	.byte	0x1
	.uleb128 0x1d
	.long	0x3f15
	.byte	0x1
	.uleb128 0x1d
	.long	0x9a
	.byte	0x1
	.byte	0x0
	.byte	0x0
	.uleb128 0x6
	.byte	0x4
	.long	0x3ebc
	.uleb128 0x23
	.byte	0x4
	.long	0x3f21
	.uleb128 0x10
	.long	0x3ebc
	.uleb128 0x40
	.long	0x4181
	.long	0x2940
	.byte	0x1
	.byte	0x36
	.byte	0x33
	.uleb128 0x1c
	.long	0x3f46
	.byte	0x1
	.long	.LASF16
	.byte	0x36
	.byte	0x41
	.byte	0x1
	.uleb128 0x1d
	.long	0x4181
	.byte	0x1
	.byte	0x0
	.uleb128 0x1c
	.long	0x3f5f
	.byte	0x1
	.long	.LASF16
	.byte	0x36
	.byte	0x43
	.byte	0x1
	.uleb128 0x1d
	.long	0x4181
	.byte	0x1
	.uleb128 0x18
	.long	0x4187
	.byte	0x0
	.uleb128 0x1c
	.long	0x3f79
	.byte	0x1
	.long	.LASF17
	.byte	0x36
	.byte	0x48
	.byte	0x1
	.uleb128 0x1d
	.long	0x4181
	.byte	0x1
	.uleb128 0x1d
	.long	0x9a
	.byte	0x1
	.byte	0x0
	.uleb128 0x21
	.long	0x3fc2
	.byte	0x1
	.long	.LASF18
	.byte	0x36
	.byte	0x4b
	.string	"_ZNK9__gnu_cxx13new_allocatorIwE7addressERw"
	.long	0xe6e
	.byte	0x1
	.uleb128 0x1d
	.long	0x4192
	.byte	0x1
	.uleb128 0x18
	.long	0x3c36
	.byte	0x0
	.uleb128 0x21
	.long	0x400c
	.byte	0x1
	.long	.LASF18
	.byte	0x36
	.byte	0x4e
	.string	"_ZNK9__gnu_cxx13new_allocatorIwE7addressERKw"
	.long	0xe7a
	.byte	0x1
	.uleb128 0x1d
	.long	0x4192
	.byte	0x1
	.uleb128 0x18
	.long	0x3c3c
	.byte	0x0
	.uleb128 0x21
	.long	0x405c
	.byte	0x1
	.long	.LASF19
	.byte	0x36
	.byte	0x53
	.string	"_ZN9__gnu_cxx13new_allocatorIwE8allocateEjPKv"
	.long	0xe6e
	.byte	0x1
	.uleb128 0x1d
	.long	0x4181
	.byte	0x1
	.uleb128 0x18
	.long	0xaf
	.uleb128 0x18
	.long	0x8c4
	.byte	0x0
	.uleb128 0x41
	.long	0x40aa
	.byte	0x1
	.long	.LASF20
	.byte	0x36
	.byte	0x5d
	.string	"_ZN9__gnu_cxx13new_allocatorIwE10deallocateEPwj"
	.byte	0x1
	.uleb128 0x1d
	.long	0x4181
	.byte	0x1
	.uleb128 0x18
	.long	0xe6e
	.uleb128 0x18
	.long	0xaf
	.byte	0x0
	.uleb128 0x21
	.long	0x40ee
	.byte	0x1
	.long	.LASF21
	.byte	0x36
	.byte	0x61
	.string	"_ZNK9__gnu_cxx13new_allocatorIwE8max_sizeEv"
	.long	0xa1
	.byte	0x1
	.uleb128 0x1d
	.long	0x4192
	.byte	0x1
	.byte	0x0
	.uleb128 0x41
	.long	0x413c
	.byte	0x1
	.long	.LASF22
	.byte	0x36
	.byte	0x67
	.string	"_ZN9__gnu_cxx13new_allocatorIwE9constructEPwRKw"
	.byte	0x1
	.uleb128 0x1d
	.long	0x4181
	.byte	0x1
	.uleb128 0x18
	.long	0xe6e
	.uleb128 0x18
	.long	0x3c3c
	.byte	0x0
	.uleb128 0x42
	.byte	0x1
	.string	"destroy"
	.byte	0x36
	.byte	0x6b
	.string	"_ZN9__gnu_cxx13new_allocatorIwE7destroyEPw"
	.byte	0x1
	.uleb128 0x1d
	.long	0x4181
	.byte	0x1
	.uleb128 0x18
	.long	0xe6e
	.byte	0x0
	.byte	0x0
	.uleb128 0x6
	.byte	0x4
	.long	0x3f26
	.uleb128 0x23
	.byte	0x4
	.long	0x418d
	.uleb128 0x10
	.long	0x3f26
	.uleb128 0x6
	.byte	0x4
	.long	0x418d
	.uleb128 0x40
	.long	0x41f1
	.long	0x1ded
	.byte	0x1
	.byte	0x34
	.byte	0x31
	.uleb128 0x24
	.long	0x3f26
	.byte	0x2
	.byte	0x23
	.uleb128 0x0
	.byte	0x1
	.uleb128 0x1c
	.long	0x41c1
	.byte	0x1
	.long	.LASF23
	.byte	0x37
	.byte	0x61
	.byte	0x1
	.uleb128 0x1d
	.long	0x41f1
	.byte	0x1
	.byte	0x0
	.uleb128 0x1c
	.long	0x41da
	.byte	0x1
	.long	.LASF23
	.byte	0x37
	.byte	0x63
	.byte	0x1
	.uleb128 0x1d
	.long	0x41f1
	.byte	0x1
	.uleb128 0x18
	.long	0x41f7
	.byte	0x0
	.uleb128 0x43
	.byte	0x1
	.long	.LASF24
	.byte	0x37
	.byte	0x69
	.byte	0x1
	.uleb128 0x1d
	.long	0x41f1
	.byte	0x1
	.uleb128 0x1d
	.long	0x9a
	.byte	0x1
	.byte	0x0
	.byte	0x0
	.uleb128 0x6
	.byte	0x4
	.long	0x4198
	.uleb128 0x23
	.byte	0x4
	.long	0x41fd
	.uleb128 0x10
	.long	0x4198
	.uleb128 0x10
	.long	0xb5a
	.uleb128 0x10
	.long	0x1e02
	.uleb128 0x3
	.string	"_Atomic_word"
	.byte	0x32
	.byte	0x21
	.long	0x9a
	.uleb128 0x6
	.byte	0x4
	.long	0x1e9c
	.uleb128 0x40
	.long	0x5e8b
	.long	0x1e56
	.byte	0x4
	.byte	0x34
	.byte	0x38
	.uleb128 0x44
	.long	.LASF25
	.byte	0x35
	.value	0x10b
	.long	.LASF26
	.long	0x5e8b
	.byte	0x1
	.byte	0x1
	.uleb128 0x45
	.long	.LASF27
	.byte	0x35
	.value	0x10f
	.long	0x1e9c
	.byte	0x2
	.byte	0x23
	.uleb128 0x0
	.byte	0x3
	.uleb128 0x2f
	.long	.LASF28
	.byte	0x1
	.uleb128 0x16
	.string	"_Rep"
	.byte	0x1
	.uleb128 0x46
	.long	0x428c
	.byte	0x1
	.long	.LASF29
	.byte	0x35
	.value	0x112
	.string	"_ZNKSs7_M_dataEv"
	.long	0x1a3
	.byte	0x3
	.byte	0x1
	.uleb128 0x1d
	.long	0x5e90
	.byte	0x1
	.byte	0x0
	.uleb128 0x46
	.long	0x42bc
	.byte	0x1
	.long	.LASF29
	.byte	0x35
	.value	0x116
	.string	"_ZNSs7_M_dataEPc"
	.long	0x1a3
	.byte	0x3
	.byte	0x1
	.uleb128 0x1d
	.long	0x5e9b
	.byte	0x1
	.uleb128 0x18
	.long	0x1a3
	.byte	0x0
	.uleb128 0x47
	.long	0x42e9
	.byte	0x1
	.string	"_M_rep"
	.byte	0x35
	.value	0x11a
	.string	"_ZNKSs6_M_repEv"
	.long	0x5ea1
	.byte	0x3
	.byte	0x1
	.uleb128 0x1d
	.long	0x5e90
	.byte	0x1
	.byte	0x0
	.uleb128 0x46
	.long	0x4316
	.byte	0x1
	.long	.LASF30
	.byte	0x35
	.value	0x120
	.string	"_ZNKSs9_M_ibeginEv"
	.long	0x2959
	.byte	0x3
	.byte	0x1
	.uleb128 0x1d
	.long	0x5e90
	.byte	0x1
	.byte	0x0
	.uleb128 0x47
	.long	0x4345
	.byte	0x1
	.string	"_M_iend"
	.byte	0x35
	.value	0x124
	.string	"_ZNKSs7_M_iendEv"
	.long	0x2959
	.byte	0x3
	.byte	0x1
	.uleb128 0x1d
	.long	0x5e90
	.byte	0x1
	.byte	0x0
	.uleb128 0x48
	.long	0x436f
	.byte	0x1
	.string	"_M_leak"
	.byte	0x35
	.value	0x128
	.string	"_ZNSs7_M_leakEv"
	.byte	0x3
	.byte	0x1
	.uleb128 0x1d
	.long	0x5e9b
	.byte	0x1
	.byte	0x0
	.uleb128 0x46
	.long	0x43a8
	.byte	0x1
	.long	.LASF31
	.byte	0x35
	.value	0x12f
	.string	"_ZNKSs8_M_checkEjPKc"
	.long	0xa1
	.byte	0x3
	.byte	0x1
	.uleb128 0x1d
	.long	0x5e90
	.byte	0x1
	.uleb128 0x18
	.long	0xaf
	.uleb128 0x18
	.long	0x583
	.byte	0x0
	.uleb128 0x49
	.long	0x43eb
	.byte	0x1
	.long	.LASF32
	.byte	0x35
	.value	0x137
	.string	"_ZNKSs15_M_check_lengthEjjPKc"
	.byte	0x3
	.byte	0x1
	.uleb128 0x1d
	.long	0x5e90
	.byte	0x1
	.uleb128 0x18
	.long	0xaf
	.uleb128 0x18
	.long	0xaf
	.uleb128 0x18
	.long	0x583
	.byte	0x0
	.uleb128 0x46
	.long	0x4422
	.byte	0x1
	.long	.LASF33
	.byte	0x35
	.value	0x13f
	.string	"_ZNKSs8_M_limitEjj"
	.long	0xa1
	.byte	0x3
	.byte	0x1
	.uleb128 0x1d
	.long	0x5e90
	.byte	0x1
	.uleb128 0x18
	.long	0xaf
	.uleb128 0x18
	.long	0xaf
	.byte	0x0
	.uleb128 0x46
	.long	0x4459
	.byte	0x1
	.long	.LASF34
	.byte	0x35
	.value	0x147
	.string	"_ZNKSs11_M_disjunctEPKc"
	.long	0xb5a
	.byte	0x3
	.byte	0x1
	.uleb128 0x1d
	.long	0x5e90
	.byte	0x1
	.uleb128 0x18
	.long	0x583
	.byte	0x0
	.uleb128 0x48
	.long	0x4491
	.byte	0x1
	.string	"_M_copy"
	.byte	0x35
	.value	0x150
	.string	"_ZNSs7_M_copyEPcPKcj"
	.byte	0x3
	.byte	0x1
	.uleb128 0x18
	.long	0x1a3
	.uleb128 0x18
	.long	0x583
	.uleb128 0x18
	.long	0xaf
	.byte	0x0
	.uleb128 0x48
	.long	0x44c9
	.byte	0x1
	.string	"_M_move"
	.byte	0x35
	.value	0x159
	.string	"_ZNSs7_M_moveEPcPKcj"
	.byte	0x3
	.byte	0x1
	.uleb128 0x18
	.long	0x1a3
	.uleb128 0x18
	.long	0x583
	.uleb128 0x18
	.long	0xaf
	.byte	0x0
	.uleb128 0x49
	.long	0x44fd
	.byte	0x1
	.long	.LASF35
	.byte	0x35
	.value	0x162
	.string	"_ZNSs9_M_assignEPcjc"
	.byte	0x3
	.byte	0x1
	.uleb128 0x18
	.long	0x1a3
	.uleb128 0x18
	.long	0xaf
	.uleb128 0x18
	.long	0x1a9
	.byte	0x0
	.uleb128 0x49
	.long	0x455c
	.byte	0x1
	.long	.LASF36
	.byte	0x35
	.value	0x175
	.string	"_ZNSs13_S_copy_charsEPcN9__gnu_cxx17__normal_iteratorIS_SsEES2_"
	.byte	0x3
	.byte	0x1
	.uleb128 0x18
	.long	0x1a3
	.uleb128 0x18
	.long	0x2959
	.uleb128 0x18
	.long	0x2959
	.byte	0x0
	.uleb128 0x49
	.long	0x45bc
	.byte	0x1
	.long	.LASF36
	.byte	0x35
	.value	0x179
	.string	"_ZNSs13_S_copy_charsEPcN9__gnu_cxx17__normal_iteratorIPKcSsEES4_"
	.byte	0x3
	.byte	0x1
	.uleb128 0x18
	.long	0x1a3
	.uleb128 0x18
	.long	0x29bc
	.uleb128 0x18
	.long	0x29bc
	.byte	0x0
	.uleb128 0x49
	.long	0x45f7
	.byte	0x1
	.long	.LASF36
	.byte	0x35
	.value	0x17d
	.string	"_ZNSs13_S_copy_charsEPcS_S_"
	.byte	0x3
	.byte	0x1
	.uleb128 0x18
	.long	0x1a3
	.uleb128 0x18
	.long	0x1a3
	.uleb128 0x18
	.long	0x1a3
	.byte	0x0
	.uleb128 0x49
	.long	0x4634
	.byte	0x1
	.long	.LASF36
	.byte	0x35
	.value	0x181
	.string	"_ZNSs13_S_copy_charsEPcPKcS1_"
	.byte	0x3
	.byte	0x1
	.uleb128 0x18
	.long	0x1a3
	.uleb128 0x18
	.long	0x583
	.uleb128 0x18
	.long	0x583
	.byte	0x0
	.uleb128 0x49
	.long	0x466d
	.byte	0x1
	.long	.LASF37
	.byte	0x38
	.value	0x1c2
	.string	"_ZNSs9_M_mutateEjjj"
	.byte	0x3
	.byte	0x1
	.uleb128 0x1d
	.long	0x5e9b
	.byte	0x1
	.uleb128 0x18
	.long	0xaf
	.uleb128 0x18
	.long	0xaf
	.uleb128 0x18
	.long	0xaf
	.byte	0x0
	.uleb128 0x49
	.long	0x4699
	.byte	0x1
	.long	.LASF38
	.byte	0x38
	.value	0x1b4
	.string	"_ZNSs12_M_leak_hardEv"
	.byte	0x3
	.byte	0x1
	.uleb128 0x1d
	.long	0x5e9b
	.byte	0x1
	.byte	0x0
	.uleb128 0x4a
	.byte	0x1
	.long	.LASF39
	.byte	0x35
	.value	0x18b
	.string	"_ZNSs12_S_empty_repEv"
	.long	0x5ea7
	.byte	0x3
	.byte	0x1
	.uleb128 0x4b
	.long	0x46d3
	.byte	0x1
	.long	.LASF40
	.byte	0x35
	.value	0x802
	.byte	0x1
	.uleb128 0x1d
	.long	0x5e9b
	.byte	0x1
	.byte	0x0
	.uleb128 0x1c
	.long	0x46ec
	.byte	0x1
	.long	.LASF40
	.byte	0x38
	.byte	0xbe
	.byte	0x1
	.uleb128 0x1d
	.long	0x5e9b
	.byte	0x1
	.uleb128 0x18
	.long	0x3f1b
	.byte	0x0
	.uleb128 0x1c
	.long	0x4705
	.byte	0x1
	.long	.LASF40
	.byte	0x38
	.byte	0xb6
	.byte	0x1
	.uleb128 0x1d
	.long	0x5e9b
	.byte	0x1
	.uleb128 0x18
	.long	0x5ead
	.byte	0x0
	.uleb128 0x1c
	.long	0x4728
	.byte	0x1
	.long	.LASF40
	.byte	0x38
	.byte	0xc4
	.byte	0x1
	.uleb128 0x1d
	.long	0x5e9b
	.byte	0x1
	.uleb128 0x18
	.long	0x5ead
	.uleb128 0x18
	.long	0xaf
	.uleb128 0x18
	.long	0xaf
	.byte	0x0
	.uleb128 0x1c
	.long	0x4750
	.byte	0x1
	.long	.LASF40
	.byte	0x38
	.byte	0xcf
	.byte	0x1
	.uleb128 0x1d
	.long	0x5e9b
	.byte	0x1
	.uleb128 0x18
	.long	0x5ead
	.uleb128 0x18
	.long	0xaf
	.uleb128 0x18
	.long	0xaf
	.uleb128 0x18
	.long	0x3f1b
	.byte	0x0
	.uleb128 0x1c
	.long	0x4773
	.byte	0x1
	.long	.LASF40
	.byte	0x38
	.byte	0xda
	.byte	0x1
	.uleb128 0x1d
	.long	0x5e9b
	.byte	0x1
	.uleb128 0x18
	.long	0x583
	.uleb128 0x18
	.long	0xaf
	.uleb128 0x18
	.long	0x3f1b
	.byte	0x0
	.uleb128 0x1c
	.long	0x4791
	.byte	0x1
	.long	.LASF40
	.byte	0x38
	.byte	0xe1
	.byte	0x1
	.uleb128 0x1d
	.long	0x5e9b
	.byte	0x1
	.uleb128 0x18
	.long	0x583
	.uleb128 0x18
	.long	0x3f1b
	.byte	0x0
	.uleb128 0x1c
	.long	0x47b4
	.byte	0x1
	.long	.LASF40
	.byte	0x38
	.byte	0xe8
	.byte	0x1
	.uleb128 0x1d
	.long	0x5e9b
	.byte	0x1
	.uleb128 0x18
	.long	0xaf
	.uleb128 0x18
	.long	0x1a9
	.uleb128 0x18
	.long	0x3f1b
	.byte	0x0
	.uleb128 0x4b
	.long	0x47cf
	.byte	0x1
	.long	.LASF41
	.byte	0x35
	.value	0x1dd
	.byte	0x1
	.uleb128 0x1d
	.long	0x5e9b
	.byte	0x1
	.uleb128 0x1d
	.long	0x9a
	.byte	0x1
	.byte	0x0
	.uleb128 0x4c
	.long	0x47fa
	.byte	0x1
	.long	.LASF5
	.byte	0x35
	.value	0x1e5
	.string	"_ZNSsaSERKSs"
	.long	0x5eb3
	.byte	0x1
	.uleb128 0x1d
	.long	0x5e9b
	.byte	0x1
	.uleb128 0x18
	.long	0x5ead
	.byte	0x0
	.uleb128 0x4c
	.long	0x4824
	.byte	0x1
	.long	.LASF5
	.byte	0x35
	.value	0x1ed
	.string	"_ZNSsaSEPKc"
	.long	0x5eb3
	.byte	0x1
	.uleb128 0x1d
	.long	0x5e9b
	.byte	0x1
	.uleb128 0x18
	.long	0x583
	.byte	0x0
	.uleb128 0x4c
	.long	0x484c
	.byte	0x1
	.long	.LASF5
	.byte	0x35
	.value	0x1f8
	.string	"_ZNSsaSEc"
	.long	0x5eb3
	.byte	0x1
	.uleb128 0x1d
	.long	0x5e9b
	.byte	0x1
	.uleb128 0x18
	.long	0x1a9
	.byte	0x0
	.uleb128 0x4c
	.long	0x4873
	.byte	0x1
	.long	.LASF42
	.byte	0x35
	.value	0x204
	.string	"_ZNSs5beginEv"
	.long	0x2959
	.byte	0x1
	.uleb128 0x1d
	.long	0x5e9b
	.byte	0x1
	.byte	0x0
	.uleb128 0x4c
	.long	0x489b
	.byte	0x1
	.long	.LASF42
	.byte	0x35
	.value	0x20f
	.string	"_ZNKSs5beginEv"
	.long	0x29bc
	.byte	0x1
	.uleb128 0x1d
	.long	0x5e90
	.byte	0x1
	.byte	0x0
	.uleb128 0x3b
	.long	0x48c0
	.byte	0x1
	.string	"end"
	.byte	0x35
	.value	0x217
	.string	"_ZNSs3endEv"
	.long	0x2959
	.byte	0x1
	.uleb128 0x1d
	.long	0x5e9b
	.byte	0x1
	.byte	0x0
	.uleb128 0x3b
	.long	0x48e6
	.byte	0x1
	.string	"end"
	.byte	0x35
	.value	0x222
	.string	"_ZNKSs3endEv"
	.long	0x29bc
	.byte	0x1
	.uleb128 0x1d
	.long	0x5e90
	.byte	0x1
	.byte	0x0
	.uleb128 0x4c
	.long	0x490e
	.byte	0x1
	.long	.LASF43
	.byte	0x35
	.value	0x22b
	.string	"_ZNSs6rbeginEv"
	.long	0x1f62
	.byte	0x1
	.uleb128 0x1d
	.long	0x5e9b
	.byte	0x1
	.byte	0x0
	.uleb128 0x4c
	.long	0x4937
	.byte	0x1
	.long	.LASF43
	.byte	0x35
	.value	0x234
	.string	"_ZNKSs6rbeginEv"
	.long	0x1eda
	.byte	0x1
	.uleb128 0x1d
	.long	0x5e90
	.byte	0x1
	.byte	0x0
	.uleb128 0x4c
	.long	0x495d
	.byte	0x1
	.long	.LASF44
	.byte	0x35
	.value	0x23d
	.string	"_ZNSs4rendEv"
	.long	0x1f62
	.byte	0x1
	.uleb128 0x1d
	.long	0x5e9b
	.byte	0x1
	.byte	0x0
	.uleb128 0x4c
	.long	0x4984
	.byte	0x1
	.long	.LASF44
	.byte	0x35
	.value	0x246
	.string	"_ZNKSs4rendEv"
	.long	0x1eda
	.byte	0x1
	.uleb128 0x1d
	.long	0x5e90
	.byte	0x1
	.byte	0x0
	.uleb128 0x4c
	.long	0x49ab
	.byte	0x1
	.long	.LASF45
	.byte	0x35
	.value	0x24e
	.string	"_ZNKSs4sizeEv"
	.long	0xa1
	.byte	0x1
	.uleb128 0x1d
	.long	0x5e90
	.byte	0x1
	.byte	0x0
	.uleb128 0x4c
	.long	0x49d4
	.byte	0x1
	.long	.LASF46
	.byte	0x35
	.value	0x254
	.string	"_ZNKSs6lengthEv"
	.long	0xa1
	.byte	0x1
	.uleb128 0x1d
	.long	0x5e90
	.byte	0x1
	.byte	0x0
	.uleb128 0x4c
	.long	0x49ff
	.byte	0x1
	.long	.LASF21
	.byte	0x35
	.value	0x259
	.string	"_ZNKSs8max_sizeEv"
	.long	0xa1
	.byte	0x1
	.uleb128 0x1d
	.long	0x5e90
	.byte	0x1
	.byte	0x0
	.uleb128 0x4d
	.long	0x4a2e
	.byte	0x1
	.long	.LASF47
	.byte	0x38
	.value	0x26d
	.string	"_ZNSs6resizeEjc"
	.byte	0x1
	.uleb128 0x1d
	.long	0x5e9b
	.byte	0x1
	.uleb128 0x18
	.long	0xaf
	.uleb128 0x18
	.long	0x1a9
	.byte	0x0
	.uleb128 0x4d
	.long	0x4a57
	.byte	0x1
	.long	.LASF47
	.byte	0x35
	.value	0x274
	.string	"_ZNSs6resizeEj"
	.byte	0x1
	.uleb128 0x1d
	.long	0x5e9b
	.byte	0x1
	.uleb128 0x18
	.long	0xaf
	.byte	0x0
	.uleb128 0x4c
	.long	0x4a82
	.byte	0x1
	.long	.LASF48
	.byte	0x35
	.value	0x27c
	.string	"_ZNKSs8capacityEv"
	.long	0xa1
	.byte	0x1
	.uleb128 0x1d
	.long	0x5e90
	.byte	0x1
	.byte	0x0
	.uleb128 0x4d
	.long	0x4aac
	.byte	0x1
	.long	.LASF49
	.byte	0x38
	.value	0x1e3
	.string	"_ZNSs7reserveEj"
	.byte	0x1
	.uleb128 0x1d
	.long	0x5e9b
	.byte	0x1
	.uleb128 0x18
	.long	0xaf
	.byte	0x0
	.uleb128 0x4d
	.long	0x4acf
	.byte	0x1
	.long	.LASF50
	.byte	0x35
	.value	0x297
	.string	"_ZNSs5clearEv"
	.byte	0x1
	.uleb128 0x1d
	.long	0x5e9b
	.byte	0x1
	.byte	0x0
	.uleb128 0x4c
	.long	0x4af7
	.byte	0x1
	.long	.LASF51
	.byte	0x35
	.value	0x29e
	.string	"_ZNKSs5emptyEv"
	.long	0xb5a
	.byte	0x1
	.uleb128 0x1d
	.long	0x5e90
	.byte	0x1
	.byte	0x0
	.uleb128 0x4c
	.long	0x4b20
	.byte	0x1
	.long	.LASF8
	.byte	0x35
	.value	0x2ad
	.string	"_ZNKSsixEj"
	.long	0x3c2a
	.byte	0x1
	.uleb128 0x1d
	.long	0x5e90
	.byte	0x1
	.uleb128 0x18
	.long	0xaf
	.byte	0x0
	.uleb128 0x4c
	.long	0x4b48
	.byte	0x1
	.long	.LASF8
	.byte	0x35
	.value	0x2be
	.string	"_ZNSsixEj"
	.long	0x3c24
	.byte	0x1
	.uleb128 0x1d
	.long	0x5e9b
	.byte	0x1
	.uleb128 0x18
	.long	0xaf
	.byte	0x0
	.uleb128 0x3b
	.long	0x4b71
	.byte	0x1
	.string	"at"
	.byte	0x35
	.value	0x2d3
	.string	"_ZNKSs2atEj"
	.long	0x3c2a
	.byte	0x1
	.uleb128 0x1d
	.long	0x5e90
	.byte	0x1
	.uleb128 0x18
	.long	0xaf
	.byte	0x0
	.uleb128 0x3b
	.long	0x4b99
	.byte	0x1
	.string	"at"
	.byte	0x35
	.value	0x2e6
	.string	"_ZNSs2atEj"
	.long	0x3c24
	.byte	0x1
	.uleb128 0x1d
	.long	0x5e9b
	.byte	0x1
	.uleb128 0x18
	.long	0xaf
	.byte	0x0
	.uleb128 0x4c
	.long	0x4bc4
	.byte	0x1
	.long	.LASF52
	.byte	0x35
	.value	0x2f5
	.string	"_ZNSspLERKSs"
	.long	0x5eb3
	.byte	0x1
	.uleb128 0x1d
	.long	0x5e9b
	.byte	0x1
	.uleb128 0x18
	.long	0x5ead
	.byte	0x0
	.uleb128 0x4c
	.long	0x4bee
	.byte	0x1
	.long	.LASF52
	.byte	0x35
	.value	0x2fe
	.string	"_ZNSspLEPKc"
	.long	0x5eb3
	.byte	0x1
	.uleb128 0x1d
	.long	0x5e9b
	.byte	0x1
	.uleb128 0x18
	.long	0x583
	.byte	0x0
	.uleb128 0x4c
	.long	0x4c16
	.byte	0x1
	.long	.LASF52
	.byte	0x35
	.value	0x307
	.string	"_ZNSspLEc"
	.long	0x5eb3
	.byte	0x1
	.uleb128 0x1d
	.long	0x5e9b
	.byte	0x1
	.uleb128 0x18
	.long	0x1a9
	.byte	0x0
	.uleb128 0x4c
	.long	0x4c46
	.byte	0x1
	.long	.LASF53
	.byte	0x38
	.value	0x149
	.string	"_ZNSs6appendERKSs"
	.long	0x5eb3
	.byte	0x1
	.uleb128 0x1d
	.long	0x5e9b
	.byte	0x1
	.uleb128 0x18
	.long	0x5ead
	.byte	0x0
	.uleb128 0x4c
	.long	0x4c82
	.byte	0x1
	.long	.LASF53
	.byte	0x38
	.value	0x15a
	.string	"_ZNSs6appendERKSsjj"
	.long	0x5eb3
	.byte	0x1
	.uleb128 0x1d
	.long	0x5e9b
	.byte	0x1
	.uleb128 0x18
	.long	0x5ead
	.uleb128 0x18
	.long	0xaf
	.uleb128 0x18
	.long	0xaf
	.byte	0x0
	.uleb128 0x4c
	.long	0x4cb7
	.byte	0x1
	.long	.LASF53
	.byte	0x38
	.value	0x12e
	.string	"_ZNSs6appendEPKcj"
	.long	0x5eb3
	.byte	0x1
	.uleb128 0x1d
	.long	0x5e9b
	.byte	0x1
	.uleb128 0x18
	.long	0x583
	.uleb128 0x18
	.long	0xaf
	.byte	0x0
	.uleb128 0x4c
	.long	0x4ce6
	.byte	0x1
	.long	.LASF53
	.byte	0x35
	.value	0x333
	.string	"_ZNSs6appendEPKc"
	.long	0x5eb3
	.byte	0x1
	.uleb128 0x1d
	.long	0x5e9b
	.byte	0x1
	.uleb128 0x18
	.long	0x583
	.byte	0x0
	.uleb128 0x4c
	.long	0x4d19
	.byte	0x1
	.long	.LASF53
	.byte	0x38
	.value	0x11d
	.string	"_ZNSs6appendEjc"
	.long	0x5eb3
	.byte	0x1
	.uleb128 0x1d
	.long	0x5e9b
	.byte	0x1
	.uleb128 0x18
	.long	0xaf
	.uleb128 0x18
	.long	0x1a9
	.byte	0x0
	.uleb128 0x4d
	.long	0x4d45
	.byte	0x1
	.long	.LASF54
	.byte	0x35
	.value	0x356
	.string	"_ZNSs9push_backEc"
	.byte	0x1
	.uleb128 0x1d
	.long	0x5e9b
	.byte	0x1
	.uleb128 0x18
	.long	0x1a9
	.byte	0x0
	.uleb128 0x21
	.long	0x4d74
	.byte	0x1
	.long	.LASF55
	.byte	0x38
	.byte	0xf7
	.string	"_ZNSs6assignERKSs"
	.long	0x5eb3
	.byte	0x1
	.uleb128 0x1d
	.long	0x5e9b
	.byte	0x1
	.uleb128 0x18
	.long	0x5ead
	.byte	0x0
	.uleb128 0x4c
	.long	0x4db0
	.byte	0x1
	.long	.LASF55
	.byte	0x35
	.value	0x374
	.string	"_ZNSs6assignERKSsjj"
	.long	0x5eb3
	.byte	0x1
	.uleb128 0x1d
	.long	0x5e9b
	.byte	0x1
	.uleb128 0x18
	.long	0x5ead
	.uleb128 0x18
	.long	0xaf
	.uleb128 0x18
	.long	0xaf
	.byte	0x0
	.uleb128 0x4c
	.long	0x4de5
	.byte	0x1
	.long	.LASF55
	.byte	0x38
	.value	0x107
	.string	"_ZNSs6assignEPKcj"
	.long	0x5eb3
	.byte	0x1
	.uleb128 0x1d
	.long	0x5e9b
	.byte	0x1
	.uleb128 0x18
	.long	0x583
	.uleb128 0x18
	.long	0xaf
	.byte	0x0
	.uleb128 0x4c
	.long	0x4e14
	.byte	0x1
	.long	.LASF55
	.byte	0x35
	.value	0x390
	.string	"_ZNSs6assignEPKc"
	.long	0x5eb3
	.byte	0x1
	.uleb128 0x1d
	.long	0x5e9b
	.byte	0x1
	.uleb128 0x18
	.long	0x583
	.byte	0x0
	.uleb128 0x4c
	.long	0x4e47
	.byte	0x1
	.long	.LASF55
	.byte	0x35
	.value	0x3a0
	.string	"_ZNSs6assignEjc"
	.long	0x5eb3
	.byte	0x1
	.uleb128 0x1d
	.long	0x5e9b
	.byte	0x1
	.uleb128 0x18
	.long	0xaf
	.uleb128 0x18
	.long	0x1a9
	.byte	0x0
	.uleb128 0x4d
	.long	0x4ea0
	.byte	0x1
	.long	.LASF56
	.byte	0x35
	.value	0x3bd
	.string	"_ZNSs6insertEN9__gnu_cxx17__normal_iteratorIPcSsEEjc"
	.byte	0x1
	.uleb128 0x1d
	.long	0x5e9b
	.byte	0x1
	.uleb128 0x18
	.long	0x2959
	.uleb128 0x18
	.long	0xaf
	.uleb128 0x18
	.long	0x1a9
	.byte	0x0
	.uleb128 0x4c
	.long	0x4ed6
	.byte	0x1
	.long	.LASF56
	.byte	0x35
	.value	0x3dc
	.string	"_ZNSs6insertEjRKSs"
	.long	0x5eb3
	.byte	0x1
	.uleb128 0x1d
	.long	0x5e9b
	.byte	0x1
	.uleb128 0x18
	.long	0xaf
	.uleb128 0x18
	.long	0x5ead
	.byte	0x0
	.uleb128 0x4c
	.long	0x4f18
	.byte	0x1
	.long	.LASF56
	.byte	0x35
	.value	0x3f3
	.string	"_ZNSs6insertEjRKSsjj"
	.long	0x5eb3
	.byte	0x1
	.uleb128 0x1d
	.long	0x5e9b
	.byte	0x1
	.uleb128 0x18
	.long	0xaf
	.uleb128 0x18
	.long	0x5ead
	.uleb128 0x18
	.long	0xaf
	.uleb128 0x18
	.long	0xaf
	.byte	0x0
	.uleb128 0x4c
	.long	0x4f53
	.byte	0x1
	.long	.LASF56
	.byte	0x38
	.value	0x16c
	.string	"_ZNSs6insertEjPKcj"
	.long	0x5eb3
	.byte	0x1
	.uleb128 0x1d
	.long	0x5e9b
	.byte	0x1
	.uleb128 0x18
	.long	0xaf
	.uleb128 0x18
	.long	0x583
	.uleb128 0x18
	.long	0xaf
	.byte	0x0
	.uleb128 0x4c
	.long	0x4f88
	.byte	0x1
	.long	.LASF56
	.byte	0x35
	.value	0x41b
	.string	"_ZNSs6insertEjPKc"
	.long	0x5eb3
	.byte	0x1
	.uleb128 0x1d
	.long	0x5e9b
	.byte	0x1
	.uleb128 0x18
	.long	0xaf
	.uleb128 0x18
	.long	0x583
	.byte	0x0
	.uleb128 0x4c
	.long	0x4fc1
	.byte	0x1
	.long	.LASF56
	.byte	0x35
	.value	0x432
	.string	"_ZNSs6insertEjjc"
	.long	0x5eb3
	.byte	0x1
	.uleb128 0x1d
	.long	0x5e9b
	.byte	0x1
	.uleb128 0x18
	.long	0xaf
	.uleb128 0x18
	.long	0xaf
	.uleb128 0x18
	.long	0x1a9
	.byte	0x0
	.uleb128 0x4c
	.long	0x5018
	.byte	0x1
	.long	.LASF56
	.byte	0x35
	.value	0x443
	.string	"_ZNSs6insertEN9__gnu_cxx17__normal_iteratorIPcSsEEc"
	.long	0x2959
	.byte	0x1
	.uleb128 0x1d
	.long	0x5e9b
	.byte	0x1
	.uleb128 0x18
	.long	0x2959
	.uleb128 0x18
	.long	0x1a9
	.byte	0x0
	.uleb128 0x4c
	.long	0x504a
	.byte	0x1
	.long	.LASF57
	.byte	0x35
	.value	0x45b
	.string	"_ZNSs5eraseEjj"
	.long	0x5eb3
	.byte	0x1
	.uleb128 0x1d
	.long	0x5e9b
	.byte	0x1
	.uleb128 0x18
	.long	0xaf
	.uleb128 0x18
	.long	0xaf
	.byte	0x0
	.uleb128 0x4c
	.long	0x509a
	.byte	0x1
	.long	.LASF57
	.byte	0x35
	.value	0x46b
	.string	"_ZNSs5eraseEN9__gnu_cxx17__normal_iteratorIPcSsEE"
	.long	0x2959
	.byte	0x1
	.uleb128 0x1d
	.long	0x5e9b
	.byte	0x1
	.uleb128 0x18
	.long	0x2959
	.byte	0x0
	.uleb128 0x4c
	.long	0x50f2
	.byte	0x1
	.long	.LASF57
	.byte	0x35
	.value	0x47f
	.string	"_ZNSs5eraseEN9__gnu_cxx17__normal_iteratorIPcSsEES2_"
	.long	0x2959
	.byte	0x1
	.uleb128 0x1d
	.long	0x5e9b
	.byte	0x1
	.uleb128 0x18
	.long	0x2959
	.uleb128 0x18
	.long	0x2959
	.byte	0x0
	.uleb128 0x4c
	.long	0x512f
	.byte	0x1
	.long	.LASF58
	.byte	0x35
	.value	0x49a
	.string	"_ZNSs7replaceEjjRKSs"
	.long	0x5eb3
	.byte	0x1
	.uleb128 0x1d
	.long	0x5e9b
	.byte	0x1
	.uleb128 0x18
	.long	0xaf
	.uleb128 0x18
	.long	0xaf
	.uleb128 0x18
	.long	0x5ead
	.byte	0x0
	.uleb128 0x4c
	.long	0x5178
	.byte	0x1
	.long	.LASF58
	.byte	0x35
	.value	0x4b1
	.string	"_ZNSs7replaceEjjRKSsjj"
	.long	0x5eb3
	.byte	0x1
	.uleb128 0x1d
	.long	0x5e9b
	.byte	0x1
	.uleb128 0x18
	.long	0xaf
	.uleb128 0x18
	.long	0xaf
	.uleb128 0x18
	.long	0x5ead
	.uleb128 0x18
	.long	0xaf
	.uleb128 0x18
	.long	0xaf
	.byte	0x0
	.uleb128 0x4c
	.long	0x51ba
	.byte	0x1
	.long	.LASF58
	.byte	0x38
	.value	0x18c
	.string	"_ZNSs7replaceEjjPKcj"
	.long	0x5eb3
	.byte	0x1
	.uleb128 0x1d
	.long	0x5e9b
	.byte	0x1
	.uleb128 0x18
	.long	0xaf
	.uleb128 0x18
	.long	0xaf
	.uleb128 0x18
	.long	0x583
	.uleb128 0x18
	.long	0xaf
	.byte	0x0
	.uleb128 0x4c
	.long	0x51f6
	.byte	0x1
	.long	.LASF58
	.byte	0x35
	.value	0x4db
	.string	"_ZNSs7replaceEjjPKc"
	.long	0x5eb3
	.byte	0x1
	.uleb128 0x1d
	.long	0x5e9b
	.byte	0x1
	.uleb128 0x18
	.long	0xaf
	.uleb128 0x18
	.long	0xaf
	.uleb128 0x18
	.long	0x583
	.byte	0x0
	.uleb128 0x4c
	.long	0x5236
	.byte	0x1
	.long	.LASF58
	.byte	0x35
	.value	0x4f2
	.string	"_ZNSs7replaceEjjjc"
	.long	0x5eb3
	.byte	0x1
	.uleb128 0x1d
	.long	0x5e9b
	.byte	0x1
	.uleb128 0x18
	.long	0xaf
	.uleb128 0x18
	.long	0xaf
	.uleb128 0x18
	.long	0xaf
	.uleb128 0x18
	.long	0x1a9
	.byte	0x0
	.uleb128 0x4c
	.long	0x5299
	.byte	0x1
	.long	.LASF58
	.byte	0x35
	.value	0x504
	.string	"_ZNSs7replaceEN9__gnu_cxx17__normal_iteratorIPcSsEES2_RKSs"
	.long	0x5eb3
	.byte	0x1
	.uleb128 0x1d
	.long	0x5e9b
	.byte	0x1
	.uleb128 0x18
	.long	0x2959
	.uleb128 0x18
	.long	0x2959
	.uleb128 0x18
	.long	0x5ead
	.byte	0x0
	.uleb128 0x4c
	.long	0x5301
	.byte	0x1
	.long	.LASF58
	.byte	0x35
	.value	0x516
	.string	"_ZNSs7replaceEN9__gnu_cxx17__normal_iteratorIPcSsEES2_PKcj"
	.long	0x5eb3
	.byte	0x1
	.uleb128 0x1d
	.long	0x5e9b
	.byte	0x1
	.uleb128 0x18
	.long	0x2959
	.uleb128 0x18
	.long	0x2959
	.uleb128 0x18
	.long	0x583
	.uleb128 0x18
	.long	0xaf
	.byte	0x0
	.uleb128 0x4c
	.long	0x5363
	.byte	0x1
	.long	.LASF58
	.byte	0x35
	.value	0x52b
	.string	"_ZNSs7replaceEN9__gnu_cxx17__normal_iteratorIPcSsEES2_PKc"
	.long	0x5eb3
	.byte	0x1
	.uleb128 0x1d
	.long	0x5e9b
	.byte	0x1
	.uleb128 0x18
	.long	0x2959
	.uleb128 0x18
	.long	0x2959
	.uleb128 0x18
	.long	0x583
	.byte	0x0
	.uleb128 0x4c
	.long	0x53c9
	.byte	0x1
	.long	.LASF58
	.byte	0x35
	.value	0x540
	.string	"_ZNSs7replaceEN9__gnu_cxx17__normal_iteratorIPcSsEES2_jc"
	.long	0x5eb3
	.byte	0x1
	.uleb128 0x1d
	.long	0x5e9b
	.byte	0x1
	.uleb128 0x18
	.long	0x2959
	.uleb128 0x18
	.long	0x2959
	.uleb128 0x18
	.long	0xaf
	.uleb128 0x18
	.long	0x1a9
	.byte	0x0
	.uleb128 0x4c
	.long	0x5433
	.byte	0x1
	.long	.LASF58
	.byte	0x35
	.value	0x564
	.string	"_ZNSs7replaceEN9__gnu_cxx17__normal_iteratorIPcSsEES2_S1_S1_"
	.long	0x5eb3
	.byte	0x1
	.uleb128 0x1d
	.long	0x5e9b
	.byte	0x1
	.uleb128 0x18
	.long	0x2959
	.uleb128 0x18
	.long	0x2959
	.uleb128 0x18
	.long	0x1a3
	.uleb128 0x18
	.long	0x1a3
	.byte	0x0
	.uleb128 0x4c
	.long	0x549d
	.byte	0x1
	.long	.LASF58
	.byte	0x35
	.value	0x56f
	.string	"_ZNSs7replaceEN9__gnu_cxx17__normal_iteratorIPcSsEES2_PKcS4_"
	.long	0x5eb3
	.byte	0x1
	.uleb128 0x1d
	.long	0x5e9b
	.byte	0x1
	.uleb128 0x18
	.long	0x2959
	.uleb128 0x18
	.long	0x2959
	.uleb128 0x18
	.long	0x583
	.uleb128 0x18
	.long	0x583
	.byte	0x0
	.uleb128 0x4c
	.long	0x5507
	.byte	0x1
	.long	.LASF58
	.byte	0x35
	.value	0x579
	.string	"_ZNSs7replaceEN9__gnu_cxx17__normal_iteratorIPcSsEES2_S2_S2_"
	.long	0x5eb3
	.byte	0x1
	.uleb128 0x1d
	.long	0x5e9b
	.byte	0x1
	.uleb128 0x18
	.long	0x2959
	.uleb128 0x18
	.long	0x2959
	.uleb128 0x18
	.long	0x2959
	.uleb128 0x18
	.long	0x2959
	.byte	0x0
	.uleb128 0x4c
	.long	0x557a
	.byte	0x1
	.long	.LASF58
	.byte	0x35
	.value	0x584
	.string	"_ZNSs7replaceEN9__gnu_cxx17__normal_iteratorIPcSsEES2_NS0_IPKcSsEES5_"
	.long	0x5eb3
	.byte	0x1
	.uleb128 0x1d
	.long	0x5e9b
	.byte	0x1
	.uleb128 0x18
	.long	0x2959
	.uleb128 0x18
	.long	0x2959
	.uleb128 0x18
	.long	0x29bc
	.uleb128 0x18
	.long	0x29bc
	.byte	0x0
	.uleb128 0x46
	.long	0x55c3
	.byte	0x1
	.long	.LASF59
	.byte	0x38
	.value	0x28a
	.string	"_ZNSs14_M_replace_auxEjjjc"
	.long	0x5eb3
	.byte	0x3
	.byte	0x1
	.uleb128 0x1d
	.long	0x5e9b
	.byte	0x1
	.uleb128 0x18
	.long	0xaf
	.uleb128 0x18
	.long	0xaf
	.uleb128 0x18
	.long	0xaf
	.uleb128 0x18
	.long	0x1a9
	.byte	0x0
	.uleb128 0x46
	.long	0x560f
	.byte	0x1
	.long	.LASF60
	.byte	0x38
	.value	0x297
	.string	"_ZNSs15_M_replace_safeEjjPKcj"
	.long	0x5eb3
	.byte	0x3
	.byte	0x1
	.uleb128 0x1d
	.long	0x5e9b
	.byte	0x1
	.uleb128 0x18
	.long	0xaf
	.uleb128 0x18
	.long	0xaf
	.uleb128 0x18
	.long	0x583
	.uleb128 0x18
	.long	0xaf
	.byte	0x0
	.uleb128 0x4e
	.long	0x564f
	.byte	0x1
	.long	.LASF61
	.byte	0x38
	.byte	0xa5
	.string	"_ZNSs12_S_constructEjcRKSaIcE"
	.long	0x1a3
	.byte	0x3
	.byte	0x1
	.uleb128 0x18
	.long	0xaf
	.uleb128 0x18
	.long	0x1a9
	.uleb128 0x18
	.long	0x3f1b
	.byte	0x0
	.uleb128 0x3b
	.long	0x5689
	.byte	0x1
	.string	"copy"
	.byte	0x38
	.value	0x2c0
	.string	"_ZNKSs4copyEPcjj"
	.long	0xa1
	.byte	0x1
	.uleb128 0x1d
	.long	0x5e90
	.byte	0x1
	.uleb128 0x18
	.long	0x1a3
	.uleb128 0x18
	.long	0xaf
	.uleb128 0x18
	.long	0xaf
	.byte	0x0
	.uleb128 0x4f
	.long	0x56b3
	.byte	0x1
	.string	"swap"
	.byte	0x38
	.value	0x1f4
	.string	"_ZNSs4swapERSs"
	.byte	0x1
	.uleb128 0x1d
	.long	0x5e9b
	.byte	0x1
	.uleb128 0x18
	.long	0x5eb3
	.byte	0x0
	.uleb128 0x3b
	.long	0x56dd
	.byte	0x1
	.string	"c_str"
	.byte	0x35
	.value	0x5ed
	.string	"_ZNKSs5c_strEv"
	.long	0x583
	.byte	0x1
	.uleb128 0x1d
	.long	0x5e90
	.byte	0x1
	.byte	0x0
	.uleb128 0x4c
	.long	0x5704
	.byte	0x1
	.long	.LASF6
	.byte	0x35
	.value	0x5f7
	.string	"_ZNKSs4dataEv"
	.long	0x583
	.byte	0x1
	.uleb128 0x1d
	.long	0x5e90
	.byte	0x1
	.byte	0x0
	.uleb128 0x4c
	.long	0x5735
	.byte	0x1
	.long	.LASF62
	.byte	0x35
	.value	0x5fe
	.string	"_ZNKSs13get_allocatorEv"
	.long	0x3ebc
	.byte	0x1
	.uleb128 0x1d
	.long	0x5e90
	.byte	0x1
	.byte	0x0
	.uleb128 0x4c
	.long	0x576f
	.byte	0x1
	.long	.LASF63
	.byte	0x38
	.value	0x2ce
	.string	"_ZNKSs4findEPKcjj"
	.long	0xa1
	.byte	0x1
	.uleb128 0x1d
	.long	0x5e90
	.byte	0x1
	.uleb128 0x18
	.long	0x583
	.uleb128 0x18
	.long	0xaf
	.uleb128 0x18
	.long	0xaf
	.byte	0x0
	.uleb128 0x4c
	.long	0x57a4
	.byte	0x1
	.long	.LASF63
	.byte	0x35
	.value	0x61a
	.string	"_ZNKSs4findERKSsj"
	.long	0xa1
	.byte	0x1
	.uleb128 0x1d
	.long	0x5e90
	.byte	0x1
	.uleb128 0x18
	.long	0x5ead
	.uleb128 0x18
	.long	0xaf
	.byte	0x0
	.uleb128 0x4c
	.long	0x57d8
	.byte	0x1
	.long	.LASF63
	.byte	0x35
	.value	0x628
	.string	"_ZNKSs4findEPKcj"
	.long	0xa1
	.byte	0x1
	.uleb128 0x1d
	.long	0x5e90
	.byte	0x1
	.uleb128 0x18
	.long	0x583
	.uleb128 0x18
	.long	0xaf
	.byte	0x0
	.uleb128 0x4c
	.long	0x580a
	.byte	0x1
	.long	.LASF63
	.byte	0x38
	.value	0x2e1
	.string	"_ZNKSs4findEcj"
	.long	0xa1
	.byte	0x1
	.uleb128 0x1d
	.long	0x5e90
	.byte	0x1
	.uleb128 0x18
	.long	0x1a9
	.uleb128 0x18
	.long	0xaf
	.byte	0x0
	.uleb128 0x4c
	.long	0x5840
	.byte	0x1
	.long	.LASF64
	.byte	0x35
	.value	0x646
	.string	"_ZNKSs5rfindERKSsj"
	.long	0xa1
	.byte	0x1
	.uleb128 0x1d
	.long	0x5e90
	.byte	0x1
	.uleb128 0x18
	.long	0x5ead
	.uleb128 0x18
	.long	0xaf
	.byte	0x0
	.uleb128 0x4c
	.long	0x587b
	.byte	0x1
	.long	.LASF64
	.byte	0x38
	.value	0x2f3
	.string	"_ZNKSs5rfindEPKcjj"
	.long	0xa1
	.byte	0x1
	.uleb128 0x1d
	.long	0x5e90
	.byte	0x1
	.uleb128 0x18
	.long	0x583
	.uleb128 0x18
	.long	0xaf
	.uleb128 0x18
	.long	0xaf
	.byte	0x0
	.uleb128 0x4c
	.long	0x58b0
	.byte	0x1
	.long	.LASF64
	.byte	0x35
	.value	0x662
	.string	"_ZNKSs5rfindEPKcj"
	.long	0xa1
	.byte	0x1
	.uleb128 0x1d
	.long	0x5e90
	.byte	0x1
	.uleb128 0x18
	.long	0x583
	.uleb128 0x18
	.long	0xaf
	.byte	0x0
	.uleb128 0x4c
	.long	0x58e3
	.byte	0x1
	.long	.LASF64
	.byte	0x38
	.value	0x308
	.string	"_ZNKSs5rfindEcj"
	.long	0xa1
	.byte	0x1
	.uleb128 0x1d
	.long	0x5e90
	.byte	0x1
	.uleb128 0x18
	.long	0x1a9
	.uleb128 0x18
	.long	0xaf
	.byte	0x0
	.uleb128 0x4c
	.long	0x5922
	.byte	0x1
	.long	.LASF65
	.byte	0x35
	.value	0x680
	.string	"_ZNKSs13find_first_ofERKSsj"
	.long	0xa1
	.byte	0x1
	.uleb128 0x1d
	.long	0x5e90
	.byte	0x1
	.uleb128 0x18
	.long	0x5ead
	.uleb128 0x18
	.long	0xaf
	.byte	0x0
	.uleb128 0x4c
	.long	0x5966
	.byte	0x1
	.long	.LASF65
	.byte	0x38
	.value	0x319
	.string	"_ZNKSs13find_first_ofEPKcjj"
	.long	0xa1
	.byte	0x1
	.uleb128 0x1d
	.long	0x5e90
	.byte	0x1
	.uleb128 0x18
	.long	0x583
	.uleb128 0x18
	.long	0xaf
	.uleb128 0x18
	.long	0xaf
	.byte	0x0
	.uleb128 0x4c
	.long	0x59a4
	.byte	0x1
	.long	.LASF65
	.byte	0x35
	.value	0x69c
	.string	"_ZNKSs13find_first_ofEPKcj"
	.long	0xa1
	.byte	0x1
	.uleb128 0x1d
	.long	0x5e90
	.byte	0x1
	.uleb128 0x18
	.long	0x583
	.uleb128 0x18
	.long	0xaf
	.byte	0x0
	.uleb128 0x4c
	.long	0x59e0
	.byte	0x1
	.long	.LASF65
	.byte	0x35
	.value	0x6af
	.string	"_ZNKSs13find_first_ofEcj"
	.long	0xa1
	.byte	0x1
	.uleb128 0x1d
	.long	0x5e90
	.byte	0x1
	.uleb128 0x18
	.long	0x1a9
	.uleb128 0x18
	.long	0xaf
	.byte	0x0
	.uleb128 0x4c
	.long	0x5a1e
	.byte	0x1
	.long	.LASF66
	.byte	0x35
	.value	0x6bd
	.string	"_ZNKSs12find_last_ofERKSsj"
	.long	0xa1
	.byte	0x1
	.uleb128 0x1d
	.long	0x5e90
	.byte	0x1
	.uleb128 0x18
	.long	0x5ead
	.uleb128 0x18
	.long	0xaf
	.byte	0x0
	.uleb128 0x4c
	.long	0x5a61
	.byte	0x1
	.long	.LASF66
	.byte	0x38
	.value	0x328
	.string	"_ZNKSs12find_last_ofEPKcjj"
	.long	0xa1
	.byte	0x1
	.uleb128 0x1d
	.long	0x5e90
	.byte	0x1
	.uleb128 0x18
	.long	0x583
	.uleb128 0x18
	.long	0xaf
	.uleb128 0x18
	.long	0xaf
	.byte	0x0
	.uleb128 0x4c
	.long	0x5a9e
	.byte	0x1
	.long	.LASF66
	.byte	0x35
	.value	0x6d9
	.string	"_ZNKSs12find_last_ofEPKcj"
	.long	0xa1
	.byte	0x1
	.uleb128 0x1d
	.long	0x5e90
	.byte	0x1
	.uleb128 0x18
	.long	0x583
	.uleb128 0x18
	.long	0xaf
	.byte	0x0
	.uleb128 0x4c
	.long	0x5ad9
	.byte	0x1
	.long	.LASF66
	.byte	0x35
	.value	0x6ec
	.string	"_ZNKSs12find_last_ofEcj"
	.long	0xa1
	.byte	0x1
	.uleb128 0x1d
	.long	0x5e90
	.byte	0x1
	.uleb128 0x18
	.long	0x1a9
	.uleb128 0x18
	.long	0xaf
	.byte	0x0
	.uleb128 0x4c
	.long	0x5b1c
	.byte	0x1
	.long	.LASF67
	.byte	0x35
	.value	0x6fa
	.string	"_ZNKSs17find_first_not_ofERKSsj"
	.long	0xa1
	.byte	0x1
	.uleb128 0x1d
	.long	0x5e90
	.byte	0x1
	.uleb128 0x18
	.long	0x5ead
	.uleb128 0x18
	.long	0xaf
	.byte	0x0
	.uleb128 0x4c
	.long	0x5b64
	.byte	0x1
	.long	.LASF67
	.byte	0x38
	.value	0x33d
	.string	"_ZNKSs17find_first_not_ofEPKcjj"
	.long	0xa1
	.byte	0x1
	.uleb128 0x1d
	.long	0x5e90
	.byte	0x1
	.uleb128 0x18
	.long	0x583
	.uleb128 0x18
	.long	0xaf
	.uleb128 0x18
	.long	0xaf
	.byte	0x0
	.uleb128 0x4c
	.long	0x5ba6
	.byte	0x1
	.long	.LASF67
	.byte	0x35
	.value	0x717
	.string	"_ZNKSs17find_first_not_ofEPKcj"
	.long	0xa1
	.byte	0x1
	.uleb128 0x1d
	.long	0x5e90
	.byte	0x1
	.uleb128 0x18
	.long	0x583
	.uleb128 0x18
	.long	0xaf
	.byte	0x0
	.uleb128 0x4c
	.long	0x5be6
	.byte	0x1
	.long	.LASF67
	.byte	0x38
	.value	0x349
	.string	"_ZNKSs17find_first_not_ofEcj"
	.long	0xa1
	.byte	0x1
	.uleb128 0x1d
	.long	0x5e90
	.byte	0x1
	.uleb128 0x18
	.long	0x1a9
	.uleb128 0x18
	.long	0xaf
	.byte	0x0
	.uleb128 0x4c
	.long	0x5c28
	.byte	0x1
	.long	.LASF68
	.byte	0x35
	.value	0x735
	.string	"_ZNKSs16find_last_not_ofERKSsj"
	.long	0xa1
	.byte	0x1
	.uleb128 0x1d
	.long	0x5e90
	.byte	0x1
	.uleb128 0x18
	.long	0x5ead
	.uleb128 0x18
	.long	0xaf
	.byte	0x0
	.uleb128 0x4c
	.long	0x5c6f
	.byte	0x1
	.long	.LASF68
	.byte	0x38
	.value	0x354
	.string	"_ZNKSs16find_last_not_ofEPKcjj"
	.long	0xa1
	.byte	0x1
	.uleb128 0x1d
	.long	0x5e90
	.byte	0x1
	.uleb128 0x18
	.long	0x583
	.uleb128 0x18
	.long	0xaf
	.uleb128 0x18
	.long	0xaf
	.byte	0x0
	.uleb128 0x4c
	.long	0x5cb0
	.byte	0x1
	.long	.LASF68
	.byte	0x35
	.value	0x752
	.string	"_ZNKSs16find_last_not_ofEPKcj"
	.long	0xa1
	.byte	0x1
	.uleb128 0x1d
	.long	0x5e90
	.byte	0x1
	.uleb128 0x18
	.long	0x583
	.uleb128 0x18
	.long	0xaf
	.byte	0x0
	.uleb128 0x4c
	.long	0x5cef
	.byte	0x1
	.long	.LASF68
	.byte	0x38
	.value	0x369
	.string	"_ZNKSs16find_last_not_ofEcj"
	.long	0xa1
	.byte	0x1
	.uleb128 0x1d
	.long	0x5e90
	.byte	0x1
	.uleb128 0x18
	.long	0x1a9
	.uleb128 0x18
	.long	0xaf
	.byte	0x0
	.uleb128 0x4c
	.long	0x5d23
	.byte	0x1
	.long	.LASF69
	.byte	0x35
	.value	0x772
	.string	"_ZNKSs6substrEjj"
	.long	0x4226
	.byte	0x1
	.uleb128 0x1d
	.long	0x5e90
	.byte	0x1
	.uleb128 0x18
	.long	0xaf
	.uleb128 0x18
	.long	0xaf
	.byte	0x0
	.uleb128 0x4c
	.long	0x5d55
	.byte	0x1
	.long	.LASF70
	.byte	0x35
	.value	0x784
	.string	"_ZNKSs7compareERKSs"
	.long	0x9a
	.byte	0x1
	.uleb128 0x1d
	.long	0x5e90
	.byte	0x1
	.uleb128 0x18
	.long	0x5ead
	.byte	0x0
	.uleb128 0x4c
	.long	0x5d93
	.byte	0x1
	.long	.LASF70
	.byte	0x38
	.value	0x37d
	.string	"_ZNKSs7compareEjjRKSs"
	.long	0x9a
	.byte	0x1
	.uleb128 0x1d
	.long	0x5e90
	.byte	0x1
	.uleb128 0x18
	.long	0xaf
	.uleb128 0x18
	.long	0xaf
	.uleb128 0x18
	.long	0x5ead
	.byte	0x0
	.uleb128 0x4c
	.long	0x5ddd
	.byte	0x1
	.long	.LASF70
	.byte	0x38
	.value	0x38d
	.string	"_ZNKSs7compareEjjRKSsjj"
	.long	0x9a
	.byte	0x1
	.uleb128 0x1d
	.long	0x5e90
	.byte	0x1
	.uleb128 0x18
	.long	0xaf
	.uleb128 0x18
	.long	0xaf
	.uleb128 0x18
	.long	0x5ead
	.uleb128 0x18
	.long	0xaf
	.uleb128 0x18
	.long	0xaf
	.byte	0x0
	.uleb128 0x4c
	.long	0x5e0e
	.byte	0x1
	.long	.LASF70
	.byte	0x38
	.value	0x39e
	.string	"_ZNKSs7compareEPKc"
	.long	0x9a
	.byte	0x1
	.uleb128 0x1d
	.long	0x5e90
	.byte	0x1
	.uleb128 0x18
	.long	0x583
	.byte	0x0
	.uleb128 0x4c
	.long	0x5e4b
	.byte	0x1
	.long	.LASF70
	.byte	0x38
	.value	0x3ad
	.string	"_ZNKSs7compareEjjPKc"
	.long	0x9a
	.byte	0x1
	.uleb128 0x1d
	.long	0x5e90
	.byte	0x1
	.uleb128 0x18
	.long	0xaf
	.uleb128 0x18
	.long	0xaf
	.uleb128 0x18
	.long	0x583
	.byte	0x0
	.uleb128 0x50
	.byte	0x1
	.long	.LASF70
	.byte	0x38
	.value	0x3be
	.string	"_ZNKSs7compareEjjPKcj"
	.long	0x9a
	.byte	0x1
	.uleb128 0x1d
	.long	0x5e90
	.byte	0x1
	.uleb128 0x18
	.long	0xaf
	.uleb128 0x18
	.long	0xaf
	.uleb128 0x18
	.long	0x583
	.uleb128 0x18
	.long	0xaf
	.byte	0x0
	.byte	0x0
	.uleb128 0x10
	.long	0xa1
	.uleb128 0x6
	.byte	0x4
	.long	0x5e96
	.uleb128 0x10
	.long	0x4226
	.uleb128 0x6
	.byte	0x4
	.long	0x4226
	.uleb128 0x6
	.byte	0x4
	.long	0x425a
	.uleb128 0x23
	.byte	0x4
	.long	0x425a
	.uleb128 0x23
	.byte	0x4
	.long	0x5e96
	.uleb128 0x23
	.byte	0x4
	.long	0x4226
	.uleb128 0x40
	.long	0x5ef0
	.long	0x4254
	.byte	0xc
	.byte	0x35
	.byte	0x93
	.uleb128 0x51
	.long	.LASF71
	.byte	0x35
	.byte	0x94
	.long	0xa1
	.byte	0x2
	.byte	0x23
	.uleb128 0x0
	.uleb128 0x51
	.long	.LASF72
	.byte	0x35
	.byte	0x95
	.long	0xa1
	.byte	0x2
	.byte	0x23
	.uleb128 0x4
	.uleb128 0x51
	.long	.LASF73
	.byte	0x35
	.byte	0x96
	.long	0x420c
	.byte	0x2
	.byte	0x23
	.uleb128 0x8
	.byte	0x0
	.uleb128 0x40
	.long	0x621f
	.long	0x425a
	.byte	0xc
	.byte	0x35
	.byte	0x9a
	.uleb128 0x24
	.long	0x5eb9
	.byte	0x2
	.byte	0x23
	.uleb128 0x0
	.byte	0x1
	.uleb128 0x52
	.long	.LASF74
	.byte	0x38
	.byte	0x3f
	.long	.LASF76
	.long	0x5e8b
	.byte	0x1
	.byte	0x1
	.uleb128 0x52
	.long	.LASF75
	.byte	0x38
	.byte	0x44
	.long	.LASF77
	.long	0x589
	.byte	0x1
	.byte	0x1
	.uleb128 0x53
	.long	.LASF78
	.byte	0x38
	.byte	0x50
	.string	"_ZNSs4_Rep20_S_empty_rep_storageE"
	.long	0x621f
	.byte	0x1
	.byte	0x1
	.uleb128 0x54
	.byte	0x1
	.long	.LASF39
	.byte	0x35
	.byte	0xb3
	.string	"_ZNSs4_Rep12_S_empty_repEv"
	.long	0x5ea7
	.byte	0x1
	.uleb128 0x21
	.long	0x5fb2
	.byte	0x1
	.long	.LASF79
	.byte	0x35
	.byte	0xba
	.string	"_ZNKSs4_Rep12_M_is_leakedEv"
	.long	0xb5a
	.byte	0x1
	.uleb128 0x1d
	.long	0x622f
	.byte	0x1
	.byte	0x0
	.uleb128 0x21
	.long	0x5fe6
	.byte	0x1
	.long	.LASF80
	.byte	0x35
	.byte	0xbe
	.string	"_ZNKSs4_Rep12_M_is_sharedEv"
	.long	0xb5a
	.byte	0x1
	.uleb128 0x1d
	.long	0x622f
	.byte	0x1
	.byte	0x0
	.uleb128 0x41
	.long	0x6016
	.byte	0x1
	.long	.LASF81
	.byte	0x35
	.byte	0xc2
	.string	"_ZNSs4_Rep13_M_set_leakedEv"
	.byte	0x1
	.uleb128 0x1d
	.long	0x5ea1
	.byte	0x1
	.byte	0x0
	.uleb128 0x41
	.long	0x6048
	.byte	0x1
	.long	.LASF82
	.byte	0x35
	.byte	0xc6
	.string	"_ZNSs4_Rep15_M_set_sharableEv"
	.byte	0x1
	.uleb128 0x1d
	.long	0x5ea1
	.byte	0x1
	.byte	0x0
	.uleb128 0x41
	.long	0x608a
	.byte	0x1
	.long	.LASF83
	.byte	0x35
	.byte	0xca
	.string	"_ZNSs4_Rep26_M_set_length_and_sharableEj"
	.byte	0x1
	.uleb128 0x1d
	.long	0x5ea1
	.byte	0x1
	.uleb128 0x18
	.long	0xaf
	.byte	0x0
	.uleb128 0x21
	.long	0x60bb
	.byte	0x1
	.long	.LASF84
	.byte	0x35
	.byte	0xd4
	.string	"_ZNSs4_Rep10_M_refdataEv"
	.long	0x1a3
	.byte	0x1
	.uleb128 0x1d
	.long	0x5ea1
	.byte	0x1
	.byte	0x0
	.uleb128 0x1f
	.long	0x60ff
	.byte	0x1
	.string	"_M_grab"
	.byte	0x35
	.byte	0xd8
	.string	"_ZNSs4_Rep7_M_grabERKSaIcES2_"
	.long	0x1a3
	.byte	0x1
	.uleb128 0x1d
	.long	0x5ea1
	.byte	0x1
	.uleb128 0x18
	.long	0x3f1b
	.uleb128 0x18
	.long	0x3f1b
	.byte	0x0
	.uleb128 0x4c
	.long	0x6140
	.byte	0x1
	.long	.LASF85
	.byte	0x38
	.value	0x210
	.string	"_ZNSs4_Rep9_S_createEjjRKSaIcE"
	.long	0x5ea1
	.byte	0x1
	.uleb128 0x18
	.long	0xaf
	.uleb128 0x18
	.long	0xaf
	.uleb128 0x18
	.long	0x3f1b
	.byte	0x0
	.uleb128 0x41
	.long	0x6178
	.byte	0x1
	.long	.LASF86
	.byte	0x35
	.byte	0xe3
	.string	"_ZNSs4_Rep10_M_disposeERKSaIcE"
	.byte	0x1
	.uleb128 0x1d
	.long	0x5ea1
	.byte	0x1
	.uleb128 0x18
	.long	0x3f1b
	.byte	0x0
	.uleb128 0x4d
	.long	0x61b1
	.byte	0x1
	.long	.LASF87
	.byte	0x38
	.value	0x1aa
	.string	"_ZNSs4_Rep10_M_destroyERKSaIcE"
	.byte	0x1
	.uleb128 0x1d
	.long	0x5ea1
	.byte	0x1
	.uleb128 0x18
	.long	0x3f1b
	.byte	0x0
	.uleb128 0x21
	.long	0x61e2
	.byte	0x1
	.long	.LASF88
	.byte	0x35
	.byte	0xf0
	.string	"_ZNSs4_Rep10_M_refcopyEv"
	.long	0x1a3
	.byte	0x1
	.uleb128 0x1d
	.long	0x5ea1
	.byte	0x1
	.byte	0x0
	.uleb128 0x50
	.byte	0x1
	.long	.LASF89
	.byte	0x38
	.value	0x25d
	.string	"_ZNSs4_Rep8_M_cloneERKSaIcEj"
	.long	0x1a3
	.byte	0x1
	.uleb128 0x1d
	.long	0x5ea1
	.byte	0x1
	.uleb128 0x18
	.long	0x3f1b
	.uleb128 0x18
	.long	0xaf
	.byte	0x0
	.byte	0x0
	.uleb128 0xd
	.long	0x622f
	.long	0xa1
	.uleb128 0xe
	.long	0x179
	.byte	0x3
	.byte	0x0
	.uleb128 0x6
	.byte	0x4
	.long	0x6235
	.uleb128 0x10
	.long	0x5ef0
	.uleb128 0x6
	.byte	0x4
	.long	0x2033
	.uleb128 0x40
	.long	0x8afa
	.long	0x1fe4
	.byte	0x4
	.byte	0x34
	.byte	0x38
	.uleb128 0x44
	.long	.LASF25
	.byte	0x35
	.value	0x10b
	.long	.LASF90
	.long	0x5e8b
	.byte	0x1
	.byte	0x1
	.uleb128 0x45
	.long	.LASF27
	.byte	0x35
	.value	0x10f
	.long	0x2033
	.byte	0x2
	.byte	0x23
	.uleb128 0x0
	.byte	0x3
	.uleb128 0x2f
	.long	.LASF28
	.byte	0x1
	.uleb128 0x16
	.string	"_Rep"
	.byte	0x1
	.uleb128 0x46
	.long	0x62c0
	.byte	0x1
	.long	.LASF29
	.byte	0x35
	.value	0x112
	.string	"_ZNKSbIwSt11char_traitsIwESaIwEE7_M_dataEv"
	.long	0xe6e
	.byte	0x3
	.byte	0x1
	.uleb128 0x1d
	.long	0x8afa
	.byte	0x1
	.byte	0x0
	.uleb128 0x46
	.long	0x630a
	.byte	0x1
	.long	.LASF29
	.byte	0x35
	.value	0x116
	.string	"_ZNSbIwSt11char_traitsIwESaIwEE7_M_dataEPw"
	.long	0xe6e
	.byte	0x3
	.byte	0x1
	.uleb128 0x1d
	.long	0x8b05
	.byte	0x1
	.uleb128 0x18
	.long	0xe6e
	.byte	0x0
	.uleb128 0x47
	.long	0x6351
	.byte	0x1
	.string	"_M_rep"
	.byte	0x35
	.value	0x11a
	.string	"_ZNKSbIwSt11char_traitsIwESaIwEE6_M_repEv"
	.long	0x8b0b
	.byte	0x3
	.byte	0x1
	.uleb128 0x1d
	.long	0x8afa
	.byte	0x1
	.byte	0x0
	.uleb128 0x46
	.long	0x6398
	.byte	0x1
	.long	.LASF30
	.byte	0x35
	.value	0x120
	.string	"_ZNKSbIwSt11char_traitsIwESaIwEE9_M_ibeginEv"
	.long	0x2a25
	.byte	0x3
	.byte	0x1
	.uleb128 0x1d
	.long	0x8afa
	.byte	0x1
	.byte	0x0
	.uleb128 0x47
	.long	0x63e1
	.byte	0x1
	.string	"_M_iend"
	.byte	0x35
	.value	0x124
	.string	"_ZNKSbIwSt11char_traitsIwESaIwEE7_M_iendEv"
	.long	0x2a25
	.byte	0x3
	.byte	0x1
	.uleb128 0x1d
	.long	0x8afa
	.byte	0x1
	.byte	0x0
	.uleb128 0x48
	.long	0x6425
	.byte	0x1
	.string	"_M_leak"
	.byte	0x35
	.value	0x128
	.string	"_ZNSbIwSt11char_traitsIwESaIwEE7_M_leakEv"
	.byte	0x3
	.byte	0x1
	.uleb128 0x1d
	.long	0x8b05
	.byte	0x1
	.byte	0x0
	.uleb128 0x46
	.long	0x6478
	.byte	0x1
	.long	.LASF31
	.byte	0x35
	.value	0x12f
	.string	"_ZNKSbIwSt11char_traitsIwESaIwEE8_M_checkEjPKc"
	.long	0xa1
	.byte	0x3
	.byte	0x1
	.uleb128 0x1d
	.long	0x8afa
	.byte	0x1
	.uleb128 0x18
	.long	0xaf
	.uleb128 0x18
	.long	0x583
	.byte	0x0
	.uleb128 0x49
	.long	0x64d5
	.byte	0x1
	.long	.LASF32
	.byte	0x35
	.value	0x137
	.string	"_ZNKSbIwSt11char_traitsIwESaIwEE15_M_check_lengthEjjPKc"
	.byte	0x3
	.byte	0x1
	.uleb128 0x1d
	.long	0x8afa
	.byte	0x1
	.uleb128 0x18
	.long	0xaf
	.uleb128 0x18
	.long	0xaf
	.uleb128 0x18
	.long	0x583
	.byte	0x0
	.uleb128 0x46
	.long	0x6526
	.byte	0x1
	.long	.LASF33
	.byte	0x35
	.value	0x13f
	.string	"_ZNKSbIwSt11char_traitsIwESaIwEE8_M_limitEjj"
	.long	0xa1
	.byte	0x3
	.byte	0x1
	.uleb128 0x1d
	.long	0x8afa
	.byte	0x1
	.uleb128 0x18
	.long	0xaf
	.uleb128 0x18
	.long	0xaf
	.byte	0x0
	.uleb128 0x46
	.long	0x6577
	.byte	0x1
	.long	.LASF34
	.byte	0x35
	.value	0x147
	.string	"_ZNKSbIwSt11char_traitsIwESaIwEE11_M_disjunctEPKw"
	.long	0xb5a
	.byte	0x3
	.byte	0x1
	.uleb128 0x1d
	.long	0x8afa
	.byte	0x1
	.uleb128 0x18
	.long	0xe7a
	.byte	0x0
	.uleb128 0x48
	.long	0x65c9
	.byte	0x1
	.string	"_M_copy"
	.byte	0x35
	.value	0x150
	.string	"_ZNSbIwSt11char_traitsIwESaIwEE7_M_copyEPwPKwj"
	.byte	0x3
	.byte	0x1
	.uleb128 0x18
	.long	0xe6e
	.uleb128 0x18
	.long	0xe7a
	.uleb128 0x18
	.long	0xaf
	.byte	0x0
	.uleb128 0x48
	.long	0x661b
	.byte	0x1
	.string	"_M_move"
	.byte	0x35
	.value	0x159
	.string	"_ZNSbIwSt11char_traitsIwESaIwEE7_M_moveEPwPKwj"
	.byte	0x3
	.byte	0x1
	.uleb128 0x18
	.long	0xe6e
	.uleb128 0x18
	.long	0xe7a
	.uleb128 0x18
	.long	0xaf
	.byte	0x0
	.uleb128 0x49
	.long	0x6669
	.byte	0x1
	.long	.LASF35
	.byte	0x35
	.value	0x162
	.string	"_ZNSbIwSt11char_traitsIwESaIwEE9_M_assignEPwjw"
	.byte	0x3
	.byte	0x1
	.uleb128 0x18
	.long	0xe6e
	.uleb128 0x18
	.long	0xaf
	.uleb128 0x18
	.long	0x5e0
	.byte	0x0
	.uleb128 0x49
	.long	0x66e4
	.byte	0x1
	.long	.LASF36
	.byte	0x35
	.value	0x175
	.string	"_ZNSbIwSt11char_traitsIwESaIwEE13_S_copy_charsEPwN9__gnu_cxx17__normal_iteratorIS3_S2_EES6_"
	.byte	0x3
	.byte	0x1
	.uleb128 0x18
	.long	0xe6e
	.uleb128 0x18
	.long	0x2a25
	.uleb128 0x18
	.long	0x2a25
	.byte	0x0
	.uleb128 0x49
	.long	0x675f
	.byte	0x1
	.long	.LASF36
	.byte	0x35
	.value	0x179
	.string	"_ZNSbIwSt11char_traitsIwESaIwEE13_S_copy_charsEPwN9__gnu_cxx17__normal_iteratorIPKwS2_EES8_"
	.byte	0x3
	.byte	0x1
	.uleb128 0x18
	.long	0xe6e
	.uleb128 0x18
	.long	0x2a94
	.uleb128 0x18
	.long	0x2a94
	.byte	0x0
	.uleb128 0x49
	.long	0x67b6
	.byte	0x1
	.long	.LASF36
	.byte	0x35
	.value	0x17d
	.string	"_ZNSbIwSt11char_traitsIwESaIwEE13_S_copy_charsEPwS3_S3_"
	.byte	0x3
	.byte	0x1
	.uleb128 0x18
	.long	0xe6e
	.uleb128 0x18
	.long	0xe6e
	.uleb128 0x18
	.long	0xe6e
	.byte	0x0
	.uleb128 0x49
	.long	0x680d
	.byte	0x1
	.long	.LASF36
	.byte	0x35
	.value	0x181
	.string	"_ZNSbIwSt11char_traitsIwESaIwEE13_S_copy_charsEPwPKwS5_"
	.byte	0x3
	.byte	0x1
	.uleb128 0x18
	.long	0xe6e
	.uleb128 0x18
	.long	0xe7a
	.uleb128 0x18
	.long	0xe7a
	.byte	0x0
	.uleb128 0x49
	.long	0x6860
	.byte	0x1
	.long	.LASF37
	.byte	0x38
	.value	0x1c2
	.string	"_ZNSbIwSt11char_traitsIwESaIwEE9_M_mutateEjjj"
	.byte	0x3
	.byte	0x1
	.uleb128 0x1d
	.long	0x8b05
	.byte	0x1
	.uleb128 0x18
	.long	0xaf
	.uleb128 0x18
	.long	0xaf
	.uleb128 0x18
	.long	0xaf
	.byte	0x0
	.uleb128 0x49
	.long	0x68a6
	.byte	0x1
	.long	.LASF38
	.byte	0x38
	.value	0x1b4
	.string	"_ZNSbIwSt11char_traitsIwESaIwEE12_M_leak_hardEv"
	.byte	0x3
	.byte	0x1
	.uleb128 0x1d
	.long	0x8b05
	.byte	0x1
	.byte	0x0
	.uleb128 0x4a
	.byte	0x1
	.long	.LASF39
	.byte	0x35
	.value	0x18b
	.string	"_ZNSbIwSt11char_traitsIwESaIwEE12_S_empty_repEv"
	.long	0x8b11
	.byte	0x3
	.byte	0x1
	.uleb128 0x4b
	.long	0x68fa
	.byte	0x1
	.long	.LASF40
	.byte	0x35
	.value	0x802
	.byte	0x1
	.uleb128 0x1d
	.long	0x8b05
	.byte	0x1
	.byte	0x0
	.uleb128 0x1c
	.long	0x6913
	.byte	0x1
	.long	.LASF40
	.byte	0x38
	.byte	0xbe
	.byte	0x1
	.uleb128 0x1d
	.long	0x8b05
	.byte	0x1
	.uleb128 0x18
	.long	0x41f7
	.byte	0x0
	.uleb128 0x1c
	.long	0x692c
	.byte	0x1
	.long	.LASF40
	.byte	0x38
	.byte	0xb6
	.byte	0x1
	.uleb128 0x1d
	.long	0x8b05
	.byte	0x1
	.uleb128 0x18
	.long	0x8b17
	.byte	0x0
	.uleb128 0x1c
	.long	0x694f
	.byte	0x1
	.long	.LASF40
	.byte	0x38
	.byte	0xc4
	.byte	0x1
	.uleb128 0x1d
	.long	0x8b05
	.byte	0x1
	.uleb128 0x18
	.long	0x8b17
	.uleb128 0x18
	.long	0xaf
	.uleb128 0x18
	.long	0xaf
	.byte	0x0
	.uleb128 0x1c
	.long	0x6977
	.byte	0x1
	.long	.LASF40
	.byte	0x38
	.byte	0xcf
	.byte	0x1
	.uleb128 0x1d
	.long	0x8b05
	.byte	0x1
	.uleb128 0x18
	.long	0x8b17
	.uleb128 0x18
	.long	0xaf
	.uleb128 0x18
	.long	0xaf
	.uleb128 0x18
	.long	0x41f7
	.byte	0x0
	.uleb128 0x1c
	.long	0x699a
	.byte	0x1
	.long	.LASF40
	.byte	0x38
	.byte	0xda
	.byte	0x1
	.uleb128 0x1d
	.long	0x8b05
	.byte	0x1
	.uleb128 0x18
	.long	0xe7a
	.uleb128 0x18
	.long	0xaf
	.uleb128 0x18
	.long	0x41f7
	.byte	0x0
	.uleb128 0x1c
	.long	0x69b8
	.byte	0x1
	.long	.LASF40
	.byte	0x38
	.byte	0xe1
	.byte	0x1
	.uleb128 0x1d
	.long	0x8b05
	.byte	0x1
	.uleb128 0x18
	.long	0xe7a
	.uleb128 0x18
	.long	0x41f7
	.byte	0x0
	.uleb128 0x1c
	.long	0x69db
	.byte	0x1
	.long	.LASF40
	.byte	0x38
	.byte	0xe8
	.byte	0x1
	.uleb128 0x1d
	.long	0x8b05
	.byte	0x1
	.uleb128 0x18
	.long	0xaf
	.uleb128 0x18
	.long	0x5e0
	.uleb128 0x18
	.long	0x41f7
	.byte	0x0
	.uleb128 0x4b
	.long	0x69f6
	.byte	0x1
	.long	.LASF41
	.byte	0x35
	.value	0x1dd
	.byte	0x1
	.uleb128 0x1d
	.long	0x8b05
	.byte	0x1
	.uleb128 0x1d
	.long	0x9a
	.byte	0x1
	.byte	0x0
	.uleb128 0x4c
	.long	0x6a3c
	.byte	0x1
	.long	.LASF5
	.byte	0x35
	.value	0x1e5
	.string	"_ZNSbIwSt11char_traitsIwESaIwEEaSERKS2_"
	.long	0x8b1d
	.byte	0x1
	.uleb128 0x1d
	.long	0x8b05
	.byte	0x1
	.uleb128 0x18
	.long	0x8b17
	.byte	0x0
	.uleb128 0x4c
	.long	0x6a80
	.byte	0x1
	.long	.LASF5
	.byte	0x35
	.value	0x1ed
	.string	"_ZNSbIwSt11char_traitsIwESaIwEEaSEPKw"
	.long	0x8b1d
	.byte	0x1
	.uleb128 0x1d
	.long	0x8b05
	.byte	0x1
	.uleb128 0x18
	.long	0xe7a
	.byte	0x0
	.uleb128 0x4c
	.long	0x6ac2
	.byte	0x1
	.long	.LASF5
	.byte	0x35
	.value	0x1f8
	.string	"_ZNSbIwSt11char_traitsIwESaIwEEaSEw"
	.long	0x8b1d
	.byte	0x1
	.uleb128 0x1d
	.long	0x8b05
	.byte	0x1
	.uleb128 0x18
	.long	0x5e0
	.byte	0x0
	.uleb128 0x4c
	.long	0x6b03
	.byte	0x1
	.long	.LASF42
	.byte	0x35
	.value	0x204
	.string	"_ZNSbIwSt11char_traitsIwESaIwEE5beginEv"
	.long	0x2a25
	.byte	0x1
	.uleb128 0x1d
	.long	0x8b05
	.byte	0x1
	.byte	0x0
	.uleb128 0x4c
	.long	0x6b45
	.byte	0x1
	.long	.LASF42
	.byte	0x35
	.value	0x20f
	.string	"_ZNKSbIwSt11char_traitsIwESaIwEE5beginEv"
	.long	0x2a94
	.byte	0x1
	.uleb128 0x1d
	.long	0x8afa
	.byte	0x1
	.byte	0x0
	.uleb128 0x3b
	.long	0x6b84
	.byte	0x1
	.string	"end"
	.byte	0x35
	.value	0x217
	.string	"_ZNSbIwSt11char_traitsIwESaIwEE3endEv"
	.long	0x2a25
	.byte	0x1
	.uleb128 0x1d
	.long	0x8b05
	.byte	0x1
	.byte	0x0
	.uleb128 0x3b
	.long	0x6bc4
	.byte	0x1
	.string	"end"
	.byte	0x35
	.value	0x222
	.string	"_ZNKSbIwSt11char_traitsIwESaIwEE3endEv"
	.long	0x2a94
	.byte	0x1
	.uleb128 0x1d
	.long	0x8afa
	.byte	0x1
	.byte	0x0
	.uleb128 0x4c
	.long	0x6c06
	.byte	0x1
	.long	.LASF43
	.byte	0x35
	.value	0x22b
	.string	"_ZNSbIwSt11char_traitsIwESaIwEE6rbeginEv"
	.long	0x2105
	.byte	0x1
	.uleb128 0x1d
	.long	0x8b05
	.byte	0x1
	.byte	0x0
	.uleb128 0x4c
	.long	0x6c49
	.byte	0x1
	.long	.LASF43
	.byte	0x35
	.value	0x234
	.string	"_ZNKSbIwSt11char_traitsIwESaIwEE6rbeginEv"
	.long	0x2071
	.byte	0x1
	.uleb128 0x1d
	.long	0x8afa
	.byte	0x1
	.byte	0x0
	.uleb128 0x4c
	.long	0x6c89
	.byte	0x1
	.long	.LASF44
	.byte	0x35
	.value	0x23d
	.string	"_ZNSbIwSt11char_traitsIwESaIwEE4rendEv"
	.long	0x2105
	.byte	0x1
	.uleb128 0x1d
	.long	0x8b05
	.byte	0x1
	.byte	0x0
	.uleb128 0x4c
	.long	0x6cca
	.byte	0x1
	.long	.LASF44
	.byte	0x35
	.value	0x246
	.string	"_ZNKSbIwSt11char_traitsIwESaIwEE4rendEv"
	.long	0x2071
	.byte	0x1
	.uleb128 0x1d
	.long	0x8afa
	.byte	0x1
	.byte	0x0
	.uleb128 0x4c
	.long	0x6d0b
	.byte	0x1
	.long	.LASF45
	.byte	0x35
	.value	0x24e
	.string	"_ZNKSbIwSt11char_traitsIwESaIwEE4sizeEv"
	.long	0xa1
	.byte	0x1
	.uleb128 0x1d
	.long	0x8afa
	.byte	0x1
	.byte	0x0
	.uleb128 0x4c
	.long	0x6d4e
	.byte	0x1
	.long	.LASF46
	.byte	0x35
	.value	0x254
	.string	"_ZNKSbIwSt11char_traitsIwESaIwEE6lengthEv"
	.long	0xa1
	.byte	0x1
	.uleb128 0x1d
	.long	0x8afa
	.byte	0x1
	.byte	0x0
	.uleb128 0x4c
	.long	0x6d93
	.byte	0x1
	.long	.LASF21
	.byte	0x35
	.value	0x259
	.string	"_ZNKSbIwSt11char_traitsIwESaIwEE8max_sizeEv"
	.long	0xa1
	.byte	0x1
	.uleb128 0x1d
	.long	0x8afa
	.byte	0x1
	.byte	0x0
	.uleb128 0x4d
	.long	0x6ddc
	.byte	0x1
	.long	.LASF47
	.byte	0x38
	.value	0x26d
	.string	"_ZNSbIwSt11char_traitsIwESaIwEE6resizeEjw"
	.byte	0x1
	.uleb128 0x1d
	.long	0x8b05
	.byte	0x1
	.uleb128 0x18
	.long	0xaf
	.uleb128 0x18
	.long	0x5e0
	.byte	0x0
	.uleb128 0x4d
	.long	0x6e1f
	.byte	0x1
	.long	.LASF47
	.byte	0x35
	.value	0x274
	.string	"_ZNSbIwSt11char_traitsIwESaIwEE6resizeEj"
	.byte	0x1
	.uleb128 0x1d
	.long	0x8b05
	.byte	0x1
	.uleb128 0x18
	.long	0xaf
	.byte	0x0
	.uleb128 0x4c
	.long	0x6e64
	.byte	0x1
	.long	.LASF48
	.byte	0x35
	.value	0x27c
	.string	"_ZNKSbIwSt11char_traitsIwESaIwEE8capacityEv"
	.long	0xa1
	.byte	0x1
	.uleb128 0x1d
	.long	0x8afa
	.byte	0x1
	.byte	0x0
	.uleb128 0x4d
	.long	0x6ea8
	.byte	0x1
	.long	.LASF49
	.byte	0x38
	.value	0x1e3
	.string	"_ZNSbIwSt11char_traitsIwESaIwEE7reserveEj"
	.byte	0x1
	.uleb128 0x1d
	.long	0x8b05
	.byte	0x1
	.uleb128 0x18
	.long	0xaf
	.byte	0x0
	.uleb128 0x4d
	.long	0x6ee5
	.byte	0x1
	.long	.LASF50
	.byte	0x35
	.value	0x297
	.string	"_ZNSbIwSt11char_traitsIwESaIwEE5clearEv"
	.byte	0x1
	.uleb128 0x1d
	.long	0x8b05
	.byte	0x1
	.byte	0x0
	.uleb128 0x4c
	.long	0x6f27
	.byte	0x1
	.long	.LASF51
	.byte	0x35
	.value	0x29e
	.string	"_ZNKSbIwSt11char_traitsIwESaIwEE5emptyEv"
	.long	0xb5a
	.byte	0x1
	.uleb128 0x1d
	.long	0x8afa
	.byte	0x1
	.byte	0x0
	.uleb128 0x4c
	.long	0x6f6a
	.byte	0x1
	.long	.LASF8
	.byte	0x35
	.value	0x2ad
	.string	"_ZNKSbIwSt11char_traitsIwESaIwEEixEj"
	.long	0x3c3c
	.byte	0x1
	.uleb128 0x1d
	.long	0x8afa
	.byte	0x1
	.uleb128 0x18
	.long	0xaf
	.byte	0x0
	.uleb128 0x4c
	.long	0x6fac
	.byte	0x1
	.long	.LASF8
	.byte	0x35
	.value	0x2be
	.string	"_ZNSbIwSt11char_traitsIwESaIwEEixEj"
	.long	0x3c36
	.byte	0x1
	.uleb128 0x1d
	.long	0x8b05
	.byte	0x1
	.uleb128 0x18
	.long	0xaf
	.byte	0x0
	.uleb128 0x3b
	.long	0x6fef
	.byte	0x1
	.string	"at"
	.byte	0x35
	.value	0x2d3
	.string	"_ZNKSbIwSt11char_traitsIwESaIwEE2atEj"
	.long	0x3c3c
	.byte	0x1
	.uleb128 0x1d
	.long	0x8afa
	.byte	0x1
	.uleb128 0x18
	.long	0xaf
	.byte	0x0
	.uleb128 0x3b
	.long	0x7031
	.byte	0x1
	.string	"at"
	.byte	0x35
	.value	0x2e6
	.string	"_ZNSbIwSt11char_traitsIwESaIwEE2atEj"
	.long	0x3c36
	.byte	0x1
	.uleb128 0x1d
	.long	0x8b05
	.byte	0x1
	.uleb128 0x18
	.long	0xaf
	.byte	0x0
	.uleb128 0x4c
	.long	0x7077
	.byte	0x1
	.long	.LASF52
	.byte	0x35
	.value	0x2f5
	.string	"_ZNSbIwSt11char_traitsIwESaIwEEpLERKS2_"
	.long	0x8b1d
	.byte	0x1
	.uleb128 0x1d
	.long	0x8b05
	.byte	0x1
	.uleb128 0x18
	.long	0x8b17
	.byte	0x0
	.uleb128 0x4c
	.long	0x70bb
	.byte	0x1
	.long	.LASF52
	.byte	0x35
	.value	0x2fe
	.string	"_ZNSbIwSt11char_traitsIwESaIwEEpLEPKw"
	.long	0x8b1d
	.byte	0x1
	.uleb128 0x1d
	.long	0x8b05
	.byte	0x1
	.uleb128 0x18
	.long	0xe7a
	.byte	0x0
	.uleb128 0x4c
	.long	0x70fd
	.byte	0x1
	.long	.LASF52
	.byte	0x35
	.value	0x307
	.string	"_ZNSbIwSt11char_traitsIwESaIwEEpLEw"
	.long	0x8b1d
	.byte	0x1
	.uleb128 0x1d
	.long	0x8b05
	.byte	0x1
	.uleb128 0x18
	.long	0x5e0
	.byte	0x0
	.uleb128 0x4c
	.long	0x7148
	.byte	0x1
	.long	.LASF53
	.byte	0x38
	.value	0x149
	.string	"_ZNSbIwSt11char_traitsIwESaIwEE6appendERKS2_"
	.long	0x8b1d
	.byte	0x1
	.uleb128 0x1d
	.long	0x8b05
	.byte	0x1
	.uleb128 0x18
	.long	0x8b17
	.byte	0x0
	.uleb128 0x4c
	.long	0x719f
	.byte	0x1
	.long	.LASF53
	.byte	0x38
	.value	0x15a
	.string	"_ZNSbIwSt11char_traitsIwESaIwEE6appendERKS2_jj"
	.long	0x8b1d
	.byte	0x1
	.uleb128 0x1d
	.long	0x8b05
	.byte	0x1
	.uleb128 0x18
	.long	0x8b17
	.uleb128 0x18
	.long	0xaf
	.uleb128 0x18
	.long	0xaf
	.byte	0x0
	.uleb128 0x4c
	.long	0x71ee
	.byte	0x1
	.long	.LASF53
	.byte	0x38
	.value	0x12e
	.string	"_ZNSbIwSt11char_traitsIwESaIwEE6appendEPKwj"
	.long	0x8b1d
	.byte	0x1
	.uleb128 0x1d
	.long	0x8b05
	.byte	0x1
	.uleb128 0x18
	.long	0xe7a
	.uleb128 0x18
	.long	0xaf
	.byte	0x0
	.uleb128 0x4c
	.long	0x7237
	.byte	0x1
	.long	.LASF53
	.byte	0x35
	.value	0x333
	.string	"_ZNSbIwSt11char_traitsIwESaIwEE6appendEPKw"
	.long	0x8b1d
	.byte	0x1
	.uleb128 0x1d
	.long	0x8b05
	.byte	0x1
	.uleb128 0x18
	.long	0xe7a
	.byte	0x0
	.uleb128 0x4c
	.long	0x7284
	.byte	0x1
	.long	.LASF53
	.byte	0x38
	.value	0x11d
	.string	"_ZNSbIwSt11char_traitsIwESaIwEE6appendEjw"
	.long	0x8b1d
	.byte	0x1
	.uleb128 0x1d
	.long	0x8b05
	.byte	0x1
	.uleb128 0x18
	.long	0xaf
	.uleb128 0x18
	.long	0x5e0
	.byte	0x0
	.uleb128 0x4d
	.long	0x72ca
	.byte	0x1
	.long	.LASF54
	.byte	0x35
	.value	0x356
	.string	"_ZNSbIwSt11char_traitsIwESaIwEE9push_backEw"
	.byte	0x1
	.uleb128 0x1d
	.long	0x8b05
	.byte	0x1
	.uleb128 0x18
	.long	0x5e0
	.byte	0x0
	.uleb128 0x21
	.long	0x7314
	.byte	0x1
	.long	.LASF55
	.byte	0x38
	.byte	0xf7
	.string	"_ZNSbIwSt11char_traitsIwESaIwEE6assignERKS2_"
	.long	0x8b1d
	.byte	0x1
	.uleb128 0x1d
	.long	0x8b05
	.byte	0x1
	.uleb128 0x18
	.long	0x8b17
	.byte	0x0
	.uleb128 0x4c
	.long	0x736b
	.byte	0x1
	.long	.LASF55
	.byte	0x35
	.value	0x374
	.string	"_ZNSbIwSt11char_traitsIwESaIwEE6assignERKS2_jj"
	.long	0x8b1d
	.byte	0x1
	.uleb128 0x1d
	.long	0x8b05
	.byte	0x1
	.uleb128 0x18
	.long	0x8b17
	.uleb128 0x18
	.long	0xaf
	.uleb128 0x18
	.long	0xaf
	.byte	0x0
	.uleb128 0x4c
	.long	0x73ba
	.byte	0x1
	.long	.LASF55
	.byte	0x38
	.value	0x107
	.string	"_ZNSbIwSt11char_traitsIwESaIwEE6assignEPKwj"
	.long	0x8b1d
	.byte	0x1
	.uleb128 0x1d
	.long	0x8b05
	.byte	0x1
	.uleb128 0x18
	.long	0xe7a
	.uleb128 0x18
	.long	0xaf
	.byte	0x0
	.uleb128 0x4c
	.long	0x7403
	.byte	0x1
	.long	.LASF55
	.byte	0x35
	.value	0x390
	.string	"_ZNSbIwSt11char_traitsIwESaIwEE6assignEPKw"
	.long	0x8b1d
	.byte	0x1
	.uleb128 0x1d
	.long	0x8b05
	.byte	0x1
	.uleb128 0x18
	.long	0xe7a
	.byte	0x0
	.uleb128 0x4c
	.long	0x7450
	.byte	0x1
	.long	.LASF55
	.byte	0x35
	.value	0x3a0
	.string	"_ZNSbIwSt11char_traitsIwESaIwEE6assignEjw"
	.long	0x8b1d
	.byte	0x1
	.uleb128 0x1d
	.long	0x8b05
	.byte	0x1
	.uleb128 0x18
	.long	0xaf
	.uleb128 0x18
	.long	0x5e0
	.byte	0x0
	.uleb128 0x4d
	.long	0x74c4
	.byte	0x1
	.long	.LASF56
	.byte	0x35
	.value	0x3bd
	.string	"_ZNSbIwSt11char_traitsIwESaIwEE6insertEN9__gnu_cxx17__normal_iteratorIPwS2_EEjw"
	.byte	0x1
	.uleb128 0x1d
	.long	0x8b05
	.byte	0x1
	.uleb128 0x18
	.long	0x2a25
	.uleb128 0x18
	.long	0xaf
	.uleb128 0x18
	.long	0x5e0
	.byte	0x0
	.uleb128 0x4c
	.long	0x7515
	.byte	0x1
	.long	.LASF56
	.byte	0x35
	.value	0x3dc
	.string	"_ZNSbIwSt11char_traitsIwESaIwEE6insertEjRKS2_"
	.long	0x8b1d
	.byte	0x1
	.uleb128 0x1d
	.long	0x8b05
	.byte	0x1
	.uleb128 0x18
	.long	0xaf
	.uleb128 0x18
	.long	0x8b17
	.byte	0x0
	.uleb128 0x4c
	.long	0x7572
	.byte	0x1
	.long	.LASF56
	.byte	0x35
	.value	0x3f3
	.string	"_ZNSbIwSt11char_traitsIwESaIwEE6insertEjRKS2_jj"
	.long	0x8b1d
	.byte	0x1
	.uleb128 0x1d
	.long	0x8b05
	.byte	0x1
	.uleb128 0x18
	.long	0xaf
	.uleb128 0x18
	.long	0x8b17
	.uleb128 0x18
	.long	0xaf
	.uleb128 0x18
	.long	0xaf
	.byte	0x0
	.uleb128 0x4c
	.long	0x75c7
	.byte	0x1
	.long	.LASF56
	.byte	0x38
	.value	0x16c
	.string	"_ZNSbIwSt11char_traitsIwESaIwEE6insertEjPKwj"
	.long	0x8b1d
	.byte	0x1
	.uleb128 0x1d
	.long	0x8b05
	.byte	0x1
	.uleb128 0x18
	.long	0xaf
	.uleb128 0x18
	.long	0xe7a
	.uleb128 0x18
	.long	0xaf
	.byte	0x0
	.uleb128 0x4c
	.long	0x7616
	.byte	0x1
	.long	.LASF56
	.byte	0x35
	.value	0x41b
	.string	"_ZNSbIwSt11char_traitsIwESaIwEE6insertEjPKw"
	.long	0x8b1d
	.byte	0x1
	.uleb128 0x1d
	.long	0x8b05
	.byte	0x1
	.uleb128 0x18
	.long	0xaf
	.uleb128 0x18
	.long	0xe7a
	.byte	0x0
	.uleb128 0x4c
	.long	0x7669
	.byte	0x1
	.long	.LASF56
	.byte	0x35
	.value	0x432
	.string	"_ZNSbIwSt11char_traitsIwESaIwEE6insertEjjw"
	.long	0x8b1d
	.byte	0x1
	.uleb128 0x1d
	.long	0x8b05
	.byte	0x1
	.uleb128 0x18
	.long	0xaf
	.uleb128 0x18
	.long	0xaf
	.uleb128 0x18
	.long	0x5e0
	.byte	0x0
	.uleb128 0x4c
	.long	0x76db
	.byte	0x1
	.long	.LASF56
	.byte	0x35
	.value	0x443
	.string	"_ZNSbIwSt11char_traitsIwESaIwEE6insertEN9__gnu_cxx17__normal_iteratorIPwS2_EEw"
	.long	0x2a25
	.byte	0x1
	.uleb128 0x1d
	.long	0x8b05
	.byte	0x1
	.uleb128 0x18
	.long	0x2a25
	.uleb128 0x18
	.long	0x5e0
	.byte	0x0
	.uleb128 0x4c
	.long	0x7727
	.byte	0x1
	.long	.LASF57
	.byte	0x35
	.value	0x45b
	.string	"_ZNSbIwSt11char_traitsIwESaIwEE5eraseEjj"
	.long	0x8b1d
	.byte	0x1
	.uleb128 0x1d
	.long	0x8b05
	.byte	0x1
	.uleb128 0x18
	.long	0xaf
	.uleb128 0x18
	.long	0xaf
	.byte	0x0
	.uleb128 0x4c
	.long	0x7792
	.byte	0x1
	.long	.LASF57
	.byte	0x35
	.value	0x46b
	.string	"_ZNSbIwSt11char_traitsIwESaIwEE5eraseEN9__gnu_cxx17__normal_iteratorIPwS2_EE"
	.long	0x2a25
	.byte	0x1
	.uleb128 0x1d
	.long	0x8b05
	.byte	0x1
	.uleb128 0x18
	.long	0x2a25
	.byte	0x0
	.uleb128 0x4c
	.long	0x7805
	.byte	0x1
	.long	.LASF57
	.byte	0x35
	.value	0x47f
	.string	"_ZNSbIwSt11char_traitsIwESaIwEE5eraseEN9__gnu_cxx17__normal_iteratorIPwS2_EES6_"
	.long	0x2a25
	.byte	0x1
	.uleb128 0x1d
	.long	0x8b05
	.byte	0x1
	.uleb128 0x18
	.long	0x2a25
	.uleb128 0x18
	.long	0x2a25
	.byte	0x0
	.uleb128 0x4c
	.long	0x785d
	.byte	0x1
	.long	.LASF58
	.byte	0x35
	.value	0x49a
	.string	"_ZNSbIwSt11char_traitsIwESaIwEE7replaceEjjRKS2_"
	.long	0x8b1d
	.byte	0x1
	.uleb128 0x1d
	.long	0x8b05
	.byte	0x1
	.uleb128 0x18
	.long	0xaf
	.uleb128 0x18
	.long	0xaf
	.uleb128 0x18
	.long	0x8b17
	.byte	0x0
	.uleb128 0x4c
	.long	0x78c1
	.byte	0x1
	.long	.LASF58
	.byte	0x35
	.value	0x4b1
	.string	"_ZNSbIwSt11char_traitsIwESaIwEE7replaceEjjRKS2_jj"
	.long	0x8b1d
	.byte	0x1
	.uleb128 0x1d
	.long	0x8b05
	.byte	0x1
	.uleb128 0x18
	.long	0xaf
	.uleb128 0x18
	.long	0xaf
	.uleb128 0x18
	.long	0x8b17
	.uleb128 0x18
	.long	0xaf
	.uleb128 0x18
	.long	0xaf
	.byte	0x0
	.uleb128 0x4c
	.long	0x791d
	.byte	0x1
	.long	.LASF58
	.byte	0x38
	.value	0x18c
	.string	"_ZNSbIwSt11char_traitsIwESaIwEE7replaceEjjPKwj"
	.long	0x8b1d
	.byte	0x1
	.uleb128 0x1d
	.long	0x8b05
	.byte	0x1
	.uleb128 0x18
	.long	0xaf
	.uleb128 0x18
	.long	0xaf
	.uleb128 0x18
	.long	0xe7a
	.uleb128 0x18
	.long	0xaf
	.byte	0x0
	.uleb128 0x4c
	.long	0x7973
	.byte	0x1
	.long	.LASF58
	.byte	0x35
	.value	0x4db
	.string	"_ZNSbIwSt11char_traitsIwESaIwEE7replaceEjjPKw"
	.long	0x8b1d
	.byte	0x1
	.uleb128 0x1d
	.long	0x8b05
	.byte	0x1
	.uleb128 0x18
	.long	0xaf
	.uleb128 0x18
	.long	0xaf
	.uleb128 0x18
	.long	0xe7a
	.byte	0x0
	.uleb128 0x4c
	.long	0x79cd
	.byte	0x1
	.long	.LASF58
	.byte	0x35
	.value	0x4f2
	.string	"_ZNSbIwSt11char_traitsIwESaIwEE7replaceEjjjw"
	.long	0x8b1d
	.byte	0x1
	.uleb128 0x1d
	.long	0x8b05
	.byte	0x1
	.uleb128 0x18
	.long	0xaf
	.uleb128 0x18
	.long	0xaf
	.uleb128 0x18
	.long	0xaf
	.uleb128 0x18
	.long	0x5e0
	.byte	0x0
	.uleb128 0x4c
	.long	0x7a4c
	.byte	0x1
	.long	.LASF58
	.byte	0x35
	.value	0x504
	.string	"_ZNSbIwSt11char_traitsIwESaIwEE7replaceEN9__gnu_cxx17__normal_iteratorIPwS2_EES6_RKS2_"
	.long	0x8b1d
	.byte	0x1
	.uleb128 0x1d
	.long	0x8b05
	.byte	0x1
	.uleb128 0x18
	.long	0x2a25
	.uleb128 0x18
	.long	0x2a25
	.uleb128 0x18
	.long	0x8b17
	.byte	0x0
	.uleb128 0x4c
	.long	0x7acf
	.byte	0x1
	.long	.LASF58
	.byte	0x35
	.value	0x516
	.string	"_ZNSbIwSt11char_traitsIwESaIwEE7replaceEN9__gnu_cxx17__normal_iteratorIPwS2_EES6_PKwj"
	.long	0x8b1d
	.byte	0x1
	.uleb128 0x1d
	.long	0x8b05
	.byte	0x1
	.uleb128 0x18
	.long	0x2a25
	.uleb128 0x18
	.long	0x2a25
	.uleb128 0x18
	.long	0xe7a
	.uleb128 0x18
	.long	0xaf
	.byte	0x0
	.uleb128 0x4c
	.long	0x7b4c
	.byte	0x1
	.long	.LASF58
	.byte	0x35
	.value	0x52b
	.string	"_ZNSbIwSt11char_traitsIwESaIwEE7replaceEN9__gnu_cxx17__normal_iteratorIPwS2_EES6_PKw"
	.long	0x8b1d
	.byte	0x1
	.uleb128 0x1d
	.long	0x8b05
	.byte	0x1
	.uleb128 0x18
	.long	0x2a25
	.uleb128 0x18
	.long	0x2a25
	.uleb128 0x18
	.long	0xe7a
	.byte	0x0
	.uleb128 0x4c
	.long	0x7bcd
	.byte	0x1
	.long	.LASF58
	.byte	0x35
	.value	0x540
	.string	"_ZNSbIwSt11char_traitsIwESaIwEE7replaceEN9__gnu_cxx17__normal_iteratorIPwS2_EES6_jw"
	.long	0x8b1d
	.byte	0x1
	.uleb128 0x1d
	.long	0x8b05
	.byte	0x1
	.uleb128 0x18
	.long	0x2a25
	.uleb128 0x18
	.long	0x2a25
	.uleb128 0x18
	.long	0xaf
	.uleb128 0x18
	.long	0x5e0
	.byte	0x0
	.uleb128 0x4c
	.long	0x7c52
	.byte	0x1
	.long	.LASF58
	.byte	0x35
	.value	0x564
	.string	"_ZNSbIwSt11char_traitsIwESaIwEE7replaceEN9__gnu_cxx17__normal_iteratorIPwS2_EES6_S5_S5_"
	.long	0x8b1d
	.byte	0x1
	.uleb128 0x1d
	.long	0x8b05
	.byte	0x1
	.uleb128 0x18
	.long	0x2a25
	.uleb128 0x18
	.long	0x2a25
	.uleb128 0x18
	.long	0xe6e
	.uleb128 0x18
	.long	0xe6e
	.byte	0x0
	.uleb128 0x4c
	.long	0x7cd7
	.byte	0x1
	.long	.LASF58
	.byte	0x35
	.value	0x56f
	.string	"_ZNSbIwSt11char_traitsIwESaIwEE7replaceEN9__gnu_cxx17__normal_iteratorIPwS2_EES6_PKwS8_"
	.long	0x8b1d
	.byte	0x1
	.uleb128 0x1d
	.long	0x8b05
	.byte	0x1
	.uleb128 0x18
	.long	0x2a25
	.uleb128 0x18
	.long	0x2a25
	.uleb128 0x18
	.long	0xe7a
	.uleb128 0x18
	.long	0xe7a
	.byte	0x0
	.uleb128 0x4c
	.long	0x7d5c
	.byte	0x1
	.long	.LASF58
	.byte	0x35
	.value	0x579
	.string	"_ZNSbIwSt11char_traitsIwESaIwEE7replaceEN9__gnu_cxx17__normal_iteratorIPwS2_EES6_S6_S6_"
	.long	0x8b1d
	.byte	0x1
	.uleb128 0x1d
	.long	0x8b05
	.byte	0x1
	.uleb128 0x18
	.long	0x2a25
	.uleb128 0x18
	.long	0x2a25
	.uleb128 0x18
	.long	0x2a25
	.uleb128 0x18
	.long	0x2a25
	.byte	0x0
	.uleb128 0x4c
	.long	0x7deb
	.byte	0x1
	.long	.LASF58
	.byte	0x35
	.value	0x584
	.string	"_ZNSbIwSt11char_traitsIwESaIwEE7replaceEN9__gnu_cxx17__normal_iteratorIPwS2_EES6_NS4_IPKwS2_EES9_"
	.long	0x8b1d
	.byte	0x1
	.uleb128 0x1d
	.long	0x8b05
	.byte	0x1
	.uleb128 0x18
	.long	0x2a25
	.uleb128 0x18
	.long	0x2a25
	.uleb128 0x18
	.long	0x2a94
	.uleb128 0x18
	.long	0x2a94
	.byte	0x0
	.uleb128 0x46
	.long	0x7e4e
	.byte	0x1
	.long	.LASF59
	.byte	0x38
	.value	0x28a
	.string	"_ZNSbIwSt11char_traitsIwESaIwEE14_M_replace_auxEjjjw"
	.long	0x8b1d
	.byte	0x3
	.byte	0x1
	.uleb128 0x1d
	.long	0x8b05
	.byte	0x1
	.uleb128 0x18
	.long	0xaf
	.uleb128 0x18
	.long	0xaf
	.uleb128 0x18
	.long	0xaf
	.uleb128 0x18
	.long	0x5e0
	.byte	0x0
	.uleb128 0x46
	.long	0x7eb4
	.byte	0x1
	.long	.LASF60
	.byte	0x38
	.value	0x297
	.string	"_ZNSbIwSt11char_traitsIwESaIwEE15_M_replace_safeEjjPKwj"
	.long	0x8b1d
	.byte	0x3
	.byte	0x1
	.uleb128 0x1d
	.long	0x8b05
	.byte	0x1
	.uleb128 0x18
	.long	0xaf
	.uleb128 0x18
	.long	0xaf
	.uleb128 0x18
	.long	0xe7a
	.uleb128 0x18
	.long	0xaf
	.byte	0x0
	.uleb128 0x4e
	.long	0x7f0c
	.byte	0x1
	.long	.LASF61
	.byte	0x38
	.byte	0xa5
	.string	"_ZNSbIwSt11char_traitsIwESaIwEE12_S_constructEjwRKS1_"
	.long	0xe6e
	.byte	0x3
	.byte	0x1
	.uleb128 0x18
	.long	0xaf
	.uleb128 0x18
	.long	0x5e0
	.uleb128 0x18
	.long	0x41f7
	.byte	0x0
	.uleb128 0x3b
	.long	0x7f60
	.byte	0x1
	.string	"copy"
	.byte	0x38
	.value	0x2c0
	.string	"_ZNKSbIwSt11char_traitsIwESaIwEE4copyEPwjj"
	.long	0xa1
	.byte	0x1
	.uleb128 0x1d
	.long	0x8afa
	.byte	0x1
	.uleb128 0x18
	.long	0xe6e
	.uleb128 0x18
	.long	0xaf
	.uleb128 0x18
	.long	0xaf
	.byte	0x0
	.uleb128 0x4f
	.long	0x7fa5
	.byte	0x1
	.string	"swap"
	.byte	0x38
	.value	0x1f4
	.string	"_ZNSbIwSt11char_traitsIwESaIwEE4swapERS2_"
	.byte	0x1
	.uleb128 0x1d
	.long	0x8b05
	.byte	0x1
	.uleb128 0x18
	.long	0x8b1d
	.byte	0x0
	.uleb128 0x3b
	.long	0x7fe9
	.byte	0x1
	.string	"c_str"
	.byte	0x35
	.value	0x5ed
	.string	"_ZNKSbIwSt11char_traitsIwESaIwEE5c_strEv"
	.long	0xe7a
	.byte	0x1
	.uleb128 0x1d
	.long	0x8afa
	.byte	0x1
	.byte	0x0
	.uleb128 0x4c
	.long	0x802a
	.byte	0x1
	.long	.LASF6
	.byte	0x35
	.value	0x5f7
	.string	"_ZNKSbIwSt11char_traitsIwESaIwEE4dataEv"
	.long	0xe7a
	.byte	0x1
	.uleb128 0x1d
	.long	0x8afa
	.byte	0x1
	.byte	0x0
	.uleb128 0x4c
	.long	0x8075
	.byte	0x1
	.long	.LASF62
	.byte	0x35
	.value	0x5fe
	.string	"_ZNKSbIwSt11char_traitsIwESaIwEE13get_allocatorEv"
	.long	0x4198
	.byte	0x1
	.uleb128 0x1d
	.long	0x8afa
	.byte	0x1
	.byte	0x0
	.uleb128 0x4c
	.long	0x80c9
	.byte	0x1
	.long	.LASF63
	.byte	0x38
	.value	0x2ce
	.string	"_ZNKSbIwSt11char_traitsIwESaIwEE4findEPKwjj"
	.long	0xa1
	.byte	0x1
	.uleb128 0x1d
	.long	0x8afa
	.byte	0x1
	.uleb128 0x18
	.long	0xe7a
	.uleb128 0x18
	.long	0xaf
	.uleb128 0x18
	.long	0xaf
	.byte	0x0
	.uleb128 0x4c
	.long	0x8119
	.byte	0x1
	.long	.LASF63
	.byte	0x35
	.value	0x61a
	.string	"_ZNKSbIwSt11char_traitsIwESaIwEE4findERKS2_j"
	.long	0xa1
	.byte	0x1
	.uleb128 0x1d
	.long	0x8afa
	.byte	0x1
	.uleb128 0x18
	.long	0x8b17
	.uleb128 0x18
	.long	0xaf
	.byte	0x0
	.uleb128 0x4c
	.long	0x8167
	.byte	0x1
	.long	.LASF63
	.byte	0x35
	.value	0x628
	.string	"_ZNKSbIwSt11char_traitsIwESaIwEE4findEPKwj"
	.long	0xa1
	.byte	0x1
	.uleb128 0x1d
	.long	0x8afa
	.byte	0x1
	.uleb128 0x18
	.long	0xe7a
	.uleb128 0x18
	.long	0xaf
	.byte	0x0
	.uleb128 0x4c
	.long	0x81b3
	.byte	0x1
	.long	.LASF63
	.byte	0x38
	.value	0x2e1
	.string	"_ZNKSbIwSt11char_traitsIwESaIwEE4findEwj"
	.long	0xa1
	.byte	0x1
	.uleb128 0x1d
	.long	0x8afa
	.byte	0x1
	.uleb128 0x18
	.long	0x5e0
	.uleb128 0x18
	.long	0xaf
	.byte	0x0
	.uleb128 0x4c
	.long	0x8204
	.byte	0x1
	.long	.LASF64
	.byte	0x35
	.value	0x646
	.string	"_ZNKSbIwSt11char_traitsIwESaIwEE5rfindERKS2_j"
	.long	0xa1
	.byte	0x1
	.uleb128 0x1d
	.long	0x8afa
	.byte	0x1
	.uleb128 0x18
	.long	0x8b17
	.uleb128 0x18
	.long	0xaf
	.byte	0x0
	.uleb128 0x4c
	.long	0x8259
	.byte	0x1
	.long	.LASF64
	.byte	0x38
	.value	0x2f3
	.string	"_ZNKSbIwSt11char_traitsIwESaIwEE5rfindEPKwjj"
	.long	0xa1
	.byte	0x1
	.uleb128 0x1d
	.long	0x8afa
	.byte	0x1
	.uleb128 0x18
	.long	0xe7a
	.uleb128 0x18
	.long	0xaf
	.uleb128 0x18
	.long	0xaf
	.byte	0x0
	.uleb128 0x4c
	.long	0x82a8
	.byte	0x1
	.long	.LASF64
	.byte	0x35
	.value	0x662
	.string	"_ZNKSbIwSt11char_traitsIwESaIwEE5rfindEPKwj"
	.long	0xa1
	.byte	0x1
	.uleb128 0x1d
	.long	0x8afa
	.byte	0x1
	.uleb128 0x18
	.long	0xe7a
	.uleb128 0x18
	.long	0xaf
	.byte	0x0
	.uleb128 0x4c
	.long	0x82f5
	.byte	0x1
	.long	.LASF64
	.byte	0x38
	.value	0x308
	.string	"_ZNKSbIwSt11char_traitsIwESaIwEE5rfindEwj"
	.long	0xa1
	.byte	0x1
	.uleb128 0x1d
	.long	0x8afa
	.byte	0x1
	.uleb128 0x18
	.long	0x5e0
	.uleb128 0x18
	.long	0xaf
	.byte	0x0
	.uleb128 0x4c
	.long	0x834f
	.byte	0x1
	.long	.LASF65
	.byte	0x35
	.value	0x680
	.string	"_ZNKSbIwSt11char_traitsIwESaIwEE13find_first_ofERKS2_j"
	.long	0xa1
	.byte	0x1
	.uleb128 0x1d
	.long	0x8afa
	.byte	0x1
	.uleb128 0x18
	.long	0x8b17
	.uleb128 0x18
	.long	0xaf
	.byte	0x0
	.uleb128 0x4c
	.long	0x83ad
	.byte	0x1
	.long	.LASF65
	.byte	0x38
	.value	0x319
	.string	"_ZNKSbIwSt11char_traitsIwESaIwEE13find_first_ofEPKwjj"
	.long	0xa1
	.byte	0x1
	.uleb128 0x1d
	.long	0x8afa
	.byte	0x1
	.uleb128 0x18
	.long	0xe7a
	.uleb128 0x18
	.long	0xaf
	.uleb128 0x18
	.long	0xaf
	.byte	0x0
	.uleb128 0x4c
	.long	0x8405
	.byte	0x1
	.long	.LASF65
	.byte	0x35
	.value	0x69c
	.string	"_ZNKSbIwSt11char_traitsIwESaIwEE13find_first_ofEPKwj"
	.long	0xa1
	.byte	0x1
	.uleb128 0x1d
	.long	0x8afa
	.byte	0x1
	.uleb128 0x18
	.long	0xe7a
	.uleb128 0x18
	.long	0xaf
	.byte	0x0
	.uleb128 0x4c
	.long	0x845b
	.byte	0x1
	.long	.LASF65
	.byte	0x35
	.value	0x6af
	.string	"_ZNKSbIwSt11char_traitsIwESaIwEE13find_first_ofEwj"
	.long	0xa1
	.byte	0x1
	.uleb128 0x1d
	.long	0x8afa
	.byte	0x1
	.uleb128 0x18
	.long	0x5e0
	.uleb128 0x18
	.long	0xaf
	.byte	0x0
	.uleb128 0x4c
	.long	0x84b4
	.byte	0x1
	.long	.LASF66
	.byte	0x35
	.value	0x6bd
	.string	"_ZNKSbIwSt11char_traitsIwESaIwEE12find_last_ofERKS2_j"
	.long	0xa1
	.byte	0x1
	.uleb128 0x1d
	.long	0x8afa
	.byte	0x1
	.uleb128 0x18
	.long	0x8b17
	.uleb128 0x18
	.long	0xaf
	.byte	0x0
	.uleb128 0x4c
	.long	0x8511
	.byte	0x1
	.long	.LASF66
	.byte	0x38
	.value	0x328
	.string	"_ZNKSbIwSt11char_traitsIwESaIwEE12find_last_ofEPKwjj"
	.long	0xa1
	.byte	0x1
	.uleb128 0x1d
	.long	0x8afa
	.byte	0x1
	.uleb128 0x18
	.long	0xe7a
	.uleb128 0x18
	.long	0xaf
	.uleb128 0x18
	.long	0xaf
	.byte	0x0
	.uleb128 0x4c
	.long	0x8568
	.byte	0x1
	.long	.LASF66
	.byte	0x35
	.value	0x6d9
	.string	"_ZNKSbIwSt11char_traitsIwESaIwEE12find_last_ofEPKwj"
	.long	0xa1
	.byte	0x1
	.uleb128 0x1d
	.long	0x8afa
	.byte	0x1
	.uleb128 0x18
	.long	0xe7a
	.uleb128 0x18
	.long	0xaf
	.byte	0x0
	.uleb128 0x4c
	.long	0x85bd
	.byte	0x1
	.long	.LASF66
	.byte	0x35
	.value	0x6ec
	.string	"_ZNKSbIwSt11char_traitsIwESaIwEE12find_last_ofEwj"
	.long	0xa1
	.byte	0x1
	.uleb128 0x1d
	.long	0x8afa
	.byte	0x1
	.uleb128 0x18
	.long	0x5e0
	.uleb128 0x18
	.long	0xaf
	.byte	0x0
	.uleb128 0x4c
	.long	0x861b
	.byte	0x1
	.long	.LASF67
	.byte	0x35
	.value	0x6fa
	.string	"_ZNKSbIwSt11char_traitsIwESaIwEE17find_first_not_ofERKS2_j"
	.long	0xa1
	.byte	0x1
	.uleb128 0x1d
	.long	0x8afa
	.byte	0x1
	.uleb128 0x18
	.long	0x8b17
	.uleb128 0x18
	.long	0xaf
	.byte	0x0
	.uleb128 0x4c
	.long	0x867d
	.byte	0x1
	.long	.LASF67
	.byte	0x38
	.value	0x33d
	.string	"_ZNKSbIwSt11char_traitsIwESaIwEE17find_first_not_ofEPKwjj"
	.long	0xa1
	.byte	0x1
	.uleb128 0x1d
	.long	0x8afa
	.byte	0x1
	.uleb128 0x18
	.long	0xe7a
	.uleb128 0x18
	.long	0xaf
	.uleb128 0x18
	.long	0xaf
	.byte	0x0
	.uleb128 0x4c
	.long	0x86d9
	.byte	0x1
	.long	.LASF67
	.byte	0x35
	.value	0x717
	.string	"_ZNKSbIwSt11char_traitsIwESaIwEE17find_first_not_ofEPKwj"
	.long	0xa1
	.byte	0x1
	.uleb128 0x1d
	.long	0x8afa
	.byte	0x1
	.uleb128 0x18
	.long	0xe7a
	.uleb128 0x18
	.long	0xaf
	.byte	0x0
	.uleb128 0x4c
	.long	0x8733
	.byte	0x1
	.long	.LASF67
	.byte	0x38
	.value	0x349
	.string	"_ZNKSbIwSt11char_traitsIwESaIwEE17find_first_not_ofEwj"
	.long	0xa1
	.byte	0x1
	.uleb128 0x1d
	.long	0x8afa
	.byte	0x1
	.uleb128 0x18
	.long	0x5e0
	.uleb128 0x18
	.long	0xaf
	.byte	0x0
	.uleb128 0x4c
	.long	0x8790
	.byte	0x1
	.long	.LASF68
	.byte	0x35
	.value	0x735
	.string	"_ZNKSbIwSt11char_traitsIwESaIwEE16find_last_not_ofERKS2_j"
	.long	0xa1
	.byte	0x1
	.uleb128 0x1d
	.long	0x8afa
	.byte	0x1
	.uleb128 0x18
	.long	0x8b17
	.uleb128 0x18
	.long	0xaf
	.byte	0x0
	.uleb128 0x4c
	.long	0x87f1
	.byte	0x1
	.long	.LASF68
	.byte	0x38
	.value	0x354
	.string	"_ZNKSbIwSt11char_traitsIwESaIwEE16find_last_not_ofEPKwjj"
	.long	0xa1
	.byte	0x1
	.uleb128 0x1d
	.long	0x8afa
	.byte	0x1
	.uleb128 0x18
	.long	0xe7a
	.uleb128 0x18
	.long	0xaf
	.uleb128 0x18
	.long	0xaf
	.byte	0x0
	.uleb128 0x4c
	.long	0x884c
	.byte	0x1
	.long	.LASF68
	.byte	0x35
	.value	0x752
	.string	"_ZNKSbIwSt11char_traitsIwESaIwEE16find_last_not_ofEPKwj"
	.long	0xa1
	.byte	0x1
	.uleb128 0x1d
	.long	0x8afa
	.byte	0x1
	.uleb128 0x18
	.long	0xe7a
	.uleb128 0x18
	.long	0xaf
	.byte	0x0
	.uleb128 0x4c
	.long	0x88a5
	.byte	0x1
	.long	.LASF68
	.byte	0x38
	.value	0x369
	.string	"_ZNKSbIwSt11char_traitsIwESaIwEE16find_last_not_ofEwj"
	.long	0xa1
	.byte	0x1
	.uleb128 0x1d
	.long	0x8afa
	.byte	0x1
	.uleb128 0x18
	.long	0x5e0
	.uleb128 0x18
	.long	0xaf
	.byte	0x0
	.uleb128 0x4c
	.long	0x88f3
	.byte	0x1
	.long	.LASF69
	.byte	0x35
	.value	0x772
	.string	"_ZNKSbIwSt11char_traitsIwESaIwEE6substrEjj"
	.long	0x6240
	.byte	0x1
	.uleb128 0x1d
	.long	0x8afa
	.byte	0x1
	.uleb128 0x18
	.long	0xaf
	.uleb128 0x18
	.long	0xaf
	.byte	0x0
	.uleb128 0x4c
	.long	0x8940
	.byte	0x1
	.long	.LASF70
	.byte	0x35
	.value	0x784
	.string	"_ZNKSbIwSt11char_traitsIwESaIwEE7compareERKS2_"
	.long	0x9a
	.byte	0x1
	.uleb128 0x1d
	.long	0x8afa
	.byte	0x1
	.uleb128 0x18
	.long	0x8b17
	.byte	0x0
	.uleb128 0x4c
	.long	0x8999
	.byte	0x1
	.long	.LASF70
	.byte	0x38
	.value	0x37d
	.string	"_ZNKSbIwSt11char_traitsIwESaIwEE7compareEjjRKS2_"
	.long	0x9a
	.byte	0x1
	.uleb128 0x1d
	.long	0x8afa
	.byte	0x1
	.uleb128 0x18
	.long	0xaf
	.uleb128 0x18
	.long	0xaf
	.uleb128 0x18
	.long	0x8b17
	.byte	0x0
	.uleb128 0x4c
	.long	0x89fe
	.byte	0x1
	.long	.LASF70
	.byte	0x38
	.value	0x38d
	.string	"_ZNKSbIwSt11char_traitsIwESaIwEE7compareEjjRKS2_jj"
	.long	0x9a
	.byte	0x1
	.uleb128 0x1d
	.long	0x8afa
	.byte	0x1
	.uleb128 0x18
	.long	0xaf
	.uleb128 0x18
	.long	0xaf
	.uleb128 0x18
	.long	0x8b17
	.uleb128 0x18
	.long	0xaf
	.uleb128 0x18
	.long	0xaf
	.byte	0x0
	.uleb128 0x4c
	.long	0x8a49
	.byte	0x1
	.long	.LASF70
	.byte	0x38
	.value	0x39e
	.string	"_ZNKSbIwSt11char_traitsIwESaIwEE7compareEPKw"
	.long	0x9a
	.byte	0x1
	.uleb128 0x1d
	.long	0x8afa
	.byte	0x1
	.uleb128 0x18
	.long	0xe7a
	.byte	0x0
	.uleb128 0x4c
	.long	0x8aa0
	.byte	0x1
	.long	.LASF70
	.byte	0x38
	.value	0x3ad
	.string	"_ZNKSbIwSt11char_traitsIwESaIwEE7compareEjjPKw"
	.long	0x9a
	.byte	0x1
	.uleb128 0x1d
	.long	0x8afa
	.byte	0x1
	.uleb128 0x18
	.long	0xaf
	.uleb128 0x18
	.long	0xaf
	.uleb128 0x18
	.long	0xe7a
	.byte	0x0
	.uleb128 0x50
	.byte	0x1
	.long	.LASF70
	.byte	0x38
	.value	0x3be
	.string	"_ZNKSbIwSt11char_traitsIwESaIwEE7compareEjjPKwj"
	.long	0x9a
	.byte	0x1
	.uleb128 0x1d
	.long	0x8afa
	.byte	0x1
	.uleb128 0x18
	.long	0xaf
	.uleb128 0x18
	.long	0xaf
	.uleb128 0x18
	.long	0xe7a
	.uleb128 0x18
	.long	0xaf
	.byte	0x0
	.byte	0x0
	.uleb128 0x6
	.byte	0x4
	.long	0x8b00
	.uleb128 0x10
	.long	0x6240
	.uleb128 0x6
	.byte	0x4
	.long	0x6240
	.uleb128 0x6
	.byte	0x4
	.long	0x6274
	.uleb128 0x23
	.byte	0x4
	.long	0x6274
	.uleb128 0x23
	.byte	0x4
	.long	0x8b00
	.uleb128 0x23
	.byte	0x4
	.long	0x6240
	.uleb128 0x40
	.long	0x8b5a
	.long	0x626e
	.byte	0xc
	.byte	0x35
	.byte	0x93
	.uleb128 0x51
	.long	.LASF71
	.byte	0x35
	.byte	0x94
	.long	0xa1
	.byte	0x2
	.byte	0x23
	.uleb128 0x0
	.uleb128 0x51
	.long	.LASF72
	.byte	0x35
	.byte	0x95
	.long	0xa1
	.byte	0x2
	.byte	0x23
	.uleb128 0x4
	.uleb128 0x51
	.long	.LASF73
	.byte	0x35
	.byte	0x96
	.long	0x420c
	.byte	0x2
	.byte	0x23
	.uleb128 0x8
	.byte	0x0
	.uleb128 0x40
	.long	0x8feb
	.long	0x6274
	.byte	0xc
	.byte	0x35
	.byte	0x9a
	.uleb128 0x24
	.long	0x8b23
	.byte	0x2
	.byte	0x23
	.uleb128 0x0
	.byte	0x1
	.uleb128 0x52
	.long	.LASF74
	.byte	0x38
	.byte	0x3f
	.long	.LASF91
	.long	0x5e8b
	.byte	0x1
	.byte	0x1
	.uleb128 0x52
	.long	.LASF75
	.byte	0x38
	.byte	0x44
	.long	.LASF92
	.long	0xe80
	.byte	0x1
	.byte	0x1
	.uleb128 0x53
	.long	.LASF78
	.byte	0x38
	.byte	0x50
	.string	"_ZNSbIwSt11char_traitsIwESaIwEE4_Rep20_S_empty_rep_storageE"
	.long	0x621f
	.byte	0x1
	.byte	0x1
	.uleb128 0x54
	.byte	0x1
	.long	.LASF39
	.byte	0x35
	.byte	0xb3
	.string	"_ZNSbIwSt11char_traitsIwESaIwEE4_Rep12_S_empty_repEv"
	.long	0x8b11
	.byte	0x1
	.uleb128 0x21
	.long	0x8c6a
	.byte	0x1
	.long	.LASF79
	.byte	0x35
	.byte	0xba
	.string	"_ZNKSbIwSt11char_traitsIwESaIwEE4_Rep12_M_is_leakedEv"
	.long	0xb5a
	.byte	0x1
	.uleb128 0x1d
	.long	0x8feb
	.byte	0x1
	.byte	0x0
	.uleb128 0x21
	.long	0x8cb8
	.byte	0x1
	.long	.LASF80
	.byte	0x35
	.byte	0xbe
	.string	"_ZNKSbIwSt11char_traitsIwESaIwEE4_Rep12_M_is_sharedEv"
	.long	0xb5a
	.byte	0x1
	.uleb128 0x1d
	.long	0x8feb
	.byte	0x1
	.byte	0x0
	.uleb128 0x41
	.long	0x8d02
	.byte	0x1
	.long	.LASF81
	.byte	0x35
	.byte	0xc2
	.string	"_ZNSbIwSt11char_traitsIwESaIwEE4_Rep13_M_set_leakedEv"
	.byte	0x1
	.uleb128 0x1d
	.long	0x8b0b
	.byte	0x1
	.byte	0x0
	.uleb128 0x41
	.long	0x8d4e
	.byte	0x1
	.long	.LASF82
	.byte	0x35
	.byte	0xc6
	.string	"_ZNSbIwSt11char_traitsIwESaIwEE4_Rep15_M_set_sharableEv"
	.byte	0x1
	.uleb128 0x1d
	.long	0x8b0b
	.byte	0x1
	.byte	0x0
	.uleb128 0x41
	.long	0x8daa
	.byte	0x1
	.long	.LASF83
	.byte	0x35
	.byte	0xca
	.string	"_ZNSbIwSt11char_traitsIwESaIwEE4_Rep26_M_set_length_and_sharableEj"
	.byte	0x1
	.uleb128 0x1d
	.long	0x8b0b
	.byte	0x1
	.uleb128 0x18
	.long	0xaf
	.byte	0x0
	.uleb128 0x21
	.long	0x8df5
	.byte	0x1
	.long	.LASF84
	.byte	0x35
	.byte	0xd4
	.string	"_ZNSbIwSt11char_traitsIwESaIwEE4_Rep10_M_refdataEv"
	.long	0xe6e
	.byte	0x1
	.uleb128 0x1d
	.long	0x8b0b
	.byte	0x1
	.byte	0x0
	.uleb128 0x1f
	.long	0x8e51
	.byte	0x1
	.string	"_M_grab"
	.byte	0x35
	.byte	0xd8
	.string	"_ZNSbIwSt11char_traitsIwESaIwEE4_Rep7_M_grabERKS1_S5_"
	.long	0xe6e
	.byte	0x1
	.uleb128 0x1d
	.long	0x8b0b
	.byte	0x1
	.uleb128 0x18
	.long	0x41f7
	.uleb128 0x18
	.long	0x41f7
	.byte	0x0
	.uleb128 0x4c
	.long	0x8eaa
	.byte	0x1
	.long	.LASF85
	.byte	0x38
	.value	0x210
	.string	"_ZNSbIwSt11char_traitsIwESaIwEE4_Rep9_S_createEjjRKS1_"
	.long	0x8b0b
	.byte	0x1
	.uleb128 0x18
	.long	0xaf
	.uleb128 0x18
	.long	0xaf
	.uleb128 0x18
	.long	0x41f7
	.byte	0x0
	.uleb128 0x41
	.long	0x8efa
	.byte	0x1
	.long	.LASF86
	.byte	0x35
	.byte	0xe3
	.string	"_ZNSbIwSt11char_traitsIwESaIwEE4_Rep10_M_disposeERKS1_"
	.byte	0x1
	.uleb128 0x1d
	.long	0x8b0b
	.byte	0x1
	.uleb128 0x18
	.long	0x41f7
	.byte	0x0
	.uleb128 0x4d
	.long	0x8f4b
	.byte	0x1
	.long	.LASF87
	.byte	0x38
	.value	0x1aa
	.string	"_ZNSbIwSt11char_traitsIwESaIwEE4_Rep10_M_destroyERKS1_"
	.byte	0x1
	.uleb128 0x1d
	.long	0x8b0b
	.byte	0x1
	.uleb128 0x18
	.long	0x41f7
	.byte	0x0
	.uleb128 0x21
	.long	0x8f96
	.byte	0x1
	.long	.LASF88
	.byte	0x35
	.byte	0xf0
	.string	"_ZNSbIwSt11char_traitsIwESaIwEE4_Rep10_M_refcopyEv"
	.long	0xe6e
	.byte	0x1
	.uleb128 0x1d
	.long	0x8b0b
	.byte	0x1
	.byte	0x0
	.uleb128 0x50
	.byte	0x1
	.long	.LASF89
	.byte	0x38
	.value	0x25d
	.string	"_ZNSbIwSt11char_traitsIwESaIwEE4_Rep8_M_cloneERKS1_j"
	.long	0xe6e
	.byte	0x1
	.uleb128 0x1d
	.long	0x8b0b
	.byte	0x1
	.uleb128 0x18
	.long	0x41f7
	.uleb128 0x18
	.long	0xaf
	.byte	0x0
	.byte	0x0
	.uleb128 0x6
	.byte	0x4
	.long	0x8ff1
	.uleb128 0x10
	.long	0x8b5a
	.uleb128 0x3
	.string	"wxStdString"
	.byte	0x1
	.byte	0xb5
	.long	0x9009
	.uleb128 0x3
	.string	"wstring"
	.byte	0x34
	.byte	0x41
	.long	0x6240
	.uleb128 0x9
	.long	0x91d9
	.string	"wxStringData"
	.byte	0xc
	.byte	0x1
	.byte	0xd9
	.uleb128 0xc
	.string	"nRefs"
	.byte	0x1
	.byte	0xda
	.long	0x9a
	.byte	0x2
	.byte	0x23
	.uleb128 0x0
	.uleb128 0xc
	.string	"nDataLength"
	.byte	0x1
	.byte	0xdb
	.long	0xa1
	.byte	0x2
	.byte	0x23
	.uleb128 0x4
	.uleb128 0xc
	.string	"nAllocLength"
	.byte	0x1
	.byte	0xdc
	.long	0xa1
	.byte	0x2
	.byte	0x23
	.uleb128 0x8
	.uleb128 0x21
	.long	0x909c
	.byte	0x1
	.long	.LASF6
	.byte	0x1
	.byte	0xdf
	.string	"_ZNK12wxStringData4dataEv"
	.long	0x91d9
	.byte	0x1
	.uleb128 0x1d
	.long	0x91df
	.byte	0x1
	.byte	0x0
	.uleb128 0x21
	.long	0x90d1
	.byte	0x1
	.long	.LASF93
	.byte	0x1
	.byte	0xe2
	.string	"_ZNK12wxStringData7IsEmptyEv"
	.long	0xb5a
	.byte	0x1
	.uleb128 0x1d
	.long	0x91df
	.byte	0x1
	.byte	0x0
	.uleb128 0x1f
	.long	0x910c
	.byte	0x1
	.string	"IsShared"
	.byte	0x1
	.byte	0xe3
	.string	"_ZNK12wxStringData8IsSharedEv"
	.long	0xb5a
	.byte	0x1
	.uleb128 0x1d
	.long	0x91df
	.byte	0x1
	.byte	0x0
	.uleb128 0x20
	.long	0x913a
	.byte	0x1
	.string	"Lock"
	.byte	0x1
	.byte	0xe6
	.string	"_ZN12wxStringData4LockEv"
	.byte	0x1
	.uleb128 0x1d
	.long	0x91ea
	.byte	0x1
	.byte	0x0
	.uleb128 0x20
	.long	0x916c
	.byte	0x1
	.string	"Unlock"
	.byte	0x1
	.byte	0xf3
	.string	"_ZN12wxStringData6UnlockEv"
	.byte	0x1
	.uleb128 0x1d
	.long	0x91ea
	.byte	0x1
	.byte	0x0
	.uleb128 0x20
	.long	0x91a7
	.byte	0x1
	.string	"Validate"
	.byte	0x1
	.byte	0xf8
	.string	"_ZN12wxStringData8ValidateEb"
	.byte	0x1
	.uleb128 0x1d
	.long	0x91ea
	.byte	0x1
	.uleb128 0x18
	.long	0xb5a
	.byte	0x0
	.uleb128 0x22
	.byte	0x1
	.long	.LASF94
	.byte	0x1
	.byte	0xf9
	.string	"_ZNK12wxStringData7IsValidEv"
	.long	0xb5a
	.byte	0x1
	.uleb128 0x1d
	.long	0x91df
	.byte	0x1
	.byte	0x0
	.byte	0x0
	.uleb128 0x6
	.byte	0x4
	.long	0x5d2
	.uleb128 0x6
	.byte	0x4
	.long	0x91e5
	.uleb128 0x10
	.long	0x9018
	.uleb128 0x6
	.byte	0x4
	.long	0x9018
	.uleb128 0x1a
	.long	0xb224
	.long	.LASF95
	.byte	0x4
	.byte	0x1
	.byte	0xfd
	.uleb128 0x55
	.long	0x94a4
	.long	.LASF96
	.byte	0x4
	.byte	0x1
	.value	0x150
	.uleb128 0x56
	.string	"m_cur"
	.byte	0x1
	.value	0x150
	.long	0xb224
	.byte	0x2
	.byte	0x23
	.uleb128 0x0
	.byte	0x3
	.uleb128 0x4b
	.long	0x9235
	.byte	0x1
	.long	.LASF96
	.byte	0x1
	.value	0x150
	.byte	0x1
	.uleb128 0x1d
	.long	0xb235
	.byte	0x1
	.uleb128 0x18
	.long	0xb224
	.byte	0x0
	.uleb128 0x4b
	.long	0x924f
	.byte	0x1
	.long	.LASF96
	.byte	0x1
	.value	0x150
	.byte	0x1
	.uleb128 0x1d
	.long	0xb235
	.byte	0x1
	.uleb128 0x18
	.long	0xb23b
	.byte	0x0
	.uleb128 0x3b
	.long	0x929b
	.byte	0x1
	.string	"base"
	.byte	0x1
	.value	0x150
	.string	"_ZNK12wxStringBase22const_reverse_iterator4baseEv"
	.long	0xb224
	.byte	0x1
	.uleb128 0x1d
	.long	0xb246
	.byte	0x1
	.byte	0x0
	.uleb128 0x4c
	.long	0x92e3
	.byte	0x1
	.long	.LASF97
	.byte	0x1
	.value	0x150
	.string	"_ZNK12wxStringBase22const_reverse_iteratordeEv"
	.long	0xb22f
	.byte	0x1
	.uleb128 0x1d
	.long	0xb246
	.byte	0x1
	.byte	0x0
	.uleb128 0x4c
	.long	0x932a
	.byte	0x1
	.long	.LASF98
	.byte	0x1
	.value	0x150
	.string	"_ZN12wxStringBase22const_reverse_iteratorppEv"
	.long	0xb24c
	.byte	0x1
	.uleb128 0x1d
	.long	0xb235
	.byte	0x1
	.byte	0x0
	.uleb128 0x4c
	.long	0x9376
	.byte	0x1
	.long	.LASF98
	.byte	0x1
	.value	0x150
	.string	"_ZN12wxStringBase22const_reverse_iteratorppEi"
	.long	0x91fc
	.byte	0x1
	.uleb128 0x1d
	.long	0xb235
	.byte	0x1
	.uleb128 0x18
	.long	0x9a
	.byte	0x0
	.uleb128 0x4c
	.long	0x93bd
	.byte	0x1
	.long	.LASF99
	.byte	0x1
	.value	0x150
	.string	"_ZN12wxStringBase22const_reverse_iteratormmEv"
	.long	0xb24c
	.byte	0x1
	.uleb128 0x1d
	.long	0xb235
	.byte	0x1
	.byte	0x0
	.uleb128 0x4c
	.long	0x9409
	.byte	0x1
	.long	.LASF99
	.byte	0x1
	.value	0x150
	.string	"_ZN12wxStringBase22const_reverse_iteratormmEi"
	.long	0x91fc
	.byte	0x1
	.uleb128 0x1d
	.long	0xb235
	.byte	0x1
	.uleb128 0x18
	.long	0x9a
	.byte	0x0
	.uleb128 0x4c
	.long	0x9458
	.byte	0x1
	.long	.LASF100
	.byte	0x1
	.value	0x150
	.string	"_ZNK12wxStringBase22const_reverse_iteratoreqES0_"
	.long	0xb5a
	.byte	0x1
	.uleb128 0x1d
	.long	0xb246
	.byte	0x1
	.uleb128 0x18
	.long	0x91fc
	.byte	0x0
	.uleb128 0x50
	.byte	0x1
	.long	.LASF101
	.byte	0x1
	.value	0x150
	.string	"_ZNK12wxStringBase22const_reverse_iteratorneES0_"
	.long	0xb5a
	.byte	0x1
	.uleb128 0x1d
	.long	0xb246
	.byte	0x1
	.uleb128 0x18
	.long	0x91fc
	.byte	0x0
	.byte	0x0
	.uleb128 0x55
	.long	0x971c
	.long	.LASF102
	.byte	0x4
	.byte	0x1
	.value	0x153
	.uleb128 0x56
	.string	"m_cur"
	.byte	0x1
	.value	0x153
	.long	0x91d9
	.byte	0x2
	.byte	0x23
	.uleb128 0x0
	.byte	0x3
	.uleb128 0x4b
	.long	0x94dd
	.byte	0x1
	.long	.LASF102
	.byte	0x1
	.value	0x153
	.byte	0x1
	.uleb128 0x1d
	.long	0xb258
	.byte	0x1
	.uleb128 0x18
	.long	0x91d9
	.byte	0x0
	.uleb128 0x4b
	.long	0x94f7
	.byte	0x1
	.long	.LASF102
	.byte	0x1
	.value	0x153
	.byte	0x1
	.uleb128 0x1d
	.long	0xb258
	.byte	0x1
	.uleb128 0x18
	.long	0xb25e
	.byte	0x0
	.uleb128 0x3b
	.long	0x953d
	.byte	0x1
	.string	"base"
	.byte	0x1
	.value	0x153
	.string	"_ZNK12wxStringBase16reverse_iterator4baseEv"
	.long	0x91d9
	.byte	0x1
	.uleb128 0x1d
	.long	0xb269
	.byte	0x1
	.byte	0x0
	.uleb128 0x4c
	.long	0x957f
	.byte	0x1
	.long	.LASF97
	.byte	0x1
	.value	0x153
	.string	"_ZNK12wxStringBase16reverse_iteratordeEv"
	.long	0xb252
	.byte	0x1
	.uleb128 0x1d
	.long	0xb269
	.byte	0x1
	.byte	0x0
	.uleb128 0x4c
	.long	0x95c0
	.byte	0x1
	.long	.LASF98
	.byte	0x1
	.value	0x153
	.string	"_ZN12wxStringBase16reverse_iteratorppEv"
	.long	0xb26f
	.byte	0x1
	.uleb128 0x1d
	.long	0xb258
	.byte	0x1
	.byte	0x0
	.uleb128 0x4c
	.long	0x9606
	.byte	0x1
	.long	.LASF98
	.byte	0x1
	.value	0x153
	.string	"_ZN12wxStringBase16reverse_iteratorppEi"
	.long	0x94a4
	.byte	0x1
	.uleb128 0x1d
	.long	0xb258
	.byte	0x1
	.uleb128 0x18
	.long	0x9a
	.byte	0x0
	.uleb128 0x4c
	.long	0x9647
	.byte	0x1
	.long	.LASF99
	.byte	0x1
	.value	0x153
	.string	"_ZN12wxStringBase16reverse_iteratormmEv"
	.long	0xb26f
	.byte	0x1
	.uleb128 0x1d
	.long	0xb258
	.byte	0x1
	.byte	0x0
	.uleb128 0x4c
	.long	0x968d
	.byte	0x1
	.long	.LASF99
	.byte	0x1
	.value	0x153
	.string	"_ZN12wxStringBase16reverse_iteratormmEi"
	.long	0x94a4
	.byte	0x1
	.uleb128 0x1d
	.long	0xb258
	.byte	0x1
	.uleb128 0x18
	.long	0x9a
	.byte	0x0
	.uleb128 0x4c
	.long	0x96d6
	.byte	0x1
	.long	.LASF100
	.byte	0x1
	.value	0x153
	.string	"_ZNK12wxStringBase16reverse_iteratoreqES0_"
	.long	0xb5a
	.byte	0x1
	.uleb128 0x1d
	.long	0xb269
	.byte	0x1
	.uleb128 0x18
	.long	0x94a4
	.byte	0x0
	.uleb128 0x50
	.byte	0x1
	.long	.LASF101
	.byte	0x1
	.value	0x153
	.string	"_ZNK12wxStringBase16reverse_iteratorneES0_"
	.long	0xb5a
	.byte	0x1
	.uleb128 0x1d
	.long	0xb269
	.byte	0x1
	.uleb128 0x18
	.long	0x94a4
	.byte	0x0
	.byte	0x0
	.uleb128 0x44
	.long	.LASF25
	.byte	0x1
	.value	0x103
	.long	.LASF103
	.long	0x5e8b
	.byte	0x1
	.byte	0x1
	.uleb128 0x56
	.string	"m_pchData"
	.byte	0x1
	.value	0x106
	.long	0x91d9
	.byte	0x2
	.byte	0x23
	.uleb128 0x0
	.byte	0x2
	.uleb128 0x47
	.long	0x978c
	.byte	0x1
	.string	"GetStringData"
	.byte	0x1
	.value	0x109
	.string	"_ZNK12wxStringBase13GetStringDataEv"
	.long	0x91ea
	.byte	0x2
	.byte	0x1
	.uleb128 0x1d
	.long	0xb275
	.byte	0x1
	.byte	0x0
	.uleb128 0x48
	.long	0x97bc
	.byte	0x1
	.string	"Init"
	.byte	0x1
	.value	0x10e
	.string	"_ZN12wxStringBase4InitEv"
	.byte	0x2
	.byte	0x1
	.uleb128 0x1d
	.long	0xb280
	.byte	0x1
	.byte	0x0
	.uleb128 0x48
	.long	0x9807
	.byte	0x1
	.string	"InitWith"
	.byte	0x1
	.value	0x110
	.string	"_ZN12wxStringBase8InitWithEPKwjj"
	.byte	0x2
	.byte	0x1
	.uleb128 0x1d
	.long	0xb280
	.byte	0x1
	.uleb128 0x18
	.long	0xb224
	.uleb128 0x18
	.long	0xa1
	.uleb128 0x18
	.long	0xa1
	.byte	0x0
	.uleb128 0x48
	.long	0x983b
	.byte	0x1
	.string	"Reinit"
	.byte	0x1
	.value	0x112
	.string	"_ZN12wxStringBase6ReinitEv"
	.byte	0x2
	.byte	0x1
	.uleb128 0x1d
	.long	0xb280
	.byte	0x1
	.byte	0x0
	.uleb128 0x47
	.long	0x9883
	.byte	0x1
	.string	"AllocBuffer"
	.byte	0x1
	.value	0x116
	.string	"_ZN12wxStringBase11AllocBufferEj"
	.long	0xb5a
	.byte	0x2
	.byte	0x1
	.uleb128 0x1d
	.long	0xb280
	.byte	0x1
	.uleb128 0x18
	.long	0xa1
	.byte	0x0
	.uleb128 0x47
	.long	0x98dc
	.byte	0x1
	.string	"AllocCopy"
	.byte	0x1
	.value	0x118
	.string	"_ZNK12wxStringBase9AllocCopyER8wxStringii"
	.long	0xb5a
	.byte	0x2
	.byte	0x1
	.uleb128 0x1d
	.long	0xb275
	.byte	0x1
	.uleb128 0x18
	.long	0xb286
	.uleb128 0x18
	.long	0x9a
	.uleb128 0x18
	.long	0x9a
	.byte	0x0
	.uleb128 0x47
	.long	0x992a
	.byte	0x1
	.string	"AssignCopy"
	.byte	0x1
	.value	0x11a
	.string	"_ZN12wxStringBase10AssignCopyEjPKw"
	.long	0xb5a
	.byte	0x2
	.byte	0x1
	.uleb128 0x1d
	.long	0xb280
	.byte	0x1
	.uleb128 0x18
	.long	0xa1
	.uleb128 0x18
	.long	0xb224
	.byte	0x0
	.uleb128 0x46
	.long	0x9977
	.byte	0x1
	.long	.LASF104
	.byte	0x1
	.value	0x11d
	.string	"_ZN12wxStringBase10ConcatSelfEjPKwj"
	.long	0xb5a
	.byte	0x2
	.byte	0x1
	.uleb128 0x1d
	.long	0xb280
	.byte	0x1
	.uleb128 0x18
	.long	0xa1
	.uleb128 0x18
	.long	0xb224
	.uleb128 0x18
	.long	0xa1
	.byte	0x0
	.uleb128 0x46
	.long	0x99be
	.byte	0x1
	.long	.LASF104
	.byte	0x1
	.value	0x11e
	.string	"_ZN12wxStringBase10ConcatSelfEjPKw"
	.long	0xb5a
	.byte	0x2
	.byte	0x1
	.uleb128 0x1d
	.long	0xb280
	.byte	0x1
	.uleb128 0x18
	.long	0xa1
	.uleb128 0x18
	.long	0xb224
	.byte	0x0
	.uleb128 0x47
	.long	0x9a09
	.byte	0x1
	.string	"CopyBeforeWrite"
	.byte	0x1
	.value	0x123
	.string	"_ZN12wxStringBase15CopyBeforeWriteEv"
	.long	0xb5a
	.byte	0x2
	.byte	0x1
	.uleb128 0x1d
	.long	0xb280
	.byte	0x1
	.byte	0x0
	.uleb128 0x47
	.long	0x9a5b
	.byte	0x1
	.string	"AllocBeforeWrite"
	.byte	0x1
	.value	0x124
	.string	"_ZN12wxStringBase16AllocBeforeWriteEj"
	.long	0xb5a
	.byte	0x2
	.byte	0x1
	.uleb128 0x1d
	.long	0xb280
	.byte	0x1
	.uleb128 0x18
	.long	0xa1
	.byte	0x0
	.uleb128 0x47
	.long	0x9a96
	.byte	0x1
	.string	"Alloc"
	.byte	0x1
	.value	0x127
	.string	"_ZN12wxStringBase5AllocEj"
	.long	0xb5a
	.byte	0x2
	.byte	0x1
	.uleb128 0x1d
	.long	0xb280
	.byte	0x1
	.uleb128 0x18
	.long	0xa1
	.byte	0x0
	.uleb128 0x4b
	.long	0x9aab
	.byte	0x1
	.long	.LASF95
	.byte	0x1
	.value	0x15b
	.byte	0x1
	.uleb128 0x1d
	.long	0xb280
	.byte	0x1
	.byte	0x0
	.uleb128 0x4b
	.long	0x9ac5
	.byte	0x1
	.long	.LASF95
	.byte	0x1
	.value	0x15d
	.byte	0x1
	.uleb128 0x1d
	.long	0xb280
	.byte	0x1
	.uleb128 0x18
	.long	0xd80d
	.byte	0x0
	.uleb128 0x4b
	.long	0x9ae4
	.byte	0x1
	.long	.LASF95
	.byte	0x1
	.value	0x16c
	.byte	0x1
	.uleb128 0x1d
	.long	0xb280
	.byte	0x1
	.uleb128 0x18
	.long	0xa1
	.uleb128 0x18
	.long	0x5d2
	.byte	0x0
	.uleb128 0x4b
	.long	0x9afe
	.byte	0x1
	.long	.LASF95
	.byte	0x1
	.value	0x16f
	.byte	0x1
	.uleb128 0x1d
	.long	0xb280
	.byte	0x1
	.uleb128 0x18
	.long	0xb224
	.byte	0x0
	.uleb128 0x4b
	.long	0x9b1d
	.byte	0x1
	.long	.LASF95
	.byte	0x1
	.value	0x171
	.byte	0x1
	.uleb128 0x1d
	.long	0xb280
	.byte	0x1
	.uleb128 0x18
	.long	0xb224
	.uleb128 0x18
	.long	0xa1
	.byte	0x0
	.uleb128 0x4b
	.long	0x9b41
	.byte	0x1
	.long	.LASF95
	.byte	0x1
	.value	0x175
	.byte	0x1
	.uleb128 0x1d
	.long	0xb280
	.byte	0x1
	.uleb128 0x18
	.long	0xb224
	.uleb128 0x18
	.long	0xd813
	.uleb128 0x18
	.long	0xa1
	.byte	0x0
	.uleb128 0x4b
	.long	0x9b65
	.byte	0x1
	.long	.LASF95
	.byte	0x1
	.value	0x178
	.byte	0x1
	.uleb128 0x1d
	.long	0xb280
	.byte	0x1
	.uleb128 0x18
	.long	0xd80d
	.uleb128 0x18
	.long	0xa1
	.uleb128 0x18
	.long	0xa1
	.byte	0x0
	.uleb128 0x4b
	.long	0x9b84
	.byte	0x1
	.long	.LASF95
	.byte	0x1
	.value	0x181
	.byte	0x1
	.uleb128 0x1d
	.long	0xb280
	.byte	0x1
	.uleb128 0x18
	.long	0x8c4
	.uleb128 0x18
	.long	0x8c4
	.byte	0x0
	.uleb128 0x33
	.long	0x9ba9
	.byte	0x1
	.string	"~wxStringBase"
	.byte	0x1
	.value	0x184
	.byte	0x1
	.uleb128 0x1d
	.long	0xb280
	.byte	0x1
	.uleb128 0x1d
	.long	0x9a
	.byte	0x1
	.byte	0x0
	.uleb128 0x4c
	.long	0x9be0
	.byte	0x1
	.long	.LASF5
	.byte	0x1
	.value	0x195
	.string	"_ZN12wxStringBaseaSERKS_"
	.long	0xd829
	.byte	0x1
	.uleb128 0x1d
	.long	0xb280
	.byte	0x1
	.uleb128 0x18
	.long	0xd80d
	.byte	0x0
	.uleb128 0x4c
	.long	0x9c14
	.byte	0x1
	.long	.LASF5
	.byte	0x1
	.value	0x197
	.string	"_ZN12wxStringBaseaSEw"
	.long	0xd829
	.byte	0x1
	.uleb128 0x1d
	.long	0xb280
	.byte	0x1
	.uleb128 0x18
	.long	0x5d2
	.byte	0x0
	.uleb128 0x4c
	.long	0x9c4a
	.byte	0x1
	.long	.LASF5
	.byte	0x1
	.value	0x199
	.string	"_ZN12wxStringBaseaSEPKw"
	.long	0xd829
	.byte	0x1
	.uleb128 0x1d
	.long	0xb280
	.byte	0x1
	.uleb128 0x18
	.long	0xb224
	.byte	0x0
	.uleb128 0x4c
	.long	0x9c7f
	.byte	0x1
	.long	.LASF46
	.byte	0x1
	.value	0x19c
	.string	"_ZNK12wxStringBase6lengthEv"
	.long	0xa1
	.byte	0x1
	.uleb128 0x1d
	.long	0xb275
	.byte	0x1
	.byte	0x0
	.uleb128 0x4c
	.long	0x9cb2
	.byte	0x1
	.long	.LASF45
	.byte	0x1
	.value	0x19e
	.string	"_ZNK12wxStringBase4sizeEv"
	.long	0xa1
	.byte	0x1
	.uleb128 0x1d
	.long	0xb275
	.byte	0x1
	.byte	0x0
	.uleb128 0x4c
	.long	0x9ce9
	.byte	0x1
	.long	.LASF21
	.byte	0x1
	.value	0x1a0
	.string	"_ZNK12wxStringBase8max_sizeEv"
	.long	0xa1
	.byte	0x1
	.uleb128 0x1d
	.long	0xb275
	.byte	0x1
	.byte	0x0
	.uleb128 0x4d
	.long	0x9d24
	.byte	0x1
	.long	.LASF47
	.byte	0x1
	.value	0x1a2
	.string	"_ZN12wxStringBase6resizeEjw"
	.byte	0x1
	.uleb128 0x1d
	.long	0xb280
	.byte	0x1
	.uleb128 0x18
	.long	0xa1
	.uleb128 0x18
	.long	0x5d2
	.byte	0x0
	.uleb128 0x4d
	.long	0x9d53
	.byte	0x1
	.long	.LASF50
	.byte	0x1
	.value	0x1a4
	.string	"_ZN12wxStringBase5clearEv"
	.byte	0x1
	.uleb128 0x1d
	.long	0xb280
	.byte	0x1
	.byte	0x0
	.uleb128 0x4c
	.long	0x9d87
	.byte	0x1
	.long	.LASF51
	.byte	0x1
	.value	0x1a6
	.string	"_ZNK12wxStringBase5emptyEv"
	.long	0xb5a
	.byte	0x1
	.uleb128 0x1d
	.long	0xb275
	.byte	0x1
	.byte	0x0
	.uleb128 0x4d
	.long	0x9dbd
	.byte	0x1
	.long	.LASF49
	.byte	0x1
	.value	0x1a8
	.string	"_ZN12wxStringBase7reserveEj"
	.byte	0x1
	.uleb128 0x1d
	.long	0xb280
	.byte	0x1
	.uleb128 0x18
	.long	0xa1
	.byte	0x0
	.uleb128 0x4c
	.long	0x9df4
	.byte	0x1
	.long	.LASF48
	.byte	0x1
	.value	0x1a9
	.string	"_ZNK12wxStringBase8capacityEv"
	.long	0xa1
	.byte	0x1
	.uleb128 0x1d
	.long	0xb275
	.byte	0x1
	.byte	0x0
	.uleb128 0x3b
	.long	0x9e29
	.byte	0x1
	.string	"at"
	.byte	0x1
	.value	0x1ad
	.string	"_ZNK12wxStringBase2atEj"
	.long	0x5d2
	.byte	0x1
	.uleb128 0x1d
	.long	0xb275
	.byte	0x1
	.uleb128 0x18
	.long	0xa1
	.byte	0x0
	.uleb128 0x3b
	.long	0x9e5d
	.byte	0x1
	.string	"at"
	.byte	0x1
	.value	0x1b0
	.string	"_ZN12wxStringBase2atEj"
	.long	0xb252
	.byte	0x1
	.uleb128 0x1d
	.long	0xb280
	.byte	0x1
	.uleb128 0x18
	.long	0xa1
	.byte	0x0
	.uleb128 0x4c
	.long	0x9ea5
	.byte	0x1
	.long	.LASF53
	.byte	0x1
	.value	0x1b5
	.string	"_ZN12wxStringBase6appendERKS_jj"
	.long	0xd829
	.byte	0x1
	.uleb128 0x1d
	.long	0xb280
	.byte	0x1
	.uleb128 0x18
	.long	0xd80d
	.uleb128 0x18
	.long	0xa1
	.uleb128 0x18
	.long	0xa1
	.byte	0x0
	.uleb128 0x4c
	.long	0x9ee1
	.byte	0x1
	.long	.LASF53
	.byte	0x1
	.value	0x1bc
	.string	"_ZN12wxStringBase6appendERKS_"
	.long	0xd829
	.byte	0x1
	.uleb128 0x1d
	.long	0xb280
	.byte	0x1
	.uleb128 0x18
	.long	0xd80d
	.byte	0x0
	.uleb128 0x4c
	.long	0x9f1c
	.byte	0x1
	.long	.LASF53
	.byte	0x1
	.value	0x1bf
	.string	"_ZN12wxStringBase6appendEPKw"
	.long	0xd829
	.byte	0x1
	.uleb128 0x1d
	.long	0xb280
	.byte	0x1
	.uleb128 0x18
	.long	0xb224
	.byte	0x0
	.uleb128 0x4c
	.long	0x9f5d
	.byte	0x1
	.long	.LASF53
	.byte	0x1
	.value	0x1c1
	.string	"_ZN12wxStringBase6appendEPKwj"
	.long	0xd829
	.byte	0x1
	.uleb128 0x1d
	.long	0xb280
	.byte	0x1
	.uleb128 0x18
	.long	0xb224
	.uleb128 0x18
	.long	0xa1
	.byte	0x0
	.uleb128 0x4c
	.long	0x9f9c
	.byte	0x1
	.long	.LASF53
	.byte	0x1
	.value	0x1c4
	.string	"_ZN12wxStringBase6appendEjw"
	.long	0xd829
	.byte	0x1
	.uleb128 0x1d
	.long	0xb280
	.byte	0x1
	.uleb128 0x18
	.long	0xa1
	.uleb128 0x18
	.long	0x5d2
	.byte	0x0
	.uleb128 0x4c
	.long	0x9fdf
	.byte	0x1
	.long	.LASF53
	.byte	0x1
	.value	0x1c6
	.string	"_ZN12wxStringBase6appendEPKwS1_"
	.long	0xd829
	.byte	0x1
	.uleb128 0x1d
	.long	0xb280
	.byte	0x1
	.uleb128 0x18
	.long	0xb224
	.uleb128 0x18
	.long	0xb224
	.byte	0x0
	.uleb128 0x4c
	.long	0xa01b
	.byte	0x1
	.long	.LASF55
	.byte	0x1
	.value	0x1ca
	.string	"_ZN12wxStringBase6assignERKS_"
	.long	0xd829
	.byte	0x1
	.uleb128 0x1d
	.long	0xb280
	.byte	0x1
	.uleb128 0x18
	.long	0xd80d
	.byte	0x0
	.uleb128 0x4c
	.long	0xa063
	.byte	0x1
	.long	.LASF55
	.byte	0x1
	.value	0x1cd
	.string	"_ZN12wxStringBase6assignERKS_jj"
	.long	0xd829
	.byte	0x1
	.uleb128 0x1d
	.long	0xb280
	.byte	0x1
	.uleb128 0x18
	.long	0xd80d
	.uleb128 0x18
	.long	0xa1
	.uleb128 0x18
	.long	0xa1
	.byte	0x0
	.uleb128 0x4c
	.long	0xa09e
	.byte	0x1
	.long	.LASF55
	.byte	0x1
	.value	0x1d0
	.string	"_ZN12wxStringBase6assignEPKw"
	.long	0xd829
	.byte	0x1
	.uleb128 0x1d
	.long	0xb280
	.byte	0x1
	.uleb128 0x18
	.long	0xb224
	.byte	0x0
	.uleb128 0x4c
	.long	0xa0df
	.byte	0x1
	.long	.LASF55
	.byte	0x1
	.value	0x1d2
	.string	"_ZN12wxStringBase6assignEPKwj"
	.long	0xd829
	.byte	0x1
	.uleb128 0x1d
	.long	0xb280
	.byte	0x1
	.uleb128 0x18
	.long	0xb224
	.uleb128 0x18
	.long	0xa1
	.byte	0x0
	.uleb128 0x4c
	.long	0xa11e
	.byte	0x1
	.long	.LASF55
	.byte	0x1
	.value	0x1d5
	.string	"_ZN12wxStringBase6assignEjw"
	.long	0xd829
	.byte	0x1
	.uleb128 0x1d
	.long	0xb280
	.byte	0x1
	.uleb128 0x18
	.long	0xa1
	.uleb128 0x18
	.long	0x5d2
	.byte	0x0
	.uleb128 0x4c
	.long	0xa161
	.byte	0x1
	.long	.LASF55
	.byte	0x1
	.value	0x1d8
	.string	"_ZN12wxStringBase6assignEPKwS1_"
	.long	0xd829
	.byte	0x1
	.uleb128 0x1d
	.long	0xb280
	.byte	0x1
	.uleb128 0x18
	.long	0xb224
	.uleb128 0x18
	.long	0xb224
	.byte	0x0
	.uleb128 0x4c
	.long	0xa195
	.byte	0x1
	.long	.LASF42
	.byte	0x1
	.value	0x1dc
	.string	"_ZNK12wxStringBase5beginEv"
	.long	0xb224
	.byte	0x1
	.uleb128 0x1d
	.long	0xb275
	.byte	0x1
	.byte	0x0
	.uleb128 0x4c
	.long	0xa1c8
	.byte	0x1
	.long	.LASF42
	.byte	0x1
	.value	0x1dd
	.string	"_ZN12wxStringBase5beginEv"
	.long	0x91d9
	.byte	0x1
	.uleb128 0x1d
	.long	0xb280
	.byte	0x1
	.byte	0x0
	.uleb128 0x3b
	.long	0xa1fa
	.byte	0x1
	.string	"end"
	.byte	0x1
	.value	0x1df
	.string	"_ZNK12wxStringBase3endEv"
	.long	0xb224
	.byte	0x1
	.uleb128 0x1d
	.long	0xb275
	.byte	0x1
	.byte	0x0
	.uleb128 0x3b
	.long	0xa22b
	.byte	0x1
	.string	"end"
	.byte	0x1
	.value	0x1e0
	.string	"_ZN12wxStringBase3endEv"
	.long	0x91d9
	.byte	0x1
	.uleb128 0x1d
	.long	0xb280
	.byte	0x1
	.byte	0x0
	.uleb128 0x4c
	.long	0xa260
	.byte	0x1
	.long	.LASF43
	.byte	0x1
	.value	0x1e3
	.string	"_ZNK12wxStringBase6rbeginEv"
	.long	0x91fc
	.byte	0x1
	.uleb128 0x1d
	.long	0xb275
	.byte	0x1
	.byte	0x0
	.uleb128 0x4c
	.long	0xa294
	.byte	0x1
	.long	.LASF43
	.byte	0x1
	.value	0x1e4
	.string	"_ZN12wxStringBase6rbeginEv"
	.long	0x94a4
	.byte	0x1
	.uleb128 0x1d
	.long	0xb280
	.byte	0x1
	.byte	0x0
	.uleb128 0x4c
	.long	0xa2c7
	.byte	0x1
	.long	.LASF44
	.byte	0x1
	.value	0x1e6
	.string	"_ZNK12wxStringBase4rendEv"
	.long	0x91fc
	.byte	0x1
	.uleb128 0x1d
	.long	0xb275
	.byte	0x1
	.byte	0x0
	.uleb128 0x4c
	.long	0xa2f9
	.byte	0x1
	.long	.LASF44
	.byte	0x1
	.value	0x1e7
	.string	"_ZN12wxStringBase4rendEv"
	.long	0x94a4
	.byte	0x1
	.uleb128 0x1d
	.long	0xb280
	.byte	0x1
	.byte	0x0
	.uleb128 0x4c
	.long	0xa33b
	.byte	0x1
	.long	.LASF56
	.byte	0x1
	.value	0x1ea
	.string	"_ZN12wxStringBase6insertEjRKS_"
	.long	0xd829
	.byte	0x1
	.uleb128 0x1d
	.long	0xb280
	.byte	0x1
	.uleb128 0x18
	.long	0xa1
	.uleb128 0x18
	.long	0xd80d
	.byte	0x0
	.uleb128 0x4c
	.long	0xa389
	.byte	0x1
	.long	.LASF56
	.byte	0x1
	.value	0x1f0
	.string	"_ZN12wxStringBase6insertEjRKS_jj"
	.long	0xd829
	.byte	0x1
	.uleb128 0x1d
	.long	0xb280
	.byte	0x1
	.uleb128 0x18
	.long	0xa1
	.uleb128 0x18
	.long	0xd80d
	.uleb128 0x18
	.long	0xa1
	.uleb128 0x18
	.long	0xa1
	.byte	0x0
	.uleb128 0x4c
	.long	0xa3d0
	.byte	0x1
	.long	.LASF56
	.byte	0x1
	.value	0x1f9
	.string	"_ZN12wxStringBase6insertEjPKwj"
	.long	0xd829
	.byte	0x1
	.uleb128 0x1d
	.long	0xb280
	.byte	0x1
	.uleb128 0x18
	.long	0xa1
	.uleb128 0x18
	.long	0xb224
	.uleb128 0x18
	.long	0xa1
	.byte	0x0
	.uleb128 0x4c
	.long	0xa415
	.byte	0x1
	.long	.LASF56
	.byte	0x1
	.value	0x1fb
	.string	"_ZN12wxStringBase6insertEjjw"
	.long	0xd829
	.byte	0x1
	.uleb128 0x1d
	.long	0xb280
	.byte	0x1
	.uleb128 0x18
	.long	0xa1
	.uleb128 0x18
	.long	0xa1
	.uleb128 0x18
	.long	0x5d2
	.byte	0x0
	.uleb128 0x4c
	.long	0xa455
	.byte	0x1
	.long	.LASF56
	.byte	0x1
	.value	0x1fd
	.string	"_ZN12wxStringBase6insertEPww"
	.long	0x91d9
	.byte	0x1
	.uleb128 0x1d
	.long	0xb280
	.byte	0x1
	.uleb128 0x18
	.long	0x91d9
	.uleb128 0x18
	.long	0x5d2
	.byte	0x0
	.uleb128 0x4d
	.long	0xa49b
	.byte	0x1
	.long	.LASF56
	.byte	0x1
	.value	0x1ff
	.string	"_ZN12wxStringBase6insertEPwPKwS2_"
	.byte	0x1
	.uleb128 0x1d
	.long	0xb280
	.byte	0x1
	.uleb128 0x18
	.long	0x91d9
	.uleb128 0x18
	.long	0xb224
	.uleb128 0x18
	.long	0xb224
	.byte	0x0
	.uleb128 0x4d
	.long	0xa4dd
	.byte	0x1
	.long	.LASF56
	.byte	0x1
	.value	0x201
	.string	"_ZN12wxStringBase6insertEPwjw"
	.byte	0x1
	.uleb128 0x1d
	.long	0xb280
	.byte	0x1
	.uleb128 0x18
	.long	0x91d9
	.uleb128 0x18
	.long	0xa1
	.uleb128 0x18
	.long	0x5d2
	.byte	0x0
	.uleb128 0x4c
	.long	0xa51b
	.byte	0x1
	.long	.LASF57
	.byte	0x1
	.value	0x205
	.string	"_ZN12wxStringBase5eraseEjj"
	.long	0xd829
	.byte	0x1
	.uleb128 0x1d
	.long	0xb280
	.byte	0x1
	.uleb128 0x18
	.long	0xa1
	.uleb128 0x18
	.long	0xa1
	.byte	0x0
	.uleb128 0x4c
	.long	0xa55c
	.byte	0x1
	.long	.LASF57
	.byte	0x1
	.value	0x206
	.string	"_ZN12wxStringBase5eraseEPwS0_"
	.long	0x91d9
	.byte	0x1
	.uleb128 0x1d
	.long	0xb280
	.byte	0x1
	.uleb128 0x18
	.long	0x91d9
	.uleb128 0x18
	.long	0x91d9
	.byte	0x0
	.uleb128 0x4c
	.long	0xa595
	.byte	0x1
	.long	.LASF57
	.byte	0x1
	.value	0x20c
	.string	"_ZN12wxStringBase5eraseEPw"
	.long	0x91d9
	.byte	0x1
	.uleb128 0x1d
	.long	0xb280
	.byte	0x1
	.uleb128 0x18
	.long	0x91d9
	.byte	0x0
	.uleb128 0x3b
	.long	0xa5cb
	.byte	0x1
	.string	"c_str"
	.byte	0x1
	.value	0x20f
	.string	"_ZNK12wxStringBase5c_strEv"
	.long	0xb224
	.byte	0x1
	.uleb128 0x1d
	.long	0xb275
	.byte	0x1
	.byte	0x0
	.uleb128 0x4c
	.long	0xa5fe
	.byte	0x1
	.long	.LASF6
	.byte	0x1
	.value	0x210
	.string	"_ZNK12wxStringBase4dataEv"
	.long	0xb224
	.byte	0x1
	.uleb128 0x1d
	.long	0xb275
	.byte	0x1
	.byte	0x0
	.uleb128 0x4c
	.long	0xa646
	.byte	0x1
	.long	.LASF58
	.byte	0x1
	.value	0x213
	.string	"_ZN12wxStringBase7replaceEjjPKw"
	.long	0xd829
	.byte	0x1
	.uleb128 0x1d
	.long	0xb280
	.byte	0x1
	.uleb128 0x18
	.long	0xa1
	.uleb128 0x18
	.long	0xa1
	.uleb128 0x18
	.long	0xb224
	.byte	0x0
	.uleb128 0x4c
	.long	0xa68f
	.byte	0x1
	.long	.LASF58
	.byte	0x1
	.value	0x215
	.string	"_ZN12wxStringBase7replaceEjjRKS_"
	.long	0xd829
	.byte	0x1
	.uleb128 0x1d
	.long	0xb280
	.byte	0x1
	.uleb128 0x18
	.long	0xa1
	.uleb128 0x18
	.long	0xa1
	.uleb128 0x18
	.long	0xd80d
	.byte	0x0
	.uleb128 0x4c
	.long	0xa6db
	.byte	0x1
	.long	.LASF58
	.byte	0x1
	.value	0x218
	.string	"_ZN12wxStringBase7replaceEjjjw"
	.long	0xd829
	.byte	0x1
	.uleb128 0x1d
	.long	0xb280
	.byte	0x1
	.uleb128 0x18
	.long	0xa1
	.uleb128 0x18
	.long	0xa1
	.uleb128 0x18
	.long	0xa1
	.uleb128 0x18
	.long	0x5d2
	.byte	0x0
	.uleb128 0x4c
	.long	0xa730
	.byte	0x1
	.long	.LASF58
	.byte	0x1
	.value	0x21b
	.string	"_ZN12wxStringBase7replaceEjjRKS_jj"
	.long	0xd829
	.byte	0x1
	.uleb128 0x1d
	.long	0xb280
	.byte	0x1
	.uleb128 0x18
	.long	0xa1
	.uleb128 0x18
	.long	0xa1
	.uleb128 0x18
	.long	0xd80d
	.uleb128 0x18
	.long	0xa1
	.uleb128 0x18
	.long	0xa1
	.byte	0x0
	.uleb128 0x4c
	.long	0xa77e
	.byte	0x1
	.long	.LASF58
	.byte	0x1
	.value	0x21e
	.string	"_ZN12wxStringBase7replaceEjjPKwj"
	.long	0xd829
	.byte	0x1
	.uleb128 0x1d
	.long	0xb280
	.byte	0x1
	.uleb128 0x18
	.long	0xa1
	.uleb128 0x18
	.long	0xa1
	.uleb128 0x18
	.long	0xb224
	.uleb128 0x18
	.long	0xa1
	.byte	0x0
	.uleb128 0x4c
	.long	0xa7c9
	.byte	0x1
	.long	.LASF58
	.byte	0x1
	.value	0x21f
	.string	"_ZN12wxStringBase7replaceEPwS0_PKw"
	.long	0xd829
	.byte	0x1
	.uleb128 0x1d
	.long	0xb280
	.byte	0x1
	.uleb128 0x18
	.long	0x91d9
	.uleb128 0x18
	.long	0x91d9
	.uleb128 0x18
	.long	0xb224
	.byte	0x0
	.uleb128 0x4c
	.long	0xa81a
	.byte	0x1
	.long	.LASF58
	.byte	0x1
	.value	0x222
	.string	"_ZN12wxStringBase7replaceEPwS0_PKwj"
	.long	0xd829
	.byte	0x1
	.uleb128 0x1d
	.long	0xb280
	.byte	0x1
	.uleb128 0x18
	.long	0x91d9
	.uleb128 0x18
	.long	0x91d9
	.uleb128 0x18
	.long	0xb224
	.uleb128 0x18
	.long	0xa1
	.byte	0x0
	.uleb128 0x4c
	.long	0xa866
	.byte	0x1
	.long	.LASF58
	.byte	0x1
	.value	0x224
	.string	"_ZN12wxStringBase7replaceEPwS0_RKS_"
	.long	0xd829
	.byte	0x1
	.uleb128 0x1d
	.long	0xb280
	.byte	0x1
	.uleb128 0x18
	.long	0x91d9
	.uleb128 0x18
	.long	0x91d9
	.uleb128 0x18
	.long	0xd80d
	.byte	0x0
	.uleb128 0x4c
	.long	0xa8b5
	.byte	0x1
	.long	.LASF58
	.byte	0x1
	.value	0x226
	.string	"_ZN12wxStringBase7replaceEPwS0_jw"
	.long	0xd829
	.byte	0x1
	.uleb128 0x1d
	.long	0xb280
	.byte	0x1
	.uleb128 0x18
	.long	0x91d9
	.uleb128 0x18
	.long	0x91d9
	.uleb128 0x18
	.long	0xa1
	.uleb128 0x18
	.long	0x5d2
	.byte	0x0
	.uleb128 0x4c
	.long	0xa908
	.byte	0x1
	.long	.LASF58
	.byte	0x1
	.value	0x229
	.string	"_ZN12wxStringBase7replaceEPwS0_PKwS2_"
	.long	0xd829
	.byte	0x1
	.uleb128 0x1d
	.long	0xb280
	.byte	0x1
	.uleb128 0x18
	.long	0x91d9
	.uleb128 0x18
	.long	0x91d9
	.uleb128 0x18
	.long	0xb224
	.uleb128 0x18
	.long	0xb224
	.byte	0x0
	.uleb128 0x4f
	.long	0xa93e
	.byte	0x1
	.string	"swap"
	.byte	0x1
	.value	0x22d
	.string	"_ZN12wxStringBase4swapERS_"
	.byte	0x1
	.uleb128 0x1d
	.long	0xb280
	.byte	0x1
	.uleb128 0x18
	.long	0xd829
	.byte	0x0
	.uleb128 0x4c
	.long	0xa97f
	.byte	0x1
	.long	.LASF63
	.byte	0x1
	.value	0x234
	.string	"_ZNK12wxStringBase4findERKS_j"
	.long	0xa1
	.byte	0x1
	.uleb128 0x1d
	.long	0xb275
	.byte	0x1
	.uleb128 0x18
	.long	0xd80d
	.uleb128 0x18
	.long	0xa1
	.byte	0x0
	.uleb128 0x4c
	.long	0xa9c5
	.byte	0x1
	.long	.LASF63
	.byte	0x1
	.value	0x237
	.string	"_ZNK12wxStringBase4findEPKwjj"
	.long	0xa1
	.byte	0x1
	.uleb128 0x1d
	.long	0xb275
	.byte	0x1
	.uleb128 0x18
	.long	0xb224
	.uleb128 0x18
	.long	0xa1
	.uleb128 0x18
	.long	0xa1
	.byte	0x0
	.uleb128 0x4c
	.long	0xaa03
	.byte	0x1
	.long	.LASF63
	.byte	0x1
	.value	0x23a
	.string	"_ZNK12wxStringBase4findEwj"
	.long	0xa1
	.byte	0x1
	.uleb128 0x1d
	.long	0xb275
	.byte	0x1
	.uleb128 0x18
	.long	0x5d2
	.uleb128 0x18
	.long	0xa1
	.byte	0x0
	.uleb128 0x4c
	.long	0xaa45
	.byte	0x1
	.long	.LASF64
	.byte	0x1
	.value	0x23f
	.string	"_ZNK12wxStringBase5rfindERKS_j"
	.long	0xa1
	.byte	0x1
	.uleb128 0x1d
	.long	0xb275
	.byte	0x1
	.uleb128 0x18
	.long	0xd80d
	.uleb128 0x18
	.long	0xa1
	.byte	0x0
	.uleb128 0x4c
	.long	0xaa8c
	.byte	0x1
	.long	.LASF64
	.byte	0x1
	.value	0x243
	.string	"_ZNK12wxStringBase5rfindEPKwjj"
	.long	0xa1
	.byte	0x1
	.uleb128 0x1d
	.long	0xb275
	.byte	0x1
	.uleb128 0x18
	.long	0xb224
	.uleb128 0x18
	.long	0xa1
	.uleb128 0x18
	.long	0xa1
	.byte	0x0
	.uleb128 0x4c
	.long	0xaacb
	.byte	0x1
	.long	.LASF64
	.byte	0x1
	.value	0x245
	.string	"_ZNK12wxStringBase5rfindEwj"
	.long	0xa1
	.byte	0x1
	.uleb128 0x1d
	.long	0xb275
	.byte	0x1
	.uleb128 0x18
	.long	0x5d2
	.uleb128 0x18
	.long	0xa1
	.byte	0x0
	.uleb128 0x4c
	.long	0xab16
	.byte	0x1
	.long	.LASF65
	.byte	0x1
	.value	0x24a
	.string	"_ZNK12wxStringBase13find_first_ofERKS_j"
	.long	0xa1
	.byte	0x1
	.uleb128 0x1d
	.long	0xb275
	.byte	0x1
	.uleb128 0x18
	.long	0xd80d
	.uleb128 0x18
	.long	0xa1
	.byte	0x0
	.uleb128 0x4c
	.long	0xab60
	.byte	0x1
	.long	.LASF65
	.byte	0x1
	.value	0x24d
	.string	"_ZNK12wxStringBase13find_first_ofEPKwj"
	.long	0xa1
	.byte	0x1
	.uleb128 0x1d
	.long	0xb275
	.byte	0x1
	.uleb128 0x18
	.long	0xb224
	.uleb128 0x18
	.long	0xa1
	.byte	0x0
	.uleb128 0x4c
	.long	0xabb0
	.byte	0x1
	.long	.LASF65
	.byte	0x1
	.value	0x24e
	.string	"_ZNK12wxStringBase13find_first_ofEPKwjj"
	.long	0xa1
	.byte	0x1
	.uleb128 0x1d
	.long	0xb275
	.byte	0x1
	.uleb128 0x18
	.long	0xb224
	.uleb128 0x18
	.long	0xa1
	.uleb128 0x18
	.long	0xa1
	.byte	0x0
	.uleb128 0x4c
	.long	0xabf8
	.byte	0x1
	.long	.LASF65
	.byte	0x1
	.value	0x250
	.string	"_ZNK12wxStringBase13find_first_ofEwj"
	.long	0xa1
	.byte	0x1
	.uleb128 0x1d
	.long	0xb275
	.byte	0x1
	.uleb128 0x18
	.long	0x5d2
	.uleb128 0x18
	.long	0xa1
	.byte	0x0
	.uleb128 0x4c
	.long	0xac42
	.byte	0x1
	.long	.LASF66
	.byte	0x1
	.value	0x253
	.string	"_ZNK12wxStringBase12find_last_ofERKS_j"
	.long	0xa1
	.byte	0x1
	.uleb128 0x1d
	.long	0xb275
	.byte	0x1
	.uleb128 0x18
	.long	0xd80d
	.uleb128 0x18
	.long	0xa1
	.byte	0x0
	.uleb128 0x4c
	.long	0xac8b
	.byte	0x1
	.long	.LASF66
	.byte	0x1
	.value	0x256
	.string	"_ZNK12wxStringBase12find_last_ofEPKwj"
	.long	0xa1
	.byte	0x1
	.uleb128 0x1d
	.long	0xb275
	.byte	0x1
	.uleb128 0x18
	.long	0xb224
	.uleb128 0x18
	.long	0xa1
	.byte	0x0
	.uleb128 0x4c
	.long	0xacda
	.byte	0x1
	.long	.LASF66
	.byte	0x1
	.value	0x257
	.string	"_ZNK12wxStringBase12find_last_ofEPKwjj"
	.long	0xa1
	.byte	0x1
	.uleb128 0x1d
	.long	0xb275
	.byte	0x1
	.uleb128 0x18
	.long	0xb224
	.uleb128 0x18
	.long	0xa1
	.uleb128 0x18
	.long	0xa1
	.byte	0x0
	.uleb128 0x4c
	.long	0xad21
	.byte	0x1
	.long	.LASF66
	.byte	0x1
	.value	0x259
	.string	"_ZNK12wxStringBase12find_last_ofEwj"
	.long	0xa1
	.byte	0x1
	.uleb128 0x1d
	.long	0xb275
	.byte	0x1
	.uleb128 0x18
	.long	0x5d2
	.uleb128 0x18
	.long	0xa1
	.byte	0x0
	.uleb128 0x4c
	.long	0xad70
	.byte	0x1
	.long	.LASF67
	.byte	0x1
	.value	0x25f
	.string	"_ZNK12wxStringBase17find_first_not_ofERKS_j"
	.long	0xa1
	.byte	0x1
	.uleb128 0x1d
	.long	0xb275
	.byte	0x1
	.uleb128 0x18
	.long	0xd80d
	.uleb128 0x18
	.long	0xa1
	.byte	0x0
	.uleb128 0x4c
	.long	0xadbe
	.byte	0x1
	.long	.LASF67
	.byte	0x1
	.value	0x262
	.string	"_ZNK12wxStringBase17find_first_not_ofEPKwj"
	.long	0xa1
	.byte	0x1
	.uleb128 0x1d
	.long	0xb275
	.byte	0x1
	.uleb128 0x18
	.long	0xb224
	.uleb128 0x18
	.long	0xa1
	.byte	0x0
	.uleb128 0x4c
	.long	0xae12
	.byte	0x1
	.long	.LASF67
	.byte	0x1
	.value	0x263
	.string	"_ZNK12wxStringBase17find_first_not_ofEPKwjj"
	.long	0xa1
	.byte	0x1
	.uleb128 0x1d
	.long	0xb275
	.byte	0x1
	.uleb128 0x18
	.long	0xb224
	.uleb128 0x18
	.long	0xa1
	.uleb128 0x18
	.long	0xa1
	.byte	0x0
	.uleb128 0x4c
	.long	0xae5e
	.byte	0x1
	.long	.LASF67
	.byte	0x1
	.value	0x265
	.string	"_ZNK12wxStringBase17find_first_not_ofEwj"
	.long	0xa1
	.byte	0x1
	.uleb128 0x1d
	.long	0xb275
	.byte	0x1
	.uleb128 0x18
	.long	0x5d2
	.uleb128 0x18
	.long	0xa1
	.byte	0x0
	.uleb128 0x4c
	.long	0xaeac
	.byte	0x1
	.long	.LASF68
	.byte	0x1
	.value	0x267
	.string	"_ZNK12wxStringBase16find_last_not_ofERKS_j"
	.long	0xa1
	.byte	0x1
	.uleb128 0x1d
	.long	0xb275
	.byte	0x1
	.uleb128 0x18
	.long	0xd80d
	.uleb128 0x18
	.long	0xa1
	.byte	0x0
	.uleb128 0x4c
	.long	0xaef9
	.byte	0x1
	.long	.LASF68
	.byte	0x1
	.value	0x26a
	.string	"_ZNK12wxStringBase16find_last_not_ofEPKwj"
	.long	0xa1
	.byte	0x1
	.uleb128 0x1d
	.long	0xb275
	.byte	0x1
	.uleb128 0x18
	.long	0xb224
	.uleb128 0x18
	.long	0xa1
	.byte	0x0
	.uleb128 0x4c
	.long	0xaf4c
	.byte	0x1
	.long	.LASF68
	.byte	0x1
	.value	0x26b
	.string	"_ZNK12wxStringBase16find_last_not_ofEPKwjj"
	.long	0xa1
	.byte	0x1
	.uleb128 0x1d
	.long	0xb275
	.byte	0x1
	.uleb128 0x18
	.long	0xb224
	.uleb128 0x18
	.long	0xa1
	.uleb128 0x18
	.long	0xa1
	.byte	0x0
	.uleb128 0x4c
	.long	0xaf97
	.byte	0x1
	.long	.LASF68
	.byte	0x1
	.value	0x26d
	.string	"_ZNK12wxStringBase16find_last_not_ofEwj"
	.long	0xa1
	.byte	0x1
	.uleb128 0x1d
	.long	0xb275
	.byte	0x1
	.uleb128 0x18
	.long	0x5d2
	.uleb128 0x18
	.long	0xa1
	.byte	0x0
	.uleb128 0x4c
	.long	0xafd5
	.byte	0x1
	.long	.LASF70
	.byte	0x1
	.value	0x273
	.string	"_ZNK12wxStringBase7compareERKS_"
	.long	0x9a
	.byte	0x1
	.uleb128 0x1d
	.long	0xb275
	.byte	0x1
	.uleb128 0x18
	.long	0xd80d
	.byte	0x0
	.uleb128 0x4c
	.long	0xb01f
	.byte	0x1
	.long	.LASF70
	.byte	0x1
	.value	0x275
	.string	"_ZNK12wxStringBase7compareEjjRKS_"
	.long	0x9a
	.byte	0x1
	.uleb128 0x1d
	.long	0xb275
	.byte	0x1
	.uleb128 0x18
	.long	0xa1
	.uleb128 0x18
	.long	0xa1
	.uleb128 0x18
	.long	0xd80d
	.byte	0x0
	.uleb128 0x4c
	.long	0xb075
	.byte	0x1
	.long	.LASF70
	.byte	0x1
	.value	0x278
	.string	"_ZNK12wxStringBase7compareEjjRKS_jj"
	.long	0x9a
	.byte	0x1
	.uleb128 0x1d
	.long	0xb275
	.byte	0x1
	.uleb128 0x18
	.long	0xa1
	.uleb128 0x18
	.long	0xa1
	.uleb128 0x18
	.long	0xd80d
	.uleb128 0x18
	.long	0xa1
	.uleb128 0x18
	.long	0xa1
	.byte	0x0
	.uleb128 0x4c
	.long	0xb0b2
	.byte	0x1
	.long	.LASF70
	.byte	0x1
	.value	0x27a
	.string	"_ZNK12wxStringBase7compareEPKw"
	.long	0x9a
	.byte	0x1
	.uleb128 0x1d
	.long	0xb275
	.byte	0x1
	.uleb128 0x18
	.long	0xb224
	.byte	0x0
	.uleb128 0x4c
	.long	0xb101
	.byte	0x1
	.long	.LASF70
	.byte	0x1
	.value	0x27d
	.string	"_ZNK12wxStringBase7compareEjjPKwj"
	.long	0x9a
	.byte	0x1
	.uleb128 0x1d
	.long	0xb275
	.byte	0x1
	.uleb128 0x18
	.long	0xa1
	.uleb128 0x18
	.long	0xa1
	.uleb128 0x18
	.long	0xb224
	.uleb128 0x18
	.long	0xa1
	.byte	0x0
	.uleb128 0x3b
	.long	0xb146
	.byte	0x1
	.string	"copy"
	.byte	0x1
	.value	0x27f
	.string	"_ZN12wxStringBase4copyEPwjj"
	.long	0xa1
	.byte	0x1
	.uleb128 0x1d
	.long	0xb280
	.byte	0x1
	.uleb128 0x18
	.long	0x91d9
	.uleb128 0x18
	.long	0xa1
	.uleb128 0x18
	.long	0xa1
	.byte	0x0
	.uleb128 0x4c
	.long	0xb186
	.byte	0x1
	.long	.LASF69
	.byte	0x1
	.value	0x282
	.string	"_ZNK12wxStringBase6substrEjj"
	.long	0x91f0
	.byte	0x1
	.uleb128 0x1d
	.long	0xb275
	.byte	0x1
	.uleb128 0x18
	.long	0xa1
	.uleb128 0x18
	.long	0xa1
	.byte	0x0
	.uleb128 0x4c
	.long	0xb1bd
	.byte	0x1
	.long	.LASF52
	.byte	0x1
	.value	0x285
	.string	"_ZN12wxStringBasepLERKS_"
	.long	0xd829
	.byte	0x1
	.uleb128 0x1d
	.long	0xb280
	.byte	0x1
	.uleb128 0x18
	.long	0xd80d
	.byte	0x0
	.uleb128 0x4c
	.long	0xb1f3
	.byte	0x1
	.long	.LASF52
	.byte	0x1
	.value	0x287
	.string	"_ZN12wxStringBasepLEPKw"
	.long	0xd829
	.byte	0x1
	.uleb128 0x1d
	.long	0xb280
	.byte	0x1
	.uleb128 0x18
	.long	0xb224
	.byte	0x0
	.uleb128 0x50
	.byte	0x1
	.long	.LASF52
	.byte	0x1
	.value	0x289
	.string	"_ZN12wxStringBasepLEw"
	.long	0xd829
	.byte	0x1
	.uleb128 0x1d
	.long	0xb280
	.byte	0x1
	.uleb128 0x18
	.long	0x5d2
	.byte	0x0
	.byte	0x0
	.uleb128 0x6
	.byte	0x4
	.long	0xb22a
	.uleb128 0x10
	.long	0x5d2
	.uleb128 0x23
	.byte	0x4
	.long	0xb22a
	.uleb128 0x6
	.byte	0x4
	.long	0x91fc
	.uleb128 0x23
	.byte	0x4
	.long	0xb241
	.uleb128 0x10
	.long	0x91fc
	.uleb128 0x6
	.byte	0x4
	.long	0xb241
	.uleb128 0x23
	.byte	0x4
	.long	0x91fc
	.uleb128 0x23
	.byte	0x4
	.long	0x5d2
	.uleb128 0x6
	.byte	0x4
	.long	0x94a4
	.uleb128 0x23
	.byte	0x4
	.long	0xb264
	.uleb128 0x10
	.long	0x94a4
	.uleb128 0x6
	.byte	0x4
	.long	0xb264
	.uleb128 0x23
	.byte	0x4
	.long	0x94a4
	.uleb128 0x6
	.byte	0x4
	.long	0xb27b
	.uleb128 0x10
	.long	0x91f0
	.uleb128 0x6
	.byte	0x4
	.long	0x91f0
	.uleb128 0x23
	.byte	0x4
	.long	0xb28c
	.uleb128 0x55
	.long	0xd80d
	.long	.LASF105
	.byte	0x4
	.byte	0x1
	.value	0x294
	.uleb128 0x14
	.long	0xb2c4
	.string	"caseCompare"
	.byte	0x4
	.byte	0x1
	.value	0x4d2
	.uleb128 0x15
	.string	"exact"
	.sleb128 0
	.uleb128 0x15
	.string	"ignoreCase"
	.sleb128 1
	.byte	0x0
	.uleb128 0x14
	.long	0xb2f4
	.string	"stripType"
	.byte	0x4
	.byte	0x1
	.value	0x4d4
	.uleb128 0x15
	.string	"leading"
	.sleb128 1
	.uleb128 0x15
	.string	"trailing"
	.sleb128 2
	.uleb128 0x15
	.string	"both"
	.sleb128 3
	.byte	0x0
	.uleb128 0x24
	.long	0x91f0
	.byte	0x2
	.byte	0x23
	.uleb128 0x0
	.byte	0x1
	.uleb128 0x46
	.long	0xb32d
	.byte	0x1
	.long	.LASF5
	.byte	0x1
	.value	0x2a4
	.string	"_ZN8wxStringaSEi"
	.long	0xb286
	.byte	0x3
	.byte	0x1
	.uleb128 0x1d
	.long	0xd82f
	.byte	0x1
	.uleb128 0x18
	.long	0x9a
	.byte	0x0
	.uleb128 0x57
	.long	0xb348
	.byte	0x1
	.long	.LASF105
	.byte	0x1
	.value	0x2aa
	.byte	0x3
	.byte	0x1
	.uleb128 0x1d
	.long	0xd82f
	.byte	0x1
	.uleb128 0x18
	.long	0x9a
	.byte	0x0
	.uleb128 0x4b
	.long	0xb35d
	.byte	0x1
	.long	.LASF105
	.byte	0x1
	.value	0x2af
	.byte	0x1
	.uleb128 0x1d
	.long	0xd82f
	.byte	0x1
	.byte	0x0
	.uleb128 0x4b
	.long	0xb377
	.byte	0x1
	.long	.LASF105
	.byte	0x1
	.value	0x2b1
	.byte	0x1
	.uleb128 0x1d
	.long	0xd82f
	.byte	0x1
	.uleb128 0x18
	.long	0xd80d
	.byte	0x0
	.uleb128 0x4b
	.long	0xb391
	.byte	0x1
	.long	.LASF105
	.byte	0x1
	.value	0x2b2
	.byte	0x1
	.uleb128 0x1d
	.long	0xd82f
	.byte	0x1
	.uleb128 0x18
	.long	0xd835
	.byte	0x0
	.uleb128 0x4b
	.long	0xb3b0
	.byte	0x1
	.long	.LASF105
	.byte	0x1
	.value	0x2b4
	.byte	0x1
	.uleb128 0x1d
	.long	0xd82f
	.byte	0x1
	.uleb128 0x18
	.long	0x5d2
	.uleb128 0x18
	.long	0xa1
	.byte	0x0
	.uleb128 0x4b
	.long	0xb3cf
	.byte	0x1
	.long	.LASF105
	.byte	0x1
	.value	0x2b6
	.byte	0x1
	.uleb128 0x1d
	.long	0xd82f
	.byte	0x1
	.uleb128 0x18
	.long	0xa1
	.uleb128 0x18
	.long	0x5d2
	.byte	0x0
	.uleb128 0x4b
	.long	0xb3e9
	.byte	0x1
	.long	.LASF105
	.byte	0x1
	.value	0x2ba
	.byte	0x1
	.uleb128 0x1d
	.long	0xd82f
	.byte	0x1
	.uleb128 0x18
	.long	0xb224
	.byte	0x0
	.uleb128 0x4b
	.long	0xb408
	.byte	0x1
	.long	.LASF105
	.byte	0x1
	.value	0x2bc
	.byte	0x1
	.uleb128 0x1d
	.long	0xd82f
	.byte	0x1
	.uleb128 0x18
	.long	0xb224
	.uleb128 0x18
	.long	0xa1
	.byte	0x0
	.uleb128 0x4b
	.long	0xb42c
	.byte	0x1
	.long	.LASF105
	.byte	0x1
	.value	0x2c0
	.byte	0x1
	.uleb128 0x1d
	.long	0xd82f
	.byte	0x1
	.uleb128 0x18
	.long	0xb224
	.uleb128 0x18
	.long	0xd813
	.uleb128 0x18
	.long	0xa1
	.byte	0x0
	.uleb128 0x4b
	.long	0xb446
	.byte	0x1
	.long	.LASF105
	.byte	0x1
	.value	0x2ca
	.byte	0x1
	.uleb128 0x1d
	.long	0xd82f
	.byte	0x1
	.uleb128 0x18
	.long	0xd840
	.byte	0x0
	.uleb128 0x4b
	.long	0xb46a
	.byte	0x1
	.long	.LASF105
	.byte	0x1
	.value	0x2d0
	.byte	0x1
	.uleb128 0x1d
	.long	0xd82f
	.byte	0x1
	.uleb128 0x18
	.long	0x583
	.uleb128 0x18
	.long	0xd813
	.uleb128 0x18
	.long	0xa1
	.byte	0x0
	.uleb128 0x4b
	.long	0xb484
	.byte	0x1
	.long	.LASF105
	.byte	0x1
	.value	0x2d2
	.byte	0x1
	.uleb128 0x1d
	.long	0xd82f
	.byte	0x1
	.uleb128 0x18
	.long	0xe90
	.byte	0x0
	.uleb128 0x3b
	.long	0xb4b1
	.byte	0x1
	.string	"Len"
	.byte	0x1
	.value	0x2e9
	.string	"_ZNK8wxString3LenEv"
	.long	0xa1
	.byte	0x1
	.uleb128 0x1d
	.long	0xd84b
	.byte	0x1
	.byte	0x0
	.uleb128 0x4c
	.long	0xb4e2
	.byte	0x1
	.long	.LASF93
	.byte	0x1
	.value	0x2eb
	.string	"_ZNK8wxString7IsEmptyEv"
	.long	0xb5a
	.byte	0x1
	.uleb128 0x1d
	.long	0xd84b
	.byte	0x1
	.byte	0x0
	.uleb128 0x4c
	.long	0xb50d
	.byte	0x1
	.long	.LASF106
	.byte	0x1
	.value	0x2ed
	.string	"_ZNK8wxStringntEv"
	.long	0xb5a
	.byte	0x1
	.uleb128 0x1d
	.long	0xd84b
	.byte	0x1
	.byte	0x0
	.uleb128 0x3b
	.long	0xb548
	.byte	0x1
	.string	"Truncate"
	.byte	0x1
	.value	0x2ef
	.string	"_ZN8wxString8TruncateEj"
	.long	0xb286
	.byte	0x1
	.uleb128 0x1d
	.long	0xd82f
	.byte	0x1
	.uleb128 0x18
	.long	0xa1
	.byte	0x0
	.uleb128 0x4f
	.long	0xb574
	.byte	0x1
	.string	"Empty"
	.byte	0x1
	.value	0x2f1
	.string	"_ZN8wxString5EmptyEv"
	.byte	0x1
	.uleb128 0x1d
	.long	0xd82f
	.byte	0x1
	.byte	0x0
	.uleb128 0x4f
	.long	0xb5a0
	.byte	0x1
	.string	"Clear"
	.byte	0x1
	.value	0x2f8
	.string	"_ZN8wxString5ClearEv"
	.byte	0x1
	.uleb128 0x1d
	.long	0xd82f
	.byte	0x1
	.byte	0x0
	.uleb128 0x3b
	.long	0xb5d5
	.byte	0x1
	.string	"IsAscii"
	.byte	0x1
	.value	0x300
	.string	"_ZNK8wxString7IsAsciiEv"
	.long	0xb5a
	.byte	0x1
	.uleb128 0x1d
	.long	0xd84b
	.byte	0x1
	.byte	0x0
	.uleb128 0x3b
	.long	0xb60c
	.byte	0x1
	.string	"IsNumber"
	.byte	0x1
	.value	0x302
	.string	"_ZNK8wxString8IsNumberEv"
	.long	0xb5a
	.byte	0x1
	.uleb128 0x1d
	.long	0xd84b
	.byte	0x1
	.byte	0x0
	.uleb128 0x3b
	.long	0xb63f
	.byte	0x1
	.string	"IsWord"
	.byte	0x1
	.value	0x304
	.string	"_ZNK8wxString6IsWordEv"
	.long	0xb5a
	.byte	0x1
	.uleb128 0x1d
	.long	0xd84b
	.byte	0x1
	.byte	0x0
	.uleb128 0x3b
	.long	0xb679
	.byte	0x1
	.string	"GetChar"
	.byte	0x1
	.value	0x308
	.string	"_ZNK8wxString7GetCharEj"
	.long	0x5d2
	.byte	0x1
	.uleb128 0x1d
	.long	0xd84b
	.byte	0x1
	.uleb128 0x18
	.long	0xa1
	.byte	0x0
	.uleb128 0x3b
	.long	0xb6c3
	.byte	0x1
	.string	"GetWritableChar"
	.byte	0x1
	.value	0x30b
	.string	"_ZN8wxString15GetWritableCharEj"
	.long	0xb252
	.byte	0x1
	.uleb128 0x1d
	.long	0xd82f
	.byte	0x1
	.uleb128 0x18
	.long	0xa1
	.byte	0x0
	.uleb128 0x4f
	.long	0xb6fe
	.byte	0x1
	.string	"SetChar"
	.byte	0x1
	.value	0x30e
	.string	"_ZN8wxString7SetCharEjw"
	.byte	0x1
	.uleb128 0x1d
	.long	0xd82f
	.byte	0x1
	.uleb128 0x18
	.long	0xa1
	.uleb128 0x18
	.long	0x5d2
	.byte	0x0
	.uleb128 0x3b
	.long	0xb72d
	.byte	0x1
	.string	"Last"
	.byte	0x1
	.value	0x312
	.string	"_ZNK8wxString4LastEv"
	.long	0x5d2
	.byte	0x1
	.uleb128 0x1d
	.long	0xd84b
	.byte	0x1
	.byte	0x0
	.uleb128 0x3b
	.long	0xb75b
	.byte	0x1
	.string	"Last"
	.byte	0x1
	.value	0x31a
	.string	"_ZN8wxString4LastEv"
	.long	0xb252
	.byte	0x1
	.uleb128 0x1d
	.long	0xd82f
	.byte	0x1
	.byte	0x0
	.uleb128 0x4c
	.long	0xb78a
	.byte	0x1
	.long	.LASF8
	.byte	0x1
	.value	0x336
	.string	"_ZN8wxStringixEi"
	.long	0xb252
	.byte	0x1
	.uleb128 0x1d
	.long	0xd82f
	.byte	0x1
	.uleb128 0x18
	.long	0x9a
	.byte	0x0
	.uleb128 0x4c
	.long	0xb7b9
	.byte	0x1
	.long	.LASF8
	.byte	0x1
	.value	0x338
	.string	"_ZN8wxStringixEj"
	.long	0xb252
	.byte	0x1
	.uleb128 0x1d
	.long	0xd82f
	.byte	0x1
	.uleb128 0x18
	.long	0xa1
	.byte	0x0
	.uleb128 0x3b
	.long	0xb7fa
	.byte	0x1
	.string	"operator const wxChar*"
	.byte	0x1
	.value	0x340
	.string	"_ZNK8wxStringcvPKwEv"
	.long	0xb224
	.byte	0x1
	.uleb128 0x1d
	.long	0xd84b
	.byte	0x1
	.byte	0x0
	.uleb128 0x3b
	.long	0xb82d
	.byte	0x1
	.string	"wx_str"
	.byte	0x1
	.value	0x343
	.string	"_ZNK8wxString6wx_strEv"
	.long	0xb224
	.byte	0x1
	.uleb128 0x1d
	.long	0xd84b
	.byte	0x1
	.byte	0x0
	.uleb128 0x3b
	.long	0xb862
	.byte	0x1
	.string	"GetData"
	.byte	0x1
	.value	0x345
	.string	"_ZNK8wxString7GetDataEv"
	.long	0xb224
	.byte	0x1
	.uleb128 0x1d
	.long	0xd84b
	.byte	0x1
	.byte	0x0
	.uleb128 0x3b
	.long	0xb8a8
	.byte	0x1
	.string	"char_str"
	.byte	0x1
	.value	0x34b
	.string	"_ZNK8wxString8char_strERK8wxMBConv"
	.long	0xb62
	.byte	0x1
	.uleb128 0x1d
	.long	0xd84b
	.byte	0x1
	.uleb128 0x18
	.long	0xd813
	.byte	0x0
	.uleb128 0x3b
	.long	0xb8e1
	.byte	0x1
	.string	"wchar_str"
	.byte	0x1
	.value	0x34e
	.string	"_ZNK8wxString9wchar_strEv"
	.long	0xe9c
	.byte	0x1
	.uleb128 0x1d
	.long	0xd84b
	.byte	0x1
	.byte	0x0
	.uleb128 0x4c
	.long	0xb914
	.byte	0x1
	.long	.LASF107
	.byte	0x1
	.value	0x359
	.string	"_ZN8wxString9FromAsciiEPKc"
	.long	0xb28c
	.byte	0x1
	.uleb128 0x18
	.long	0x583
	.byte	0x0
	.uleb128 0x4c
	.long	0xb945
	.byte	0x1
	.long	.LASF107
	.byte	0x1
	.value	0x35a
	.string	"_ZN8wxString9FromAsciiEc"
	.long	0xb28c
	.byte	0x1
	.uleb128 0x18
	.long	0x1a9
	.byte	0x0
	.uleb128 0x3b
	.long	0xb97a
	.byte	0x1
	.string	"ToAscii"
	.byte	0x1
	.value	0x35b
	.string	"_ZNK8wxString7ToAsciiEv"
	.long	0xb49
	.byte	0x1
	.uleb128 0x1d
	.long	0xd84b
	.byte	0x1
	.byte	0x0
	.uleb128 0x4c
	.long	0xb9ac
	.byte	0x1
	.long	.LASF108
	.byte	0x1
	.value	0x365
	.string	"_ZN8wxString8FromUTF8EPKc"
	.long	0xb28c
	.byte	0x1
	.uleb128 0x18
	.long	0x583
	.byte	0x0
	.uleb128 0x4c
	.long	0xb9e4
	.byte	0x1
	.long	.LASF108
	.byte	0x1
	.value	0x367
	.string	"_ZN8wxString8FromUTF8EPKcj"
	.long	0xb28c
	.byte	0x1
	.uleb128 0x18
	.long	0x583
	.uleb128 0x18
	.long	0xa1
	.byte	0x0
	.uleb128 0x3b
	.long	0xba1b
	.byte	0x1
	.string	"utf8_str"
	.byte	0x1
	.value	0x369
	.string	"_ZNK8wxString8utf8_strEv"
	.long	0xb49
	.byte	0x1
	.uleb128 0x1d
	.long	0xd84b
	.byte	0x1
	.byte	0x0
	.uleb128 0x3b
	.long	0xba4e
	.byte	0x1
	.string	"ToUTF8"
	.byte	0x1
	.value	0x36a
	.string	"_ZNK8wxString6ToUTF8Ev"
	.long	0xb49
	.byte	0x1
	.uleb128 0x1d
	.long	0xd84b
	.byte	0x1
	.byte	0x0
	.uleb128 0x4c
	.long	0xba8b
	.byte	0x1
	.long	.LASF109
	.byte	0x1
	.value	0x37d
	.string	"_ZN8wxString12From8BitDataEPKcj"
	.long	0xb28c
	.byte	0x1
	.uleb128 0x18
	.long	0x583
	.uleb128 0x18
	.long	0xa1
	.byte	0x0
	.uleb128 0x4c
	.long	0xbac2
	.byte	0x1
	.long	.LASF109
	.byte	0x1
	.value	0x380
	.string	"_ZN8wxString12From8BitDataEPKc"
	.long	0xb28c
	.byte	0x1
	.uleb128 0x18
	.long	0x583
	.byte	0x0
	.uleb128 0x3b
	.long	0xbafe
	.byte	0x1
	.string	"To8BitData"
	.byte	0x1
	.value	0x382
	.string	"_ZNK8wxString10To8BitDataEv"
	.long	0xb49
	.byte	0x1
	.uleb128 0x1d
	.long	0xd84b
	.byte	0x1
	.byte	0x0
	.uleb128 0x3b
	.long	0xbb40
	.byte	0x1
	.string	"mb_str"
	.byte	0x1
	.value	0x397
	.string	"_ZNK8wxString6mb_strERK8wxMBConv"
	.long	0xb49
	.byte	0x1
	.uleb128 0x1d
	.long	0xd84b
	.byte	0x1
	.uleb128 0x18
	.long	0xd813
	.byte	0x0
	.uleb128 0x3b
	.long	0xbb75
	.byte	0x1
	.string	"mbc_str"
	.byte	0x1
	.value	0x399
	.string	"_ZNK8wxString7mbc_strEv"
	.long	0xb49
	.byte	0x1
	.uleb128 0x1d
	.long	0xd84b
	.byte	0x1
	.byte	0x0
	.uleb128 0x3b
	.long	0xbba8
	.byte	0x1
	.string	"wc_str"
	.byte	0x1
	.value	0x39b
	.string	"_ZNK8wxString6wc_strEv"
	.long	0xb224
	.byte	0x1
	.uleb128 0x1d
	.long	0xd84b
	.byte	0x1
	.byte	0x0
	.uleb128 0x3b
	.long	0xbbea
	.byte	0x1
	.string	"wc_str"
	.byte	0x1
	.value	0x39e
	.string	"_ZNK8wxString6wc_strERK8wxMBConv"
	.long	0xb224
	.byte	0x1
	.uleb128 0x1d
	.long	0xd84b
	.byte	0x1
	.uleb128 0x18
	.long	0xd813
	.byte	0x0
	.uleb128 0x3b
	.long	0xbc1d
	.byte	0x1
	.string	"fn_str"
	.byte	0x1
	.value	0x3a1
	.string	"_ZNK8wxString6fn_strEv"
	.long	0xb49
	.byte	0x1
	.uleb128 0x1d
	.long	0xd84b
	.byte	0x1
	.byte	0x0
	.uleb128 0x4c
	.long	0xbc5b
	.byte	0x1
	.long	.LASF5
	.byte	0x1
	.value	0x3b9
	.string	"_ZN8wxStringaSERK12wxStringBase"
	.long	0xb286
	.byte	0x1
	.uleb128 0x1d
	.long	0xd82f
	.byte	0x1
	.uleb128 0x18
	.long	0xd80d
	.byte	0x0
	.uleb128 0x4c
	.long	0xbc8a
	.byte	0x1
	.long	.LASF5
	.byte	0x1
	.value	0x3bc
	.string	"_ZN8wxStringaSEw"
	.long	0xb286
	.byte	0x1
	.uleb128 0x1d
	.long	0xd82f
	.byte	0x1
	.uleb128 0x18
	.long	0x5d2
	.byte	0x0
	.uleb128 0x4c
	.long	0xbcbb
	.byte	0x1
	.long	.LASF5
	.byte	0x1
	.value	0x3c4
	.string	"_ZN8wxStringaSEPKw"
	.long	0xb286
	.byte	0x1
	.uleb128 0x1d
	.long	0xd82f
	.byte	0x1
	.uleb128 0x18
	.long	0xb224
	.byte	0x0
	.uleb128 0x4c
	.long	0xbcfa
	.byte	0x1
	.long	.LASF5
	.byte	0x1
	.value	0x3ca
	.string	"_ZN8wxStringaSERK13wxWCharBuffer"
	.long	0xb286
	.byte	0x1
	.uleb128 0x1d
	.long	0xd82f
	.byte	0x1
	.uleb128 0x18
	.long	0xe90
	.byte	0x0
	.uleb128 0x4c
	.long	0xbd2c
	.byte	0x1
	.long	.LASF110
	.byte	0x1
	.value	0x3e0
	.string	"_ZN8wxStringlsERKS_"
	.long	0xb286
	.byte	0x1
	.uleb128 0x1d
	.long	0xd82f
	.byte	0x1
	.uleb128 0x18
	.long	0xd835
	.byte	0x0
	.uleb128 0x4c
	.long	0xbd5d
	.byte	0x1
	.long	.LASF110
	.byte	0x1
	.value	0x3eb
	.string	"_ZN8wxStringlsEPKw"
	.long	0xb286
	.byte	0x1
	.uleb128 0x1d
	.long	0xd82f
	.byte	0x1
	.uleb128 0x18
	.long	0xb224
	.byte	0x0
	.uleb128 0x4c
	.long	0xbd8c
	.byte	0x1
	.long	.LASF110
	.byte	0x1
	.value	0x3ee
	.string	"_ZN8wxStringlsEw"
	.long	0xb286
	.byte	0x1
	.uleb128 0x1d
	.long	0xd82f
	.byte	0x1
	.uleb128 0x18
	.long	0x5d2
	.byte	0x0
	.uleb128 0x4c
	.long	0xbdcb
	.byte	0x1
	.long	.LASF110
	.byte	0x1
	.value	0x3f2
	.string	"_ZN8wxStringlsERK13wxWCharBuffer"
	.long	0xb286
	.byte	0x1
	.uleb128 0x1d
	.long	0xd82f
	.byte	0x1
	.uleb128 0x18
	.long	0xe90
	.byte	0x0
	.uleb128 0x4d
	.long	0xbe06
	.byte	0x1
	.long	.LASF52
	.byte	0x1
	.value	0x3f4
	.string	"_ZN8wxStringpLERK13wxWCharBuffer"
	.byte	0x1
	.uleb128 0x1d
	.long	0xd82f
	.byte	0x1
	.uleb128 0x18
	.long	0xe90
	.byte	0x0
	.uleb128 0x4c
	.long	0xbe3d
	.byte	0x1
	.long	.LASF111
	.byte	0x1
	.value	0x3fe
	.string	"_ZN8wxString6AppendERKS_"
	.long	0xb286
	.byte	0x1
	.uleb128 0x1d
	.long	0xd82f
	.byte	0x1
	.uleb128 0x18
	.long	0xd835
	.byte	0x0
	.uleb128 0x4c
	.long	0xbe73
	.byte	0x1
	.long	.LASF111
	.byte	0x1
	.value	0x407
	.string	"_ZN8wxString6AppendEPKw"
	.long	0xb286
	.byte	0x1
	.uleb128 0x1d
	.long	0xd82f
	.byte	0x1
	.uleb128 0x18
	.long	0xb224
	.byte	0x0
	.uleb128 0x4c
	.long	0xbead
	.byte	0x1
	.long	.LASF111
	.byte	0x1
	.value	0x40a
	.string	"_ZN8wxString6AppendEwj"
	.long	0xb286
	.byte	0x1
	.uleb128 0x1d
	.long	0xd82f
	.byte	0x1
	.uleb128 0x18
	.long	0x5d2
	.uleb128 0x18
	.long	0xa1
	.byte	0x0
	.uleb128 0x4c
	.long	0xbee9
	.byte	0x1
	.long	.LASF111
	.byte	0x1
	.value	0x40c
	.string	"_ZN8wxString6AppendEPKwj"
	.long	0xb286
	.byte	0x1
	.uleb128 0x1d
	.long	0xd82f
	.byte	0x1
	.uleb128 0x18
	.long	0xb224
	.uleb128 0x18
	.long	0xa1
	.byte	0x0
	.uleb128 0x3b
	.long	0xbf25
	.byte	0x1
	.string	"Prepend"
	.byte	0x1
	.value	0x410
	.string	"_ZN8wxString7PrependERKS_"
	.long	0xb286
	.byte	0x1
	.uleb128 0x1d
	.long	0xd82f
	.byte	0x1
	.uleb128 0x18
	.long	0xd835
	.byte	0x0
	.uleb128 0x4c
	.long	0xbf54
	.byte	0x1
	.long	.LASF110
	.byte	0x1
	.value	0x424
	.string	"_ZN8wxStringlsEi"
	.long	0xb286
	.byte	0x1
	.uleb128 0x1d
	.long	0xd82f
	.byte	0x1
	.uleb128 0x18
	.long	0x9a
	.byte	0x0
	.uleb128 0x4c
	.long	0xbf83
	.byte	0x1
	.long	.LASF110
	.byte	0x1
	.value	0x427
	.string	"_ZN8wxStringlsEj"
	.long	0xb286
	.byte	0x1
	.uleb128 0x1d
	.long	0xd82f
	.byte	0x1
	.uleb128 0x18
	.long	0xaf
	.byte	0x0
	.uleb128 0x4c
	.long	0xbfb2
	.byte	0x1
	.long	.LASF110
	.byte	0x1
	.value	0x42a
	.string	"_ZN8wxStringlsEl"
	.long	0xb286
	.byte	0x1
	.uleb128 0x1d
	.long	0xd82f
	.byte	0x1
	.uleb128 0x18
	.long	0x15c
	.byte	0x0
	.uleb128 0x4c
	.long	0xbfe1
	.byte	0x1
	.long	.LASF110
	.byte	0x1
	.value	0x42d
	.string	"_ZN8wxStringlsEm"
	.long	0xb286
	.byte	0x1
	.uleb128 0x1d
	.long	0xd82f
	.byte	0x1
	.uleb128 0x18
	.long	0xdd
	.byte	0x0
	.uleb128 0x4c
	.long	0xc010
	.byte	0x1
	.long	.LASF110
	.byte	0x1
	.value	0x431
	.string	"_ZN8wxStringlsEx"
	.long	0xb286
	.byte	0x1
	.uleb128 0x1d
	.long	0xd82f
	.byte	0x1
	.uleb128 0x18
	.long	0x112
	.byte	0x0
	.uleb128 0x4c
	.long	0xc03f
	.byte	0x1
	.long	.LASF110
	.byte	0x1
	.value	0x437
	.string	"_ZN8wxStringlsEy"
	.long	0xb286
	.byte	0x1
	.uleb128 0x1d
	.long	0xd82f
	.byte	0x1
	.uleb128 0x18
	.long	0x123
	.byte	0x0
	.uleb128 0x4c
	.long	0xc06e
	.byte	0x1
	.long	.LASF110
	.byte	0x1
	.value	0x43e
	.string	"_ZN8wxStringlsEf"
	.long	0xb286
	.byte	0x1
	.uleb128 0x1d
	.long	0xd82f
	.byte	0x1
	.uleb128 0x18
	.long	0x75c
	.byte	0x0
	.uleb128 0x4c
	.long	0xc09d
	.byte	0x1
	.long	.LASF110
	.byte	0x1
	.value	0x441
	.string	"_ZN8wxStringlsEd"
	.long	0xb286
	.byte	0x1
	.uleb128 0x1d
	.long	0xd82f
	.byte	0x1
	.uleb128 0x18
	.long	0x765
	.byte	0x0
	.uleb128 0x3b
	.long	0xc0d1
	.byte	0x1
	.string	"Cmp"
	.byte	0x1
	.value	0x446
	.string	"_ZNK8wxString3CmpEPKw"
	.long	0x9a
	.byte	0x1
	.uleb128 0x1d
	.long	0xd84b
	.byte	0x1
	.uleb128 0x18
	.long	0xb224
	.byte	0x0
	.uleb128 0x3b
	.long	0xc106
	.byte	0x1
	.string	"Cmp"
	.byte	0x1
	.value	0x447
	.string	"_ZNK8wxString3CmpERKS_"
	.long	0x9a
	.byte	0x1
	.uleb128 0x1d
	.long	0xd84b
	.byte	0x1
	.uleb128 0x18
	.long	0xd835
	.byte	0x0
	.uleb128 0x4c
	.long	0xc140
	.byte	0x1
	.long	.LASF112
	.byte	0x1
	.value	0x449
	.string	"_ZNK8wxString9CmpNoCaseEPKw"
	.long	0x9a
	.byte	0x1
	.uleb128 0x1d
	.long	0xd84b
	.byte	0x1
	.uleb128 0x18
	.long	0xb224
	.byte	0x0
	.uleb128 0x4c
	.long	0xc17b
	.byte	0x1
	.long	.LASF112
	.byte	0x1
	.value	0x44a
	.string	"_ZNK8wxString9CmpNoCaseERKS_"
	.long	0x9a
	.byte	0x1
	.uleb128 0x1d
	.long	0xd84b
	.byte	0x1
	.uleb128 0x18
	.long	0xd835
	.byte	0x0
	.uleb128 0x4c
	.long	0xc1ba
	.byte	0x1
	.long	.LASF113
	.byte	0x1
	.value	0x44d
	.string	"_ZNK8wxString8IsSameAsEPKwb"
	.long	0xb5a
	.byte	0x1
	.uleb128 0x1d
	.long	0xd84b
	.byte	0x1
	.uleb128 0x18
	.long	0xb224
	.uleb128 0x18
	.long	0xb5a
	.byte	0x0
	.uleb128 0x4c
	.long	0xc1f7
	.byte	0x1
	.long	.LASF113
	.byte	0x1
	.value	0x450
	.string	"_ZNK8wxString8IsSameAsEwb"
	.long	0xb5a
	.byte	0x1
	.uleb128 0x1d
	.long	0xd84b
	.byte	0x1
	.uleb128 0x18
	.long	0x5d2
	.uleb128 0x18
	.long	0xb5a
	.byte	0x0
	.uleb128 0x3b
	.long	0xc22f
	.byte	0x1
	.string	"Mid"
	.byte	0x1
	.value	0x459
	.string	"_ZNK8wxString3MidEjj"
	.long	0xb28c
	.byte	0x1
	.uleb128 0x1d
	.long	0xd84b
	.byte	0x1
	.uleb128 0x18
	.long	0xa1
	.uleb128 0x18
	.long	0xa1
	.byte	0x0
	.uleb128 0x3b
	.long	0xc26c
	.byte	0x1
	.string	"operator()"
	.byte	0x1
	.value	0x45c
	.string	"_ZNK8wxStringclEjj"
	.long	0xb28c
	.byte	0x1
	.uleb128 0x1d
	.long	0xd84b
	.byte	0x1
	.uleb128 0x18
	.long	0xa1
	.uleb128 0x18
	.long	0xa1
	.byte	0x0
	.uleb128 0x3b
	.long	0xc2b7
	.byte	0x1
	.string	"StartsWith"
	.byte	0x1
	.value	0x462
	.string	"_ZNK8wxString10StartsWithEPKwPS_"
	.long	0xb5a
	.byte	0x1
	.uleb128 0x1d
	.long	0xd84b
	.byte	0x1
	.uleb128 0x18
	.long	0xb224
	.uleb128 0x18
	.long	0xd82f
	.byte	0x0
	.uleb128 0x3b
	.long	0xc2fd
	.byte	0x1
	.string	"EndsWith"
	.byte	0x1
	.value	0x466
	.string	"_ZNK8wxString8EndsWithEPKwPS_"
	.long	0xb5a
	.byte	0x1
	.uleb128 0x1d
	.long	0xd84b
	.byte	0x1
	.uleb128 0x18
	.long	0xb224
	.uleb128 0x18
	.long	0xd82f
	.byte	0x0
	.uleb128 0x3b
	.long	0xc331
	.byte	0x1
	.string	"Left"
	.byte	0x1
	.value	0x469
	.string	"_ZNK8wxString4LeftEj"
	.long	0xb28c
	.byte	0x1
	.uleb128 0x1d
	.long	0xd84b
	.byte	0x1
	.uleb128 0x18
	.long	0xa1
	.byte	0x0
	.uleb128 0x3b
	.long	0xc367
	.byte	0x1
	.string	"Right"
	.byte	0x1
	.value	0x46b
	.string	"_ZNK8wxString5RightEj"
	.long	0xb28c
	.byte	0x1
	.uleb128 0x1d
	.long	0xd84b
	.byte	0x1
	.uleb128 0x18
	.long	0xa1
	.byte	0x0
	.uleb128 0x3b
	.long	0xc3aa
	.byte	0x1
	.string	"BeforeFirst"
	.byte	0x1
	.value	0x46e
	.string	"_ZNK8wxString11BeforeFirstEw"
	.long	0xb28c
	.byte	0x1
	.uleb128 0x1d
	.long	0xd84b
	.byte	0x1
	.uleb128 0x18
	.long	0x5d2
	.byte	0x0
	.uleb128 0x3b
	.long	0xc3eb
	.byte	0x1
	.string	"BeforeLast"
	.byte	0x1
	.value	0x471
	.string	"_ZNK8wxString10BeforeLastEw"
	.long	0xb28c
	.byte	0x1
	.uleb128 0x1d
	.long	0xd84b
	.byte	0x1
	.uleb128 0x18
	.long	0x5d2
	.byte	0x0
	.uleb128 0x3b
	.long	0xc42c
	.byte	0x1
	.string	"AfterFirst"
	.byte	0x1
	.value	0x474
	.string	"_ZNK8wxString10AfterFirstEw"
	.long	0xb28c
	.byte	0x1
	.uleb128 0x1d
	.long	0xd84b
	.byte	0x1
	.uleb128 0x18
	.long	0x5d2
	.byte	0x0
	.uleb128 0x3b
	.long	0xc46a
	.byte	0x1
	.string	"AfterLast"
	.byte	0x1
	.value	0x477
	.string	"_ZNK8wxString9AfterLastEw"
	.long	0xb28c
	.byte	0x1
	.uleb128 0x1d
	.long	0xd84b
	.byte	0x1
	.uleb128 0x18
	.long	0x5d2
	.byte	0x0
	.uleb128 0x3b
	.long	0xc4a2
	.byte	0x1
	.string	"Before"
	.byte	0x1
	.value	0x47a
	.string	"_ZNK8wxString6BeforeEw"
	.long	0xb28c
	.byte	0x1
	.uleb128 0x1d
	.long	0xd84b
	.byte	0x1
	.uleb128 0x18
	.long	0x5d2
	.byte	0x0
	.uleb128 0x3b
	.long	0xc4d8
	.byte	0x1
	.string	"After"
	.byte	0x1
	.value	0x47b
	.string	"_ZNK8wxString5AfterEw"
	.long	0xb28c
	.byte	0x1
	.uleb128 0x1d
	.long	0xd84b
	.byte	0x1
	.uleb128 0x18
	.long	0x5d2
	.byte	0x0
	.uleb128 0x3b
	.long	0xc510
	.byte	0x1
	.string	"MakeUpper"
	.byte	0x1
	.value	0x47f
	.string	"_ZN8wxString9MakeUpperEv"
	.long	0xb286
	.byte	0x1
	.uleb128 0x1d
	.long	0xd82f
	.byte	0x1
	.byte	0x0
	.uleb128 0x3b
	.long	0xc541
	.byte	0x1
	.string	"Upper"
	.byte	0x1
	.value	0x482
	.string	"_ZNK8wxString5UpperEv"
	.long	0xb28c
	.byte	0x1
	.uleb128 0x1d
	.long	0xd84b
	.byte	0x1
	.byte	0x0
	.uleb128 0x3b
	.long	0xc579
	.byte	0x1
	.string	"MakeLower"
	.byte	0x1
	.value	0x484
	.string	"_ZN8wxString9MakeLowerEv"
	.long	0xb286
	.byte	0x1
	.uleb128 0x1d
	.long	0xd82f
	.byte	0x1
	.byte	0x0
	.uleb128 0x3b
	.long	0xc5aa
	.byte	0x1
	.string	"Lower"
	.byte	0x1
	.value	0x486
	.string	"_ZNK8wxString5LowerEv"
	.long	0xb28c
	.byte	0x1
	.uleb128 0x1d
	.long	0xd84b
	.byte	0x1
	.byte	0x0
	.uleb128 0x3b
	.long	0xc5dd
	.byte	0x1
	.string	"Trim"
	.byte	0x1
	.value	0x48a
	.string	"_ZN8wxString4TrimEb"
	.long	0xb286
	.byte	0x1
	.uleb128 0x1d
	.long	0xd82f
	.byte	0x1
	.uleb128 0x18
	.long	0xb5a
	.byte	0x0
	.uleb128 0x3b
	.long	0xc61a
	.byte	0x1
	.string	"Pad"
	.byte	0x1
	.value	0x48c
	.string	"_ZN8wxString3PadEjwb"
	.long	0xb286
	.byte	0x1
	.uleb128 0x1d
	.long	0xd82f
	.byte	0x1
	.uleb128 0x18
	.long	0xa1
	.uleb128 0x18
	.long	0x5d2
	.uleb128 0x18
	.long	0xb5a
	.byte	0x0
	.uleb128 0x3b
	.long	0xc654
	.byte	0x1
	.string	"Find"
	.byte	0x1
	.value	0x490
	.string	"_ZNK8wxString4FindEwb"
	.long	0x9a
	.byte	0x1
	.uleb128 0x1d
	.long	0xd84b
	.byte	0x1
	.uleb128 0x18
	.long	0x5d2
	.uleb128 0x18
	.long	0xb5a
	.byte	0x0
	.uleb128 0x3b
	.long	0xc68a
	.byte	0x1
	.string	"Find"
	.byte	0x1
	.value	0x492
	.string	"_ZNK8wxString4FindEPKw"
	.long	0x9a
	.byte	0x1
	.uleb128 0x1d
	.long	0xd84b
	.byte	0x1
	.uleb128 0x18
	.long	0xb224
	.byte	0x0
	.uleb128 0x3b
	.long	0xc6d3
	.byte	0x1
	.string	"Replace"
	.byte	0x1
	.value	0x497
	.string	"_ZN8wxString7ReplaceEPKwS1_b"
	.long	0xa1
	.byte	0x1
	.uleb128 0x1d
	.long	0xd82f
	.byte	0x1
	.uleb128 0x18
	.long	0xb224
	.uleb128 0x18
	.long	0xb224
	.uleb128 0x18
	.long	0xb5a
	.byte	0x0
	.uleb128 0x3b
	.long	0xc70f
	.byte	0x1
	.string	"Matches"
	.byte	0x1
	.value	0x49a
	.string	"_ZNK8wxString7MatchesEPKw"
	.long	0xb5a
	.byte	0x1
	.uleb128 0x1d
	.long	0xd84b
	.byte	0x1
	.uleb128 0x18
	.long	0xb224
	.byte	0x0
	.uleb128 0x3b
	.long	0xc74e
	.byte	0x1
	.string	"ToLong"
	.byte	0x1
	.value	0x4a2
	.string	"_ZNK8wxString6ToLongEPli"
	.long	0xb5a
	.byte	0x1
	.uleb128 0x1d
	.long	0xd84b
	.byte	0x1
	.uleb128 0x18
	.long	0xd851
	.uleb128 0x18
	.long	0x9a
	.byte	0x0
	.uleb128 0x3b
	.long	0xc78f
	.byte	0x1
	.string	"ToULong"
	.byte	0x1
	.value	0x4a4
	.string	"_ZNK8wxString7ToULongEPmi"
	.long	0xb5a
	.byte	0x1
	.uleb128 0x1d
	.long	0xd84b
	.byte	0x1
	.uleb128 0x18
	.long	0xd857
	.uleb128 0x18
	.long	0x9a
	.byte	0x0
	.uleb128 0x3b
	.long	0xc7d7
	.byte	0x1
	.string	"ToLongLong"
	.byte	0x1
	.value	0x4a7
	.string	"_ZNK8wxString10ToLongLongEPxi"
	.long	0xb5a
	.byte	0x1
	.uleb128 0x1d
	.long	0xd84b
	.byte	0x1
	.uleb128 0x18
	.long	0xd85d
	.uleb128 0x18
	.long	0x9a
	.byte	0x0
	.uleb128 0x3b
	.long	0xc821
	.byte	0x1
	.string	"ToULongLong"
	.byte	0x1
	.value	0x4a9
	.string	"_ZNK8wxString11ToULongLongEPyi"
	.long	0xb5a
	.byte	0x1
	.uleb128 0x1d
	.long	0xd84b
	.byte	0x1
	.uleb128 0x18
	.long	0xd863
	.uleb128 0x18
	.long	0x9a
	.byte	0x0
	.uleb128 0x4c
	.long	0xc859
	.byte	0x1
	.long	.LASF114
	.byte	0x1
	.value	0x4ac
	.string	"_ZNK8wxString8ToDoubleEPd"
	.long	0xb5a
	.byte	0x1
	.uleb128 0x1d
	.long	0xd84b
	.byte	0x1
	.uleb128 0x18
	.long	0xd869
	.byte	0x0
	.uleb128 0x3b
	.long	0xc894
	.byte	0x1
	.string	"Printf"
	.byte	0x1
	.value	0x4b3
	.string	"_ZN8wxString6PrintfEPKwz"
	.long	0x9a
	.byte	0x1
	.uleb128 0x1d
	.long	0xd82f
	.byte	0x1
	.uleb128 0x18
	.long	0xb224
	.uleb128 0x3d
	.byte	0x0
	.uleb128 0x3b
	.long	0xc8d6
	.byte	0x1
	.string	"PrintfV"
	.byte	0x1
	.value	0x4b5
	.string	"_ZN8wxString7PrintfVEPKwPc"
	.long	0x9a
	.byte	0x1
	.uleb128 0x1d
	.long	0xd82f
	.byte	0x1
	.uleb128 0x18
	.long	0xb224
	.uleb128 0x18
	.long	0x58e
	.byte	0x0
	.uleb128 0x4c
	.long	0xc908
	.byte	0x1
	.long	.LASF115
	.byte	0x1
	.value	0x4b8
	.string	"_ZN8wxString6FormatEPKwz"
	.long	0xb28c
	.byte	0x1
	.uleb128 0x18
	.long	0xb224
	.uleb128 0x3d
	.byte	0x0
	.uleb128 0x3b
	.long	0xc944
	.byte	0x1
	.string	"FormatV"
	.byte	0x1
	.value	0x4ba
	.string	"_ZN8wxString7FormatVEPKwPc"
	.long	0xb28c
	.byte	0x1
	.uleb128 0x18
	.long	0xb224
	.uleb128 0x18
	.long	0x58e
	.byte	0x0
	.uleb128 0x3b
	.long	0xc979
	.byte	0x1
	.string	"Alloc"
	.byte	0x1
	.value	0x4bf
	.string	"_ZN8wxString5AllocEj"
	.long	0xb5a
	.byte	0x1
	.uleb128 0x1d
	.long	0xd82f
	.byte	0x1
	.uleb128 0x18
	.long	0xa1
	.byte	0x0
	.uleb128 0x3b
	.long	0xc9ab
	.byte	0x1
	.string	"Shrink"
	.byte	0x1
	.value	0x4c2
	.string	"_ZN8wxString6ShrinkEv"
	.long	0xb5a
	.byte	0x1
	.uleb128 0x1d
	.long	0xd82f
	.byte	0x1
	.byte	0x0
	.uleb128 0x3b
	.long	0xc9ed
	.byte	0x1
	.string	"GetWriteBuf"
	.byte	0x1
	.value	0x4c6
	.string	"_ZN8wxString11GetWriteBufEj"
	.long	0x91d9
	.byte	0x1
	.uleb128 0x1d
	.long	0xd82f
	.byte	0x1
	.uleb128 0x18
	.long	0xa1
	.byte	0x0
	.uleb128 0x4d
	.long	0xca20
	.byte	0x1
	.long	.LASF116
	.byte	0x1
	.value	0x4c8
	.string	"_ZN8wxString13UngetWriteBufEv"
	.byte	0x1
	.uleb128 0x1d
	.long	0xd82f
	.byte	0x1
	.byte	0x0
	.uleb128 0x4d
	.long	0xca58
	.byte	0x1
	.long	.LASF116
	.byte	0x1
	.value	0x4c9
	.string	"_ZN8wxString13UngetWriteBufEj"
	.byte	0x1
	.uleb128 0x1d
	.long	0xd82f
	.byte	0x1
	.uleb128 0x18
	.long	0xa1
	.byte	0x0
	.uleb128 0x3b
	.long	0xca9c
	.byte	0x1
	.string	"SubString"
	.byte	0x1
	.value	0x4cf
	.string	"_ZNK8wxString9SubStringEjj"
	.long	0xb28c
	.byte	0x1
	.uleb128 0x1d
	.long	0xd84b
	.byte	0x1
	.uleb128 0x18
	.long	0xa1
	.uleb128 0x18
	.long	0xa1
	.byte	0x0
	.uleb128 0x3b
	.long	0xcad9
	.byte	0x1
	.string	"sprintf"
	.byte	0x1
	.value	0x4d8
	.string	"_ZN8wxString7sprintfEPKwz"
	.long	0x9a
	.byte	0x1
	.uleb128 0x1d
	.long	0xd82f
	.byte	0x1
	.uleb128 0x18
	.long	0xb224
	.uleb128 0x3d
	.byte	0x0
	.uleb128 0x3b
	.long	0xcb2f
	.byte	0x1
	.string	"CompareTo"
	.byte	0x1
	.value	0x4db
	.string	"_ZNK8wxString9CompareToEPKwNS_11caseCompareE"
	.long	0x9a
	.byte	0x1
	.uleb128 0x1d
	.long	0xd84b
	.byte	0x1
	.uleb128 0x18
	.long	0xb224
	.uleb128 0x18
	.long	0xb299
	.byte	0x0
	.uleb128 0x3b
	.long	0xcb62
	.byte	0x1
	.string	"Length"
	.byte	0x1
	.value	0x4df
	.string	"_ZNK8wxString6LengthEv"
	.long	0xa1
	.byte	0x1
	.uleb128 0x1d
	.long	0xd84b
	.byte	0x1
	.byte	0x0
	.uleb128 0x3b
	.long	0xcb96
	.byte	0x1
	.string	"Freq"
	.byte	0x1
	.value	0x4e1
	.string	"_ZNK8wxString4FreqEw"
	.long	0x9a
	.byte	0x1
	.uleb128 0x1d
	.long	0xd84b
	.byte	0x1
	.uleb128 0x18
	.long	0x5d2
	.byte	0x0
	.uleb128 0x4f
	.long	0xcbca
	.byte	0x1
	.string	"LowerCase"
	.byte	0x1
	.value	0x4e3
	.string	"_ZN8wxString9LowerCaseEv"
	.byte	0x1
	.uleb128 0x1d
	.long	0xd82f
	.byte	0x1
	.byte	0x0
	.uleb128 0x4f
	.long	0xcbfe
	.byte	0x1
	.string	"UpperCase"
	.byte	0x1
	.value	0x4e5
	.string	"_ZN8wxString9UpperCaseEv"
	.byte	0x1
	.uleb128 0x1d
	.long	0xd82f
	.byte	0x1
	.byte	0x0
	.uleb128 0x3b
	.long	0xcc41
	.byte	0x1
	.string	"Strip"
	.byte	0x1
	.value	0x4e7
	.string	"_ZNK8wxString5StripENS_9stripTypeE"
	.long	0xb28c
	.byte	0x1
	.uleb128 0x1d
	.long	0xd84b
	.byte	0x1
	.uleb128 0x18
	.long	0xb2c4
	.byte	0x0
	.uleb128 0x4c
	.long	0xcc77
	.byte	0x1
	.long	.LASF117
	.byte	0x1
	.value	0x4ea
	.string	"_ZNK8wxString5IndexEPKw"
	.long	0xa1
	.byte	0x1
	.uleb128 0x1d
	.long	0xd84b
	.byte	0x1
	.uleb128 0x18
	.long	0xb224
	.byte	0x0
	.uleb128 0x4c
	.long	0xccab
	.byte	0x1
	.long	.LASF117
	.byte	0x1
	.value	0x4eb
	.string	"_ZNK8wxString5IndexEw"
	.long	0xa1
	.byte	0x1
	.uleb128 0x1d
	.long	0xd84b
	.byte	0x1
	.uleb128 0x18
	.long	0x5d2
	.byte	0x0
	.uleb128 0x4c
	.long	0xccdf
	.byte	0x1
	.long	.LASF118
	.byte	0x1
	.value	0x4ed
	.string	"_ZN8wxString6RemoveEj"
	.long	0xb286
	.byte	0x1
	.uleb128 0x1d
	.long	0xd82f
	.byte	0x1
	.uleb128 0x18
	.long	0xa1
	.byte	0x0
	.uleb128 0x3b
	.long	0xcd1f
	.byte	0x1
	.string	"RemoveLast"
	.byte	0x1
	.value	0x4ee
	.string	"_ZN8wxString10RemoveLastEj"
	.long	0xb286
	.byte	0x1
	.uleb128 0x1d
	.long	0xd82f
	.byte	0x1
	.uleb128 0x18
	.long	0xa1
	.byte	0x0
	.uleb128 0x4c
	.long	0xcd59
	.byte	0x1
	.long	.LASF118
	.byte	0x1
	.value	0x4f0
	.string	"_ZN8wxString6RemoveEjj"
	.long	0xb286
	.byte	0x1
	.uleb128 0x1d
	.long	0xd82f
	.byte	0x1
	.uleb128 0x18
	.long	0xa1
	.uleb128 0x18
	.long	0xa1
	.byte	0x0
	.uleb128 0x3b
	.long	0xcd8f
	.byte	0x1
	.string	"First"
	.byte	0x1
	.value	0x4f4
	.string	"_ZNK8wxString5FirstEw"
	.long	0x9a
	.byte	0x1
	.uleb128 0x1d
	.long	0xd84b
	.byte	0x1
	.uleb128 0x18
	.long	0x5d2
	.byte	0x0
	.uleb128 0x3b
	.long	0xcdc7
	.byte	0x1
	.string	"First"
	.byte	0x1
	.value	0x4f5
	.string	"_ZNK8wxString5FirstEPKw"
	.long	0x9a
	.byte	0x1
	.uleb128 0x1d
	.long	0xd84b
	.byte	0x1
	.uleb128 0x18
	.long	0xb224
	.byte	0x0
	.uleb128 0x3b
	.long	0xce00
	.byte	0x1
	.string	"First"
	.byte	0x1
	.value	0x4f6
	.string	"_ZNK8wxString5FirstERKS_"
	.long	0x9a
	.byte	0x1
	.uleb128 0x1d
	.long	0xd84b
	.byte	0x1
	.uleb128 0x18
	.long	0xd835
	.byte	0x0
	.uleb128 0x3b
	.long	0xce34
	.byte	0x1
	.string	"Last"
	.byte	0x1
	.value	0x4f7
	.string	"_ZNK8wxString4LastEw"
	.long	0x9a
	.byte	0x1
	.uleb128 0x1d
	.long	0xd84b
	.byte	0x1
	.uleb128 0x18
	.long	0x5d2
	.byte	0x0
	.uleb128 0x3b
	.long	0xce73
	.byte	0x1
	.string	"Contains"
	.byte	0x1
	.value	0x4f8
	.string	"_ZNK8wxString8ContainsERKS_"
	.long	0xb5a
	.byte	0x1
	.uleb128 0x1d
	.long	0xd84b
	.byte	0x1
	.uleb128 0x18
	.long	0xd835
	.byte	0x0
	.uleb128 0x3b
	.long	0xcea6
	.byte	0x1
	.string	"IsNull"
	.byte	0x1
	.value	0x4fb
	.string	"_ZNK8wxString6IsNullEv"
	.long	0xb5a
	.byte	0x1
	.uleb128 0x1d
	.long	0xd84b
	.byte	0x1
	.byte	0x0
	.uleb128 0x4b
	.long	0xceca
	.byte	0x1
	.long	.LASF105
	.byte	0x1
	.value	0x500
	.byte	0x1
	.uleb128 0x1d
	.long	0xd82f
	.byte	0x1
	.uleb128 0x18
	.long	0xd835
	.uleb128 0x18
	.long	0xa1
	.uleb128 0x18
	.long	0xa1
	.byte	0x0
	.uleb128 0x4b
	.long	0xcee9
	.byte	0x1
	.long	.LASF105
	.byte	0x1
	.value	0x503
	.byte	0x1
	.uleb128 0x1d
	.long	0xd82f
	.byte	0x1
	.uleb128 0x18
	.long	0x8c4
	.uleb128 0x18
	.long	0x8c4
	.byte	0x0
	.uleb128 0x4c
	.long	0xcf2c
	.byte	0x1
	.long	.LASF53
	.byte	0x1
	.value	0x50c
	.string	"_ZN8wxString6appendERKS_jj"
	.long	0xb286
	.byte	0x1
	.uleb128 0x1d
	.long	0xd82f
	.byte	0x1
	.uleb128 0x18
	.long	0xd835
	.uleb128 0x18
	.long	0xa1
	.uleb128 0x18
	.long	0xa1
	.byte	0x0
	.uleb128 0x4c
	.long	0xcf63
	.byte	0x1
	.long	.LASF53
	.byte	0x1
	.value	0x50f
	.string	"_ZN8wxString6appendERKS_"
	.long	0xb286
	.byte	0x1
	.uleb128 0x1d
	.long	0xd82f
	.byte	0x1
	.uleb128 0x18
	.long	0xd835
	.byte	0x0
	.uleb128 0x4c
	.long	0xcf99
	.byte	0x1
	.long	.LASF53
	.byte	0x1
	.value	0x512
	.string	"_ZN8wxString6appendEPKw"
	.long	0xb286
	.byte	0x1
	.uleb128 0x1d
	.long	0xd82f
	.byte	0x1
	.uleb128 0x18
	.long	0xb224
	.byte	0x0
	.uleb128 0x4c
	.long	0xcfd5
	.byte	0x1
	.long	.LASF53
	.byte	0x1
	.value	0x514
	.string	"_ZN8wxString6appendEPKwj"
	.long	0xb286
	.byte	0x1
	.uleb128 0x1d
	.long	0xd82f
	.byte	0x1
	.uleb128 0x18
	.long	0xb224
	.uleb128 0x18
	.long	0xa1
	.byte	0x0
	.uleb128 0x4c
	.long	0xd00f
	.byte	0x1
	.long	.LASF53
	.byte	0x1
	.value	0x517
	.string	"_ZN8wxString6appendEjw"
	.long	0xb286
	.byte	0x1
	.uleb128 0x1d
	.long	0xd82f
	.byte	0x1
	.uleb128 0x18
	.long	0xa1
	.uleb128 0x18
	.long	0x5d2
	.byte	0x0
	.uleb128 0x4c
	.long	0xd04d
	.byte	0x1
	.long	.LASF53
	.byte	0x1
	.value	0x51a
	.string	"_ZN8wxString6appendEPKwS1_"
	.long	0xb286
	.byte	0x1
	.uleb128 0x1d
	.long	0xd82f
	.byte	0x1
	.uleb128 0x18
	.long	0xb224
	.uleb128 0x18
	.long	0xb224
	.byte	0x0
	.uleb128 0x4c
	.long	0xd084
	.byte	0x1
	.long	.LASF55
	.byte	0x1
	.value	0x51e
	.string	"_ZN8wxString6assignERKS_"
	.long	0xb286
	.byte	0x1
	.uleb128 0x1d
	.long	0xd82f
	.byte	0x1
	.uleb128 0x18
	.long	0xd835
	.byte	0x0
	.uleb128 0x4c
	.long	0xd0c7
	.byte	0x1
	.long	.LASF55
	.byte	0x1
	.value	0x521
	.string	"_ZN8wxString6assignERKS_jj"
	.long	0xb286
	.byte	0x1
	.uleb128 0x1d
	.long	0xd82f
	.byte	0x1
	.uleb128 0x18
	.long	0xd835
	.uleb128 0x18
	.long	0xa1
	.uleb128 0x18
	.long	0xa1
	.byte	0x0
	.uleb128 0x4c
	.long	0xd0fd
	.byte	0x1
	.long	.LASF55
	.byte	0x1
	.value	0x524
	.string	"_ZN8wxString6assignEPKw"
	.long	0xb286
	.byte	0x1
	.uleb128 0x1d
	.long	0xd82f
	.byte	0x1
	.uleb128 0x18
	.long	0xb224
	.byte	0x0
	.uleb128 0x4c
	.long	0xd139
	.byte	0x1
	.long	.LASF55
	.byte	0x1
	.value	0x526
	.string	"_ZN8wxString6assignEPKwj"
	.long	0xb286
	.byte	0x1
	.uleb128 0x1d
	.long	0xd82f
	.byte	0x1
	.uleb128 0x18
	.long	0xb224
	.uleb128 0x18
	.long	0xa1
	.byte	0x0
	.uleb128 0x4c
	.long	0xd173
	.byte	0x1
	.long	.LASF55
	.byte	0x1
	.value	0x529
	.string	"_ZN8wxString6assignEjw"
	.long	0xb286
	.byte	0x1
	.uleb128 0x1d
	.long	0xd82f
	.byte	0x1
	.uleb128 0x18
	.long	0xa1
	.uleb128 0x18
	.long	0x5d2
	.byte	0x0
	.uleb128 0x4c
	.long	0xd1b1
	.byte	0x1
	.long	.LASF55
	.byte	0x1
	.value	0x52c
	.string	"_ZN8wxString6assignEPKwS1_"
	.long	0xb286
	.byte	0x1
	.uleb128 0x1d
	.long	0xd82f
	.byte	0x1
	.uleb128 0x18
	.long	0xb224
	.uleb128 0x18
	.long	0xb224
	.byte	0x0
	.uleb128 0x4c
	.long	0xd1ee
	.byte	0x1
	.long	.LASF56
	.byte	0x1
	.value	0x53f
	.string	"_ZN8wxString6insertEjRKS_"
	.long	0xb286
	.byte	0x1
	.uleb128 0x1d
	.long	0xd82f
	.byte	0x1
	.uleb128 0x18
	.long	0xa1
	.uleb128 0x18
	.long	0xd835
	.byte	0x0
	.uleb128 0x4c
	.long	0xd237
	.byte	0x1
	.long	.LASF56
	.byte	0x1
	.value	0x542
	.string	"_ZN8wxString6insertEjRKS_jj"
	.long	0xb286
	.byte	0x1
	.uleb128 0x1d
	.long	0xd82f
	.byte	0x1
	.uleb128 0x18
	.long	0xa1
	.uleb128 0x18
	.long	0xd835
	.uleb128 0x18
	.long	0xa1
	.uleb128 0x18
	.long	0xa1
	.byte	0x0
	.uleb128 0x4c
	.long	0xd273
	.byte	0x1
	.long	.LASF56
	.byte	0x1
	.value	0x545
	.string	"_ZN8wxString6insertEjPKw"
	.long	0xb286
	.byte	0x1
	.uleb128 0x1d
	.long	0xd82f
	.byte	0x1
	.uleb128 0x18
	.long	0xa1
	.uleb128 0x18
	.long	0xb224
	.byte	0x0
	.uleb128 0x4c
	.long	0xd2b5
	.byte	0x1
	.long	.LASF56
	.byte	0x1
	.value	0x547
	.string	"_ZN8wxString6insertEjPKwj"
	.long	0xb286
	.byte	0x1
	.uleb128 0x1d
	.long	0xd82f
	.byte	0x1
	.uleb128 0x18
	.long	0xa1
	.uleb128 0x18
	.long	0xb224
	.uleb128 0x18
	.long	0xa1
	.byte	0x0
	.uleb128 0x4c
	.long	0xd2f5
	.byte	0x1
	.long	.LASF56
	.byte	0x1
	.value	0x54a
	.string	"_ZN8wxString6insertEjjw"
	.long	0xb286
	.byte	0x1
	.uleb128 0x1d
	.long	0xd82f
	.byte	0x1
	.uleb128 0x18
	.long	0xa1
	.uleb128 0x18
	.long	0xa1
	.uleb128 0x18
	.long	0x5d2
	.byte	0x0
	.uleb128 0x4c
	.long	0xd330
	.byte	0x1
	.long	.LASF56
	.byte	0x1
	.value	0x54c
	.string	"_ZN8wxString6insertEPww"
	.long	0x91d9
	.byte	0x1
	.uleb128 0x1d
	.long	0xd82f
	.byte	0x1
	.uleb128 0x18
	.long	0x91d9
	.uleb128 0x18
	.long	0x5d2
	.byte	0x0
	.uleb128 0x4d
	.long	0xd371
	.byte	0x1
	.long	.LASF56
	.byte	0x1
	.value	0x54e
	.string	"_ZN8wxString6insertEPwPKwS2_"
	.byte	0x1
	.uleb128 0x1d
	.long	0xd82f
	.byte	0x1
	.uleb128 0x18
	.long	0x91d9
	.uleb128 0x18
	.long	0xb224
	.uleb128 0x18
	.long	0xb224
	.byte	0x0
	.uleb128 0x4d
	.long	0xd3ae
	.byte	0x1
	.long	.LASF56
	.byte	0x1
	.value	0x550
	.string	"_ZN8wxString6insertEPwjw"
	.byte	0x1
	.uleb128 0x1d
	.long	0xd82f
	.byte	0x1
	.uleb128 0x18
	.long	0x91d9
	.uleb128 0x18
	.long	0xa1
	.uleb128 0x18
	.long	0x5d2
	.byte	0x0
	.uleb128 0x4c
	.long	0xd3e7
	.byte	0x1
	.long	.LASF57
	.byte	0x1
	.value	0x554
	.string	"_ZN8wxString5eraseEjj"
	.long	0xb286
	.byte	0x1
	.uleb128 0x1d
	.long	0xd82f
	.byte	0x1
	.uleb128 0x18
	.long	0xa1
	.uleb128 0x18
	.long	0xa1
	.byte	0x0
	.uleb128 0x4c
	.long	0xd423
	.byte	0x1
	.long	.LASF57
	.byte	0x1
	.value	0x556
	.string	"_ZN8wxString5eraseEPwS0_"
	.long	0x91d9
	.byte	0x1
	.uleb128 0x1d
	.long	0xd82f
	.byte	0x1
	.uleb128 0x18
	.long	0x91d9
	.uleb128 0x18
	.long	0x91d9
	.byte	0x0
	.uleb128 0x4c
	.long	0xd457
	.byte	0x1
	.long	.LASF57
	.byte	0x1
	.value	0x558
	.string	"_ZN8wxString5eraseEPw"
	.long	0x91d9
	.byte	0x1
	.uleb128 0x1d
	.long	0xd82f
	.byte	0x1
	.uleb128 0x18
	.long	0x91d9
	.byte	0x0
	.uleb128 0x4c
	.long	0xd49a
	.byte	0x1
	.long	.LASF58
	.byte	0x1
	.value	0x560
	.string	"_ZN8wxString7replaceEjjPKw"
	.long	0xb286
	.byte	0x1
	.uleb128 0x1d
	.long	0xd82f
	.byte	0x1
	.uleb128 0x18
	.long	0xa1
	.uleb128 0x18
	.long	0xa1
	.uleb128 0x18
	.long	0xb224
	.byte	0x0
	.uleb128 0x4c
	.long	0xd4de
	.byte	0x1
	.long	.LASF58
	.byte	0x1
	.value	0x563
	.string	"_ZN8wxString7replaceEjjRKS_"
	.long	0xb286
	.byte	0x1
	.uleb128 0x1d
	.long	0xd82f
	.byte	0x1
	.uleb128 0x18
	.long	0xa1
	.uleb128 0x18
	.long	0xa1
	.uleb128 0x18
	.long	0xd835
	.byte	0x0
	.uleb128 0x4c
	.long	0xd525
	.byte	0x1
	.long	.LASF58
	.byte	0x1
	.value	0x566
	.string	"_ZN8wxString7replaceEjjjw"
	.long	0xb286
	.byte	0x1
	.uleb128 0x1d
	.long	0xd82f
	.byte	0x1
	.uleb128 0x18
	.long	0xa1
	.uleb128 0x18
	.long	0xa1
	.uleb128 0x18
	.long	0xa1
	.uleb128 0x18
	.long	0x5d2
	.byte	0x0
	.uleb128 0x4c
	.long	0xd575
	.byte	0x1
	.long	.LASF58
	.byte	0x1
	.value	0x56a
	.string	"_ZN8wxString7replaceEjjRKS_jj"
	.long	0xb286
	.byte	0x1
	.uleb128 0x1d
	.long	0xd82f
	.byte	0x1
	.uleb128 0x18
	.long	0xa1
	.uleb128 0x18
	.long	0xa1
	.uleb128 0x18
	.long	0xd835
	.uleb128 0x18
	.long	0xa1
	.uleb128 0x18
	.long	0xa1
	.byte	0x0
	.uleb128 0x4c
	.long	0xd5be
	.byte	0x1
	.long	.LASF58
	.byte	0x1
	.value	0x56f
	.string	"_ZN8wxString7replaceEjjPKwj"
	.long	0xb286
	.byte	0x1
	.uleb128 0x1d
	.long	0xd82f
	.byte	0x1
	.uleb128 0x18
	.long	0xa1
	.uleb128 0x18
	.long	0xa1
	.uleb128 0x18
	.long	0xb224
	.uleb128 0x18
	.long	0xa1
	.byte	0x0
	.uleb128 0x4c
	.long	0xd604
	.byte	0x1
	.long	.LASF58
	.byte	0x1
	.value	0x571
	.string	"_ZN8wxString7replaceEPwS0_PKw"
	.long	0xb286
	.byte	0x1
	.uleb128 0x1d
	.long	0xd82f
	.byte	0x1
	.uleb128 0x18
	.long	0x91d9
	.uleb128 0x18
	.long	0x91d9
	.uleb128 0x18
	.long	0xb224
	.byte	0x0
	.uleb128 0x4c
	.long	0xd650
	.byte	0x1
	.long	.LASF58
	.byte	0x1
	.value	0x574
	.string	"_ZN8wxString7replaceEPwS0_PKwj"
	.long	0xb286
	.byte	0x1
	.uleb128 0x1d
	.long	0xd82f
	.byte	0x1
	.uleb128 0x18
	.long	0x91d9
	.uleb128 0x18
	.long	0x91d9
	.uleb128 0x18
	.long	0xb224
	.uleb128 0x18
	.long	0xa1
	.byte	0x0
	.uleb128 0x4c
	.long	0xd697
	.byte	0x1
	.long	.LASF58
	.byte	0x1
	.value	0x576
	.string	"_ZN8wxString7replaceEPwS0_RKS_"
	.long	0xb286
	.byte	0x1
	.uleb128 0x1d
	.long	0xd82f
	.byte	0x1
	.uleb128 0x18
	.long	0x91d9
	.uleb128 0x18
	.long	0x91d9
	.uleb128 0x18
	.long	0xd835
	.byte	0x0
	.uleb128 0x4c
	.long	0xd6e1
	.byte	0x1
	.long	.LASF58
	.byte	0x1
	.value	0x578
	.string	"_ZN8wxString7replaceEPwS0_jw"
	.long	0xb286
	.byte	0x1
	.uleb128 0x1d
	.long	0xd82f
	.byte	0x1
	.uleb128 0x18
	.long	0x91d9
	.uleb128 0x18
	.long	0x91d9
	.uleb128 0x18
	.long	0xa1
	.uleb128 0x18
	.long	0x5d2
	.byte	0x0
	.uleb128 0x4c
	.long	0xd72f
	.byte	0x1
	.long	.LASF58
	.byte	0x1
	.value	0x57b
	.string	"_ZN8wxString7replaceEPwS0_PKwS2_"
	.long	0xb286
	.byte	0x1
	.uleb128 0x1d
	.long	0xd82f
	.byte	0x1
	.uleb128 0x18
	.long	0x91d9
	.uleb128 0x18
	.long	0x91d9
	.uleb128 0x18
	.long	0xb224
	.uleb128 0x18
	.long	0xb224
	.byte	0x0
	.uleb128 0x4c
	.long	0xd761
	.byte	0x1
	.long	.LASF52
	.byte	0x1
	.value	0x57f
	.string	"_ZN8wxStringpLERKS_"
	.long	0xb286
	.byte	0x1
	.uleb128 0x1d
	.long	0xd82f
	.byte	0x1
	.uleb128 0x18
	.long	0xd835
	.byte	0x0
	.uleb128 0x4c
	.long	0xd792
	.byte	0x1
	.long	.LASF52
	.byte	0x1
	.value	0x582
	.string	"_ZN8wxStringpLEPKw"
	.long	0xb286
	.byte	0x1
	.uleb128 0x1d
	.long	0xd82f
	.byte	0x1
	.uleb128 0x18
	.long	0xb224
	.byte	0x0
	.uleb128 0x4c
	.long	0xd7c1
	.byte	0x1
	.long	.LASF52
	.byte	0x1
	.value	0x585
	.string	"_ZN8wxStringpLEw"
	.long	0xb286
	.byte	0x1
	.uleb128 0x1d
	.long	0xd82f
	.byte	0x1
	.uleb128 0x18
	.long	0x5d2
	.byte	0x0
	.uleb128 0x58
	.long	0xd7f1
	.byte	0x1
	.long	.LASF5
	.string	"_ZN8wxStringaSERKS_"
	.long	0xb286
	.byte	0x1
	.byte	0x1
	.uleb128 0x1d
	.long	0xd82f
	.byte	0x1
	.uleb128 0x18
	.long	0xd835
	.byte	0x0
	.uleb128 0x59
	.byte	0x1
	.string	"~wxString"
	.byte	0x1
	.byte	0x1
	.uleb128 0x1d
	.long	0xd82f
	.byte	0x1
	.uleb128 0x1d
	.long	0x9a
	.byte	0x1
	.byte	0x0
	.byte	0x0
	.uleb128 0x23
	.byte	0x4
	.long	0xb27b
	.uleb128 0x23
	.byte	0x4
	.long	0xd819
	.uleb128 0x10
	.long	0xd81e
	.uleb128 0x16
	.string	"wxMBConv"
	.byte	0x1
	.uleb128 0x23
	.byte	0x4
	.long	0x91f0
	.uleb128 0x6
	.byte	0x4
	.long	0xb28c
	.uleb128 0x23
	.byte	0x4
	.long	0xd83b
	.uleb128 0x10
	.long	0xb28c
	.uleb128 0x23
	.byte	0x4
	.long	0xd846
	.uleb128 0x10
	.long	0x8ff6
	.uleb128 0x6
	.byte	0x4
	.long	0xd83b
	.uleb128 0x6
	.byte	0x4
	.long	0x15c
	.uleb128 0x6
	.byte	0x4
	.long	0xdd
	.uleb128 0x6
	.byte	0x4
	.long	0x112
	.uleb128 0x6
	.byte	0x4
	.long	0x123
	.uleb128 0x6
	.byte	0x4
	.long	0x765
	.uleb128 0x3
	.string	"wxObjectConstructorFn"
	.byte	0x10
	.byte	0x2c
	.long	0xd88c
	.uleb128 0x6
	.byte	0x4
	.long	0xd8d0
	.uleb128 0x2c
	.long	0xd8d0
	.string	"wxObject"
	.byte	0x1
	.uleb128 0x50
	.byte	0x1
	.long	.LASF5
	.byte	0x10
	.value	0x1a6
	.string	"_ZN8wxObjectaSERKS_"
	.long	0x1d50b
	.byte	0x1
	.uleb128 0x1d
	.long	0xd8d5
	.byte	0x1
	.uleb128 0x18
	.long	0x1d511
	.byte	0x0
	.byte	0x0
	.uleb128 0x5a
	.long	0xd8d5
	.uleb128 0x6
	.byte	0x4
	.long	0xd892
	.uleb128 0x1a
	.long	0xde50
	.long	.LASF119
	.byte	0x18
	.byte	0x10
	.byte	0x2f
	.uleb128 0xc
	.string	"m_className"
	.byte	0x10
	.byte	0x69
	.long	0xb224
	.byte	0x2
	.byte	0x23
	.uleb128 0x0
	.uleb128 0xc
	.string	"m_objectSize"
	.byte	0x10
	.byte	0x6a
	.long	0x9a
	.byte	0x2
	.byte	0x23
	.uleb128 0x4
	.uleb128 0xc
	.string	"m_objectConstructor"
	.byte	0x10
	.byte	0x6b
	.long	0xd86f
	.byte	0x2
	.byte	0x23
	.uleb128 0x8
	.uleb128 0xc
	.string	"m_baseInfo1"
	.byte	0x10
	.byte	0x6f
	.long	0xde50
	.byte	0x2
	.byte	0x23
	.uleb128 0xc
	.uleb128 0xc
	.string	"m_baseInfo2"
	.byte	0x10
	.byte	0x70
	.long	0xde50
	.byte	0x2
	.byte	0x23
	.uleb128 0x10
	.uleb128 0x52
	.long	.LASF120
	.byte	0x10
	.byte	0x75
	.long	.LASF121
	.long	0xde5b
	.byte	0x1
	.byte	0x1
	.uleb128 0xc
	.string	"m_next"
	.byte	0x10
	.byte	0x76
	.long	0xde5b
	.byte	0x2
	.byte	0x23
	.uleb128 0x14
	.uleb128 0x5b
	.string	"sm_classTable"
	.byte	0x10
	.byte	0x7a
	.string	"_ZN11wxClassInfo13sm_classTableE"
	.long	0xde6f
	.byte	0x1
	.byte	0x1
	.uleb128 0x1c
	.long	0xd9e5
	.byte	0x1
	.long	.LASF119
	.byte	0x10
	.byte	0x35
	.byte	0x1
	.uleb128 0x1d
	.long	0xde5b
	.byte	0x1
	.uleb128 0x18
	.long	0xb224
	.uleb128 0x18
	.long	0xde50
	.uleb128 0x18
	.long	0xde50
	.uleb128 0x18
	.long	0x9a
	.uleb128 0x18
	.long	0xd86f
	.byte	0x0
	.uleb128 0x1e
	.long	0xda08
	.byte	0x1
	.string	"~wxClassInfo"
	.byte	0x10
	.byte	0x41
	.byte	0x1
	.uleb128 0x1d
	.long	0xde5b
	.byte	0x1
	.uleb128 0x1d
	.long	0x9a
	.byte	0x1
	.byte	0x0
	.uleb128 0x1f
	.long	0xda4b
	.byte	0x1
	.string	"CreateObject"
	.byte	0x10
	.byte	0x43
	.string	"_ZNK11wxClassInfo12CreateObjectEv"
	.long	0xd8d5
	.byte	0x1
	.uleb128 0x1d
	.long	0xde50
	.byte	0x1
	.byte	0x0
	.uleb128 0x1f
	.long	0xda87
	.byte	0x1
	.string	"IsDynamic"
	.byte	0x10
	.byte	0x45
	.string	"_ZNK11wxClassInfo9IsDynamicEv"
	.long	0xb5a
	.byte	0x1
	.uleb128 0x1d
	.long	0xde50
	.byte	0x1
	.byte	0x0
	.uleb128 0x1f
	.long	0xdaca
	.byte	0x1
	.string	"GetClassName"
	.byte	0x10
	.byte	0x47
	.string	"_ZNK11wxClassInfo12GetClassNameEv"
	.long	0xb224
	.byte	0x1
	.uleb128 0x1d
	.long	0xde50
	.byte	0x1
	.byte	0x0
	.uleb128 0x1f
	.long	0xdb17
	.byte	0x1
	.string	"GetBaseClassName1"
	.byte	0x10
	.byte	0x48
	.string	"_ZNK11wxClassInfo17GetBaseClassName1Ev"
	.long	0xb224
	.byte	0x1
	.uleb128 0x1d
	.long	0xde50
	.byte	0x1
	.byte	0x0
	.uleb128 0x1f
	.long	0xdb64
	.byte	0x1
	.string	"GetBaseClassName2"
	.byte	0x10
	.byte	0x4a
	.string	"_ZNK11wxClassInfo17GetBaseClassName2Ev"
	.long	0xb224
	.byte	0x1
	.uleb128 0x1d
	.long	0xde50
	.byte	0x1
	.byte	0x0
	.uleb128 0x1f
	.long	0xdba9
	.byte	0x1
	.string	"GetBaseClass1"
	.byte	0x10
	.byte	0x4c
	.string	"_ZNK11wxClassInfo13GetBaseClass1Ev"
	.long	0xde50
	.byte	0x1
	.uleb128 0x1d
	.long	0xde50
	.byte	0x1
	.byte	0x0
	.uleb128 0x1f
	.long	0xdbee
	.byte	0x1
	.string	"GetBaseClass2"
	.byte	0x10
	.byte	0x4d
	.string	"_ZNK11wxClassInfo13GetBaseClass2Ev"
	.long	0xde50
	.byte	0x1
	.uleb128 0x1d
	.long	0xde50
	.byte	0x1
	.byte	0x0
	.uleb128 0x1f
	.long	0xdc26
	.byte	0x1
	.string	"GetSize"
	.byte	0x10
	.byte	0x4e
	.string	"_ZNK11wxClassInfo7GetSizeEv"
	.long	0x9a
	.byte	0x1
	.uleb128 0x1d
	.long	0xde50
	.byte	0x1
	.byte	0x0
	.uleb128 0x1f
	.long	0xdc6d
	.byte	0x1
	.string	"GetConstructor"
	.byte	0x10
	.byte	0x50
	.string	"_ZNK11wxClassInfo14GetConstructorEv"
	.long	0xd86f
	.byte	0x1
	.uleb128 0x1d
	.long	0xde50
	.byte	0x1
	.byte	0x0
	.uleb128 0x54
	.byte	0x1
	.long	.LASF122
	.byte	0x10
	.byte	0x52
	.string	"_ZN11wxClassInfo8GetFirstEv"
	.long	0xde50
	.byte	0x1
	.uleb128 0x1f
	.long	0xdcce
	.byte	0x1
	.string	"GetNext"
	.byte	0x10
	.byte	0x53
	.string	"_ZNK11wxClassInfo7GetNextEv"
	.long	0xde50
	.byte	0x1
	.uleb128 0x1d
	.long	0xde50
	.byte	0x1
	.byte	0x0
	.uleb128 0x1f
	.long	0xdd0a
	.byte	0x1
	.string	"FindClass"
	.byte	0x10
	.byte	0x54
	.string	"_ZN11wxClassInfo9FindClassEPKw"
	.long	0xde5b
	.byte	0x1
	.uleb128 0x18
	.long	0xb224
	.byte	0x0
	.uleb128 0x1f
	.long	0xdd4c
	.byte	0x1
	.string	"IsKindOf"
	.byte	0x10
	.byte	0x59
	.string	"_ZNK11wxClassInfo8IsKindOfEPKS_"
	.long	0xb5a
	.byte	0x1
	.uleb128 0x1d
	.long	0xde50
	.byte	0x1
	.uleb128 0x18
	.long	0xde50
	.byte	0x0
	.uleb128 0x5c
	.long	0xdd92
	.byte	0x1
	.string	"GetBaseByName"
	.byte	0x10
	.byte	0x7e
	.string	"_ZN11wxClassInfo13GetBaseByNameEPKw"
	.long	0xde5b
	.byte	0x3
	.byte	0x1
	.uleb128 0x18
	.long	0xb224
	.byte	0x0
	.uleb128 0x5d
	.long	0xddac
	.byte	0x1
	.long	.LASF119
	.byte	0x10
	.byte	0x80
	.byte	0x3
	.byte	0x1
	.uleb128 0x1d
	.long	0xde5b
	.byte	0x1
	.uleb128 0x18
	.long	0xde75
	.byte	0x0
	.uleb128 0x4e
	.long	0xdde2
	.byte	0x1
	.long	.LASF5
	.byte	0x10
	.byte	0x80
	.string	"_ZN11wxClassInfoaSERKS_"
	.long	0xde7b
	.byte	0x3
	.byte	0x1
	.uleb128 0x1d
	.long	0xde5b
	.byte	0x1
	.uleb128 0x18
	.long	0xde75
	.byte	0x0
	.uleb128 0x5e
	.long	0xde18
	.byte	0x1
	.string	"Register"
	.byte	0x10
	.byte	0x84
	.string	"_ZN11wxClassInfo8RegisterEv"
	.byte	0x2
	.byte	0x1
	.uleb128 0x1d
	.long	0xde5b
	.byte	0x1
	.byte	0x0
	.uleb128 0x5f
	.byte	0x1
	.string	"Unregister"
	.byte	0x10
	.byte	0x85
	.string	"_ZN11wxClassInfo10UnregisterEv"
	.byte	0x2
	.byte	0x1
	.uleb128 0x1d
	.long	0xde5b
	.byte	0x1
	.byte	0x0
	.byte	0x0
	.uleb128 0x6
	.byte	0x4
	.long	0xde56
	.uleb128 0x10
	.long	0xd8db
	.uleb128 0x6
	.byte	0x4
	.long	0xd8db
	.uleb128 0x16
	.string	"wxHashTable"
	.byte	0x1
	.uleb128 0x6
	.byte	0x4
	.long	0xde61
	.uleb128 0x23
	.byte	0x4
	.long	0xde56
	.uleb128 0x23
	.byte	0x4
	.long	0xd8db
	.uleb128 0xd
	.long	0xde91
	.long	0xdd
	.uleb128 0xe
	.long	0x179
	.byte	0x1e
	.byte	0x0
	.uleb128 0x10
	.long	0x15c
	.uleb128 0x6
	.byte	0x4
	.long	0x9a
	.uleb128 0x3
	.string	"wxSortCompareFunction"
	.byte	0x2
	.byte	0x36
	.long	0x8aa
	.uleb128 0x60
	.long	0xdeee
	.long	.LASF123
	.byte	0x1
	.uleb128 0x2e
	.byte	0x1
	.long	.LASF123
	.byte	0x2
	.value	0x4a1
	.byte	0x1
	.uleb128 0x1d
	.long	0xf955
	.byte	0x1
	.uleb128 0x18
	.long	0x1de42
	.uleb128 0x18
	.long	0xf955
	.uleb128 0x18
	.long	0xf955
	.uleb128 0x18
	.long	0xd8d5
	.uleb128 0x18
	.long	0x1b2ce
	.byte	0x0
	.byte	0x0
	.uleb128 0x26
	.long	0xdf2d
	.string	"wxKeyType"
	.byte	0x4
	.byte	0x2
	.byte	0x46
	.uleb128 0x15
	.string	"wxKEY_NONE"
	.sleb128 0
	.uleb128 0x15
	.string	"wxKEY_INTEGER"
	.sleb128 1
	.uleb128 0x15
	.string	"wxKEY_STRING"
	.sleb128 2
	.byte	0x0
	.uleb128 0x61
	.long	0xdf65
	.string	"wxListKeyValue"
	.byte	0x4
	.byte	0x2
	.value	0x182
	.uleb128 0x62
	.string	"integer"
	.byte	0x2
	.value	0x183
	.long	0x15c
	.uleb128 0x62
	.string	"string"
	.byte	0x2
	.value	0x184
	.long	0x91d9
	.byte	0x0
	.uleb128 0x55
	.long	0xe10d
	.long	.LASF124
	.byte	0x8
	.byte	0x2
	.value	0x18e
	.uleb128 0x56
	.string	"m_keyType"
	.byte	0x2
	.value	0x1ae
	.long	0xdeee
	.byte	0x2
	.byte	0x23
	.uleb128 0x0
	.byte	0x3
	.uleb128 0x56
	.string	"m_key"
	.byte	0x2
	.value	0x1af
	.long	0xdf2d
	.byte	0x2
	.byte	0x23
	.uleb128 0x4
	.byte	0x3
	.uleb128 0x4b
	.long	0xdfaf
	.byte	0x1
	.long	.LASF124
	.byte	0x2
	.value	0x191
	.byte	0x1
	.uleb128 0x1d
	.long	0xe10d
	.byte	0x1
	.byte	0x0
	.uleb128 0x4b
	.long	0xdfc9
	.byte	0x1
	.long	.LASF124
	.byte	0x2
	.value	0x193
	.byte	0x1
	.uleb128 0x1d
	.long	0xe10d
	.byte	0x1
	.uleb128 0x18
	.long	0x15c
	.byte	0x0
	.uleb128 0x4b
	.long	0xdfe3
	.byte	0x1
	.long	.LASF124
	.byte	0x2
	.value	0x195
	.byte	0x1
	.uleb128 0x1d
	.long	0xe10d
	.byte	0x1
	.uleb128 0x18
	.long	0xb224
	.byte	0x0
	.uleb128 0x4b
	.long	0xdffd
	.byte	0x1
	.long	.LASF124
	.byte	0x2
	.value	0x197
	.byte	0x1
	.uleb128 0x1d
	.long	0xe10d
	.byte	0x1
	.uleb128 0x18
	.long	0xd835
	.byte	0x0
	.uleb128 0x3b
	.long	0xe03a
	.byte	0x1
	.string	"GetKeyType"
	.byte	0x2
	.value	0x19b
	.string	"_ZNK9wxListKey10GetKeyTypeEv"
	.long	0xdeee
	.byte	0x1
	.uleb128 0x1d
	.long	0xe113
	.byte	0x1
	.byte	0x0
	.uleb128 0x3b
	.long	0xe074
	.byte	0x1
	.string	"GetString"
	.byte	0x2
	.value	0x19c
	.string	"_ZNK9wxListKey9GetStringEv"
	.long	0xb224
	.byte	0x1
	.uleb128 0x1d
	.long	0xe113
	.byte	0x1
	.byte	0x0
	.uleb128 0x3b
	.long	0xe0ae
	.byte	0x1
	.string	"GetNumber"
	.byte	0x2
	.value	0x19e
	.string	"_ZNK9wxListKey9GetNumberEv"
	.long	0x15c
	.byte	0x1
	.uleb128 0x1d
	.long	0xe113
	.byte	0x1
	.byte	0x0
	.uleb128 0x4c
	.long	0xe0ee
	.byte	0x1
	.long	.LASF100
	.byte	0x2
	.value	0x1a4
	.string	"_ZNK9wxListKeyeqE14wxListKeyValue"
	.long	0xb5a
	.byte	0x1
	.uleb128 0x1d
	.long	0xe113
	.byte	0x1
	.uleb128 0x18
	.long	0xdf2d
	.byte	0x0
	.uleb128 0x34
	.byte	0x1
	.string	"~wxListKey"
	.byte	0x2
	.value	0x1a7
	.byte	0x1
	.uleb128 0x1d
	.long	0xe10d
	.byte	0x1
	.uleb128 0x1d
	.long	0x9a
	.byte	0x1
	.byte	0x0
	.byte	0x0
	.uleb128 0x6
	.byte	0x4
	.long	0xdf65
	.uleb128 0x6
	.byte	0x4
	.long	0xe119
	.uleb128 0x10
	.long	0xdf65
	.uleb128 0x13
	.string	"wxSortFuncFor_wxObjectList"
	.byte	0x2
	.value	0x4a1
	.long	0xe141
	.uleb128 0x6
	.byte	0x4
	.long	0xe147
	.uleb128 0x17
	.long	0xe15b
	.long	0x9a
	.uleb128 0x18
	.long	0xe15b
	.uleb128 0x18
	.long	0xe15b
	.byte	0x0
	.uleb128 0x6
	.byte	0x4
	.long	0xe161
	.uleb128 0x6
	.byte	0x4
	.long	0xe167
	.uleb128 0x10
	.long	0xd892
	.uleb128 0x63
	.long	0xf955
	.long	.LASF125
	.byte	0x1c
	.byte	0x2
	.value	0x4a1
	.long	0xd892
	.uleb128 0x55
	.long	0xe380
	.long	.LASF126
	.byte	0x8
	.byte	0x2
	.value	0x4a1
	.uleb128 0x64
	.long	.LASF127
	.byte	0x2
	.value	0x4a1
	.long	0xf955
	.byte	0x2
	.byte	0x23
	.uleb128 0x0
	.uleb128 0x64
	.long	.LASF128
	.byte	0x2
	.value	0x4a1
	.long	0xf955
	.byte	0x2
	.byte	0x23
	.uleb128 0x4
	.uleb128 0x4b
	.long	0xe1c7
	.byte	0x1
	.long	.LASF126
	.byte	0x2
	.value	0x4a1
	.byte	0x1
	.uleb128 0x1d
	.long	0xf967
	.byte	0x1
	.uleb128 0x18
	.long	0xf955
	.uleb128 0x18
	.long	0xf955
	.byte	0x0
	.uleb128 0x4b
	.long	0xe1dc
	.byte	0x1
	.long	.LASF126
	.byte	0x2
	.value	0x4a1
	.byte	0x1
	.uleb128 0x1d
	.long	0xf967
	.byte	0x1
	.byte	0x0
	.uleb128 0x4c
	.long	0xe215
	.byte	0x1
	.long	.LASF97
	.byte	0x2
	.value	0x4a1
	.string	"_ZNK12wxObjectList8iteratordeEv"
	.long	0xf961
	.byte	0x1
	.uleb128 0x1d
	.long	0xf96d
	.byte	0x1
	.byte	0x0
	.uleb128 0x4c
	.long	0xe24d
	.byte	0x1
	.long	.LASF98
	.byte	0x2
	.value	0x4a1
	.string	"_ZN12wxObjectList8iteratorppEv"
	.long	0xf978
	.byte	0x1
	.uleb128 0x1d
	.long	0xf967
	.byte	0x1
	.byte	0x0
	.uleb128 0x4c
	.long	0xe28a
	.byte	0x1
	.long	.LASF98
	.byte	0x2
	.value	0x4a1
	.string	"_ZN12wxObjectList8iteratorppEi"
	.long	0xf973
	.byte	0x1
	.uleb128 0x1d
	.long	0xf967
	.byte	0x1
	.uleb128 0x18
	.long	0x9a
	.byte	0x0
	.uleb128 0x4c
	.long	0xe2c2
	.byte	0x1
	.long	.LASF99
	.byte	0x2
	.value	0x4a1
	.string	"_ZN12wxObjectList8iteratormmEv"
	.long	0xf978
	.byte	0x1
	.uleb128 0x1d
	.long	0xf967
	.byte	0x1
	.byte	0x0
	.uleb128 0x4c
	.long	0xe2ff
	.byte	0x1
	.long	.LASF99
	.byte	0x2
	.value	0x4a1
	.string	"_ZN12wxObjectList8iteratormmEi"
	.long	0xf973
	.byte	0x1
	.uleb128 0x1d
	.long	0xf967
	.byte	0x1
	.uleb128 0x18
	.long	0x9a
	.byte	0x0
	.uleb128 0x4c
	.long	0xe341
	.byte	0x1
	.long	.LASF101
	.byte	0x2
	.value	0x4a1
	.string	"_ZNK12wxObjectList8iteratorneERKS0_"
	.long	0xb5a
	.byte	0x1
	.uleb128 0x1d
	.long	0xf96d
	.byte	0x1
	.uleb128 0x18
	.long	0xf97e
	.byte	0x0
	.uleb128 0x50
	.byte	0x1
	.long	.LASF100
	.byte	0x2
	.value	0x4a1
	.string	"_ZNK12wxObjectList8iteratoreqERKS0_"
	.long	0xb5a
	.byte	0x1
	.uleb128 0x1d
	.long	0xf96d
	.byte	0x1
	.uleb128 0x18
	.long	0xf97e
	.byte	0x0
	.byte	0x0
	.uleb128 0x55
	.long	0xe5ce
	.long	.LASF129
	.byte	0x8
	.byte	0x2
	.value	0x4a1
	.uleb128 0x64
	.long	.LASF127
	.byte	0x2
	.value	0x4a1
	.long	0xf955
	.byte	0x2
	.byte	0x23
	.uleb128 0x0
	.uleb128 0x64
	.long	.LASF128
	.byte	0x2
	.value	0x4a1
	.long	0xf955
	.byte	0x2
	.byte	0x23
	.uleb128 0x4
	.uleb128 0x4b
	.long	0xe3ca
	.byte	0x1
	.long	.LASF129
	.byte	0x2
	.value	0x4a1
	.byte	0x1
	.uleb128 0x1d
	.long	0xf98f
	.byte	0x1
	.uleb128 0x18
	.long	0xf955
	.uleb128 0x18
	.long	0xf955
	.byte	0x0
	.uleb128 0x4b
	.long	0xe3df
	.byte	0x1
	.long	.LASF129
	.byte	0x2
	.value	0x4a1
	.byte	0x1
	.uleb128 0x1d
	.long	0xf98f
	.byte	0x1
	.byte	0x0
	.uleb128 0x4b
	.long	0xe3f9
	.byte	0x1
	.long	.LASF129
	.byte	0x2
	.value	0x4a1
	.byte	0x1
	.uleb128 0x1d
	.long	0xf98f
	.byte	0x1
	.uleb128 0x18
	.long	0xf97e
	.byte	0x0
	.uleb128 0x4c
	.long	0xe439
	.byte	0x1
	.long	.LASF97
	.byte	0x2
	.value	0x4a1
	.string	"_ZNK12wxObjectList14const_iteratordeEv"
	.long	0xf984
	.byte	0x1
	.uleb128 0x1d
	.long	0xf995
	.byte	0x1
	.byte	0x0
	.uleb128 0x4c
	.long	0xe478
	.byte	0x1
	.long	.LASF98
	.byte	0x2
	.value	0x4a1
	.string	"_ZN12wxObjectList14const_iteratorppEv"
	.long	0xf9a0
	.byte	0x1
	.uleb128 0x1d
	.long	0xf98f
	.byte	0x1
	.byte	0x0
	.uleb128 0x4c
	.long	0xe4bc
	.byte	0x1
	.long	.LASF98
	.byte	0x2
	.value	0x4a1
	.string	"_ZN12wxObjectList14const_iteratorppEi"
	.long	0xf99b
	.byte	0x1
	.uleb128 0x1d
	.long	0xf98f
	.byte	0x1
	.uleb128 0x18
	.long	0x9a
	.byte	0x0
	.uleb128 0x4c
	.long	0xe4fb
	.byte	0x1
	.long	.LASF99
	.byte	0x2
	.value	0x4a1
	.string	"_ZN12wxObjectList14const_iteratormmEv"
	.long	0xf9a0
	.byte	0x1
	.uleb128 0x1d
	.long	0xf98f
	.byte	0x1
	.byte	0x0
	.uleb128 0x4c
	.long	0xe53f
	.byte	0x1
	.long	.LASF99
	.byte	0x2
	.value	0x4a1
	.string	"_ZN12wxObjectList14const_iteratormmEi"
	.long	0xf99b
	.byte	0x1
	.uleb128 0x1d
	.long	0xf98f
	.byte	0x1
	.uleb128 0x18
	.long	0x9a
	.byte	0x0
	.uleb128 0x4c
	.long	0xe588
	.byte	0x1
	.long	.LASF101
	.byte	0x2
	.value	0x4a1
	.string	"_ZNK12wxObjectList14const_iteratorneERKS0_"
	.long	0xb5a
	.byte	0x1
	.uleb128 0x1d
	.long	0xf995
	.byte	0x1
	.uleb128 0x18
	.long	0xf9a6
	.byte	0x0
	.uleb128 0x50
	.byte	0x1
	.long	.LASF100
	.byte	0x2
	.value	0x4a1
	.string	"_ZNK12wxObjectList14const_iteratoreqERKS0_"
	.long	0xb5a
	.byte	0x1
	.uleb128 0x1d
	.long	0xf995
	.byte	0x1
	.uleb128 0x18
	.long	0xf9a6
	.byte	0x0
	.byte	0x0
	.uleb128 0x55
	.long	0xe810
	.long	.LASF102
	.byte	0x8
	.byte	0x2
	.value	0x4a1
	.uleb128 0x64
	.long	.LASF127
	.byte	0x2
	.value	0x4a1
	.long	0xf955
	.byte	0x2
	.byte	0x23
	.uleb128 0x0
	.uleb128 0x64
	.long	.LASF128
	.byte	0x2
	.value	0x4a1
	.long	0xf955
	.byte	0x2
	.byte	0x23
	.uleb128 0x4
	.uleb128 0x4b
	.long	0xe618
	.byte	0x1
	.long	.LASF102
	.byte	0x2
	.value	0x4a1
	.byte	0x1
	.uleb128 0x1d
	.long	0xf9ac
	.byte	0x1
	.uleb128 0x18
	.long	0xf955
	.uleb128 0x18
	.long	0xf955
	.byte	0x0
	.uleb128 0x4b
	.long	0xe62d
	.byte	0x1
	.long	.LASF102
	.byte	0x2
	.value	0x4a1
	.byte	0x1
	.uleb128 0x1d
	.long	0xf9ac
	.byte	0x1
	.byte	0x0
	.uleb128 0x4c
	.long	0xe66f
	.byte	0x1
	.long	.LASF97
	.byte	0x2
	.value	0x4a1
	.string	"_ZNK12wxObjectList16reverse_iteratordeEv"
	.long	0xf961
	.byte	0x1
	.uleb128 0x1d
	.long	0xf9b2
	.byte	0x1
	.byte	0x0
	.uleb128 0x4c
	.long	0xe6b0
	.byte	0x1
	.long	.LASF98
	.byte	0x2
	.value	0x4a1
	.string	"_ZN12wxObjectList16reverse_iteratorppEv"
	.long	0xf9bd
	.byte	0x1
	.uleb128 0x1d
	.long	0xf9ac
	.byte	0x1
	.byte	0x0
	.uleb128 0x4c
	.long	0xe6f6
	.byte	0x1
	.long	.LASF98
	.byte	0x2
	.value	0x4a1
	.string	"_ZN12wxObjectList16reverse_iteratorppEi"
	.long	0xf9b8
	.byte	0x1
	.uleb128 0x1d
	.long	0xf9ac
	.byte	0x1
	.uleb128 0x18
	.long	0x9a
	.byte	0x0
	.uleb128 0x4c
	.long	0xe737
	.byte	0x1
	.long	.LASF99
	.byte	0x2
	.value	0x4a1
	.string	"_ZN12wxObjectList16reverse_iteratormmEv"
	.long	0xf9bd
	.byte	0x1
	.uleb128 0x1d
	.long	0xf9ac
	.byte	0x1
	.byte	0x0
	.uleb128 0x4c
	.long	0xe77d
	.byte	0x1
	.long	.LASF99
	.byte	0x2
	.value	0x4a1
	.string	"_ZN12wxObjectList16reverse_iteratormmEi"
	.long	0xf9b8
	.byte	0x1
	.uleb128 0x1d
	.long	0xf9ac
	.byte	0x1
	.uleb128 0x18
	.long	0x9a
	.byte	0x0
	.uleb128 0x4c
	.long	0xe7c8
	.byte	0x1
	.long	.LASF101
	.byte	0x2
	.value	0x4a1
	.string	"_ZNK12wxObjectList16reverse_iteratorneERKS0_"
	.long	0xb5a
	.byte	0x1
	.uleb128 0x1d
	.long	0xf9b2
	.byte	0x1
	.uleb128 0x18
	.long	0xf9c3
	.byte	0x0
	.uleb128 0x50
	.byte	0x1
	.long	.LASF100
	.byte	0x2
	.value	0x4a1
	.string	"_ZNK12wxObjectList16reverse_iteratoreqERKS0_"
	.long	0xb5a
	.byte	0x1
	.uleb128 0x1d
	.long	0xf9b2
	.byte	0x1
	.uleb128 0x18
	.long	0xf9c3
	.byte	0x0
	.byte	0x0
	.uleb128 0x55
	.long	0xea96
	.long	.LASF96
	.byte	0x8
	.byte	0x2
	.value	0x4a1
	.uleb128 0x64
	.long	.LASF127
	.byte	0x2
	.value	0x4a1
	.long	0xf955
	.byte	0x2
	.byte	0x23
	.uleb128 0x0
	.uleb128 0x64
	.long	.LASF128
	.byte	0x2
	.value	0x4a1
	.long	0xf955
	.byte	0x2
	.byte	0x23
	.uleb128 0x4
	.uleb128 0x4b
	.long	0xe85a
	.byte	0x1
	.long	.LASF96
	.byte	0x2
	.value	0x4a1
	.byte	0x1
	.uleb128 0x1d
	.long	0xf9c9
	.byte	0x1
	.uleb128 0x18
	.long	0xf955
	.uleb128 0x18
	.long	0xf955
	.byte	0x0
	.uleb128 0x4b
	.long	0xe86f
	.byte	0x1
	.long	.LASF96
	.byte	0x2
	.value	0x4a1
	.byte	0x1
	.uleb128 0x1d
	.long	0xf9c9
	.byte	0x1
	.byte	0x0
	.uleb128 0x4b
	.long	0xe889
	.byte	0x1
	.long	.LASF96
	.byte	0x2
	.value	0x4a1
	.byte	0x1
	.uleb128 0x1d
	.long	0xf9c9
	.byte	0x1
	.uleb128 0x18
	.long	0xf9c3
	.byte	0x0
	.uleb128 0x4c
	.long	0xe8d1
	.byte	0x1
	.long	.LASF97
	.byte	0x2
	.value	0x4a1
	.string	"_ZNK12wxObjectList22const_reverse_iteratordeEv"
	.long	0xf984
	.byte	0x1
	.uleb128 0x1d
	.long	0xf9cf
	.byte	0x1
	.byte	0x0
	.uleb128 0x4c
	.long	0xe918
	.byte	0x1
	.long	.LASF98
	.byte	0x2
	.value	0x4a1
	.string	"_ZN12wxObjectList22const_reverse_iteratorppEv"
	.long	0xf9da
	.byte	0x1
	.uleb128 0x1d
	.long	0xf9c9
	.byte	0x1
	.byte	0x0
	.uleb128 0x4c
	.long	0xe964
	.byte	0x1
	.long	.LASF98
	.byte	0x2
	.value	0x4a1
	.string	"_ZN12wxObjectList22const_reverse_iteratorppEi"
	.long	0xf9d5
	.byte	0x1
	.uleb128 0x1d
	.long	0xf9c9
	.byte	0x1
	.uleb128 0x18
	.long	0x9a
	.byte	0x0
	.uleb128 0x4c
	.long	0xe9ab
	.byte	0x1
	.long	.LASF99
	.byte	0x2
	.value	0x4a1
	.string	"_ZN12wxObjectList22const_reverse_iteratormmEv"
	.long	0xf9da
	.byte	0x1
	.uleb128 0x1d
	.long	0xf9c9
	.byte	0x1
	.byte	0x0
	.uleb128 0x4c
	.long	0xe9f7
	.byte	0x1
	.long	.LASF99
	.byte	0x2
	.value	0x4a1
	.string	"_ZN12wxObjectList22const_reverse_iteratormmEi"
	.long	0xf9d5
	.byte	0x1
	.uleb128 0x1d
	.long	0xf9c9
	.byte	0x1
	.uleb128 0x18
	.long	0x9a
	.byte	0x0
	.uleb128 0x4c
	.long	0xea48
	.byte	0x1
	.long	.LASF101
	.byte	0x2
	.value	0x4a1
	.string	"_ZNK12wxObjectList22const_reverse_iteratorneERKS0_"
	.long	0xb5a
	.byte	0x1
	.uleb128 0x1d
	.long	0xf9cf
	.byte	0x1
	.uleb128 0x18
	.long	0xf9e0
	.byte	0x0
	.uleb128 0x50
	.byte	0x1
	.long	.LASF100
	.byte	0x2
	.value	0x4a1
	.string	"_ZNK12wxObjectList22const_reverse_iteratoreqERKS0_"
	.long	0xb5a
	.byte	0x1
	.uleb128 0x1d
	.long	0xf9cf
	.byte	0x1
	.uleb128 0x18
	.long	0xf9e0
	.byte	0x0
	.byte	0x0
	.uleb128 0x24
	.long	0x1b28b
	.byte	0x2
	.byte	0x23
	.uleb128 0x0
	.byte	0x1
	.uleb128 0x4b
	.long	0xeab9
	.byte	0x1
	.long	.LASF125
	.byte	0x2
	.value	0x4a1
	.byte	0x1
	.uleb128 0x1d
	.long	0x1c095
	.byte	0x1
	.uleb128 0x18
	.long	0xdeee
	.byte	0x0
	.uleb128 0x4b
	.long	0xead3
	.byte	0x1
	.long	.LASF125
	.byte	0x2
	.value	0x4a1
	.byte	0x1
	.uleb128 0x1d
	.long	0x1c095
	.byte	0x1
	.uleb128 0x18
	.long	0x1c09b
	.byte	0x0
	.uleb128 0x4b
	.long	0xeaf2
	.byte	0x1
	.long	.LASF125
	.byte	0x2
	.value	0x4a1
	.byte	0x1
	.uleb128 0x1d
	.long	0x1c095
	.byte	0x1
	.uleb128 0x18
	.long	0xa1
	.uleb128 0x18
	.long	0xf95b
	.byte	0x0
	.uleb128 0x4c
	.long	0xeb29
	.byte	0x1
	.long	.LASF5
	.byte	0x2
	.value	0x4a1
	.string	"_ZN12wxObjectListaSERKS_"
	.long	0x1c0a6
	.byte	0x1
	.uleb128 0x1d
	.long	0x1c095
	.byte	0x1
	.uleb128 0x18
	.long	0x1c09b
	.byte	0x0
	.uleb128 0x4c
	.long	0xeb60
	.byte	0x1
	.long	.LASF122
	.byte	0x2
	.value	0x4a1
	.string	"_ZNK12wxObjectList8GetFirstEv"
	.long	0xf955
	.byte	0x1
	.uleb128 0x1d
	.long	0x1c0ac
	.byte	0x1
	.byte	0x0
	.uleb128 0x3b
	.long	0xeb9a
	.byte	0x1
	.string	"GetLast"
	.byte	0x2
	.value	0x4a1
	.string	"_ZNK12wxObjectList7GetLastEv"
	.long	0xf955
	.byte	0x1
	.uleb128 0x1d
	.long	0x1c0ac
	.byte	0x1
	.byte	0x0
	.uleb128 0x3b
	.long	0xebd3
	.byte	0x1
	.string	"Item"
	.byte	0x2
	.value	0x4a1
	.string	"_ZNK12wxObjectList4ItemEj"
	.long	0xf955
	.byte	0x1
	.uleb128 0x1d
	.long	0x1c0ac
	.byte	0x1
	.uleb128 0x18
	.long	0xa1
	.byte	0x0
	.uleb128 0x4c
	.long	0xec08
	.byte	0x1
	.long	.LASF8
	.byte	0x2
	.value	0x4a1
	.string	"_ZNK12wxObjectListixEj"
	.long	0xd8d5
	.byte	0x1
	.uleb128 0x1d
	.long	0x1c0ac
	.byte	0x1
	.uleb128 0x18
	.long	0xa1
	.byte	0x0
	.uleb128 0x4c
	.long	0xec4a
	.byte	0x1
	.long	.LASF111
	.byte	0x2
	.value	0x4a1
	.string	"_ZN12wxObjectList6AppendEP8wxObject"
	.long	0xf955
	.byte	0x1
	.uleb128 0x1d
	.long	0x1c095
	.byte	0x1
	.uleb128 0x18
	.long	0xd8d5
	.byte	0x0
	.uleb128 0x4c
	.long	0xec8c
	.byte	0x1
	.long	.LASF130
	.byte	0x2
	.value	0x4a1
	.string	"_ZN12wxObjectList6InsertEP8wxObject"
	.long	0xf955
	.byte	0x1
	.uleb128 0x1d
	.long	0x1c095
	.byte	0x1
	.uleb128 0x18
	.long	0xd8d5
	.byte	0x0
	.uleb128 0x4c
	.long	0xecd4
	.byte	0x1
	.long	.LASF130
	.byte	0x2
	.value	0x4a1
	.string	"_ZN12wxObjectList6InsertEjP8wxObject"
	.long	0xf955
	.byte	0x1
	.uleb128 0x1d
	.long	0x1c095
	.byte	0x1
	.uleb128 0x18
	.long	0xa1
	.uleb128 0x18
	.long	0xd8d5
	.byte	0x0
	.uleb128 0x4c
	.long	0xed2e
	.byte	0x1
	.long	.LASF130
	.byte	0x2
	.value	0x4a1
	.string	"_ZN12wxObjectList6InsertEP16wxObjectListNodeP8wxObject"
	.long	0xf955
	.byte	0x1
	.uleb128 0x1d
	.long	0x1c095
	.byte	0x1
	.uleb128 0x18
	.long	0xf955
	.uleb128 0x18
	.long	0xd8d5
	.byte	0x0
	.uleb128 0x4c
	.long	0xed6e
	.byte	0x1
	.long	.LASF111
	.byte	0x2
	.value	0x4a1
	.string	"_ZN12wxObjectList6AppendElPv"
	.long	0xf955
	.byte	0x1
	.uleb128 0x1d
	.long	0x1c095
	.byte	0x1
	.uleb128 0x18
	.long	0x15c
	.uleb128 0x18
	.long	0x1a1
	.byte	0x0
	.uleb128 0x4c
	.long	0xedb0
	.byte	0x1
	.long	.LASF111
	.byte	0x2
	.value	0x4a1
	.string	"_ZN12wxObjectList6AppendEPKwPv"
	.long	0xf955
	.byte	0x1
	.uleb128 0x1d
	.long	0x1c095
	.byte	0x1
	.uleb128 0x18
	.long	0xb224
	.uleb128 0x18
	.long	0x1a1
	.byte	0x0
	.uleb128 0x3b
	.long	0xee07
	.byte	0x1
	.string	"DetachNode"
	.byte	0x2
	.value	0x4a1
	.string	"_ZN12wxObjectList10DetachNodeEP16wxObjectListNode"
	.long	0xf955
	.byte	0x1
	.uleb128 0x1d
	.long	0x1c095
	.byte	0x1
	.uleb128 0x18
	.long	0xf955
	.byte	0x0
	.uleb128 0x3b
	.long	0xee5e
	.byte	0x1
	.string	"DeleteNode"
	.byte	0x2
	.value	0x4a1
	.string	"_ZN12wxObjectList10DeleteNodeEP16wxObjectListNode"
	.long	0xb5a
	.byte	0x1
	.uleb128 0x1d
	.long	0x1c095
	.byte	0x1
	.uleb128 0x18
	.long	0xf955
	.byte	0x0
	.uleb128 0x3b
	.long	0xeeb0
	.byte	0x1
	.string	"DeleteObject"
	.byte	0x2
	.value	0x4a1
	.string	"_ZN12wxObjectList12DeleteObjectEP8wxObject"
	.long	0xb5a
	.byte	0x1
	.uleb128 0x1d
	.long	0x1c095
	.byte	0x1
	.uleb128 0x18
	.long	0xd8d5
	.byte	0x0
	.uleb128 0x4f
	.long	0xeef8
	.byte	0x1
	.string	"Erase"
	.byte	0x2
	.value	0x4a1
	.string	"_ZN12wxObjectList5EraseEP16wxObjectListNode"
	.byte	0x1
	.uleb128 0x1d
	.long	0x1c095
	.byte	0x1
	.uleb128 0x18
	.long	0xf955
	.byte	0x0
	.uleb128 0x3b
	.long	0xef3b
	.byte	0x1
	.string	"Find"
	.byte	0x2
	.value	0x4a1
	.string	"_ZNK12wxObjectList4FindEPK8wxObject"
	.long	0xf955
	.byte	0x1
	.uleb128 0x1d
	.long	0x1c0ac
	.byte	0x1
	.uleb128 0x18
	.long	0xe161
	.byte	0x0
	.uleb128 0x65
	.long	0xef87
	.byte	0x1
	.string	"Find"
	.byte	0x2
	.value	0x4a1
	.string	"_ZNK12wxObjectList4FindERK9wxListKey"
	.long	0xf955
	.byte	0x1
	.byte	0x2
	.byte	0x10
	.uleb128 0x6
	.long	0xe16c
	.byte	0x1
	.uleb128 0x1d
	.long	0x1c0ac
	.byte	0x1
	.uleb128 0x18
	.long	0x1b2ce
	.byte	0x0
	.uleb128 0x3b
	.long	0xefcf
	.byte	0x1
	.string	"IndexOf"
	.byte	0x2
	.value	0x4a1
	.string	"_ZNK12wxObjectList7IndexOfEP8wxObject"
	.long	0x9a
	.byte	0x1
	.uleb128 0x1d
	.long	0x1c0ac
	.byte	0x1
	.uleb128 0x18
	.long	0xd8d5
	.byte	0x0
	.uleb128 0x4f
	.long	0xf00c
	.byte	0x1
	.string	"Sort"
	.byte	0x2
	.value	0x4a1
	.string	"_ZN12wxObjectList4SortEPFiPKvS1_E"
	.byte	0x1
	.uleb128 0x1d
	.long	0x1c095
	.byte	0x1
	.uleb128 0x18
	.long	0xde9c
	.byte	0x0
	.uleb128 0x4f
	.long	0xf052
	.byte	0x1
	.string	"Sort"
	.byte	0x2
	.value	0x4a1
	.string	"_ZN12wxObjectList4SortEPFiPPK8wxObjectS3_E"
	.byte	0x1
	.uleb128 0x1d
	.long	0x1c095
	.byte	0x1
	.uleb128 0x18
	.long	0xe11e
	.byte	0x0
	.uleb128 0x66
	.long	0xf0cc
	.byte	0x1
	.string	"CreateNode"
	.byte	0x2
	.value	0x4a1
	.string	"_ZN12wxObjectList10CreateNodeEP10wxNodeBaseS1_PvRK9wxListKey"
	.long	0x1b2e1
	.byte	0x1
	.byte	0x2
	.byte	0x10
	.uleb128 0x5
	.long	0xe16c
	.byte	0x2
	.byte	0x1
	.uleb128 0x1d
	.long	0x1c095
	.byte	0x1
	.uleb128 0x18
	.long	0x1b2e1
	.uleb128 0x18
	.long	0x1b2e1
	.uleb128 0x18
	.long	0x1a1
	.uleb128 0x18
	.long	0x1b2ce
	.byte	0x0
	.uleb128 0x4b
	.long	0xf0eb
	.byte	0x1
	.long	.LASF125
	.byte	0x2
	.value	0x4a1
	.byte	0x1
	.uleb128 0x1d
	.long	0x1c095
	.byte	0x1
	.uleb128 0x18
	.long	0xa1
	.uleb128 0x18
	.long	0xf984
	.byte	0x0
	.uleb128 0x4b
	.long	0xf10a
	.byte	0x1
	.long	.LASF125
	.byte	0x2
	.value	0x4a1
	.byte	0x1
	.uleb128 0x1d
	.long	0x1c095
	.byte	0x1
	.uleb128 0x18
	.long	0xf9a6
	.uleb128 0x18
	.long	0xf9a6
	.byte	0x0
	.uleb128 0x4c
	.long	0xf13d
	.byte	0x1
	.long	.LASF42
	.byte	0x2
	.value	0x4a1
	.string	"_ZN12wxObjectList5beginEv"
	.long	0xe17d
	.byte	0x1
	.uleb128 0x1d
	.long	0x1c095
	.byte	0x1
	.byte	0x0
	.uleb128 0x4c
	.long	0xf171
	.byte	0x1
	.long	.LASF42
	.byte	0x2
	.value	0x4a1
	.string	"_ZNK12wxObjectList5beginEv"
	.long	0xe380
	.byte	0x1
	.uleb128 0x1d
	.long	0x1c0ac
	.byte	0x1
	.byte	0x0
	.uleb128 0x3b
	.long	0xf1a2
	.byte	0x1
	.string	"end"
	.byte	0x2
	.value	0x4a1
	.string	"_ZN12wxObjectList3endEv"
	.long	0xe17d
	.byte	0x1
	.uleb128 0x1d
	.long	0x1c095
	.byte	0x1
	.byte	0x0
	.uleb128 0x3b
	.long	0xf1d4
	.byte	0x1
	.string	"end"
	.byte	0x2
	.value	0x4a1
	.string	"_ZNK12wxObjectList3endEv"
	.long	0xe380
	.byte	0x1
	.uleb128 0x1d
	.long	0x1c0ac
	.byte	0x1
	.byte	0x0
	.uleb128 0x4c
	.long	0xf208
	.byte	0x1
	.long	.LASF43
	.byte	0x2
	.value	0x4a1
	.string	"_ZN12wxObjectList6rbeginEv"
	.long	0xe5ce
	.byte	0x1
	.uleb128 0x1d
	.long	0x1c095
	.byte	0x1
	.byte	0x0
	.uleb128 0x4c
	.long	0xf23d
	.byte	0x1
	.long	.LASF43
	.byte	0x2
	.value	0x4a1
	.string	"_ZNK12wxObjectList6rbeginEv"
	.long	0xe810
	.byte	0x1
	.uleb128 0x1d
	.long	0x1c0ac
	.byte	0x1
	.byte	0x0
	.uleb128 0x4c
	.long	0xf26f
	.byte	0x1
	.long	.LASF44
	.byte	0x2
	.value	0x4a1
	.string	"_ZN12wxObjectList4rendEv"
	.long	0xe5ce
	.byte	0x1
	.uleb128 0x1d
	.long	0x1c095
	.byte	0x1
	.byte	0x0
	.uleb128 0x4c
	.long	0xf2a2
	.byte	0x1
	.long	.LASF44
	.byte	0x2
	.value	0x4a1
	.string	"_ZNK12wxObjectList4rendEv"
	.long	0xe810
	.byte	0x1
	.uleb128 0x1d
	.long	0x1c0ac
	.byte	0x1
	.byte	0x0
	.uleb128 0x4d
	.long	0xf2e6
	.byte	0x1
	.long	.LASF47
	.byte	0x2
	.value	0x4a1
	.string	"_ZN12wxObjectList6resizeEjP8wxObject"
	.byte	0x1
	.uleb128 0x1d
	.long	0x1c095
	.byte	0x1
	.uleb128 0x18
	.long	0xa1
	.uleb128 0x18
	.long	0xd8d5
	.byte	0x0
	.uleb128 0x4c
	.long	0xf319
	.byte	0x1
	.long	.LASF45
	.byte	0x2
	.value	0x4a1
	.string	"_ZNK12wxObjectList4sizeEv"
	.long	0xa1
	.byte	0x1
	.uleb128 0x1d
	.long	0x1c0ac
	.byte	0x1
	.byte	0x0
	.uleb128 0x4c
	.long	0xf350
	.byte	0x1
	.long	.LASF21
	.byte	0x2
	.value	0x4a1
	.string	"_ZNK12wxObjectList8max_sizeEv"
	.long	0xa1
	.byte	0x1
	.uleb128 0x1d
	.long	0x1c0ac
	.byte	0x1
	.byte	0x0
	.uleb128 0x4c
	.long	0xf384
	.byte	0x1
	.long	.LASF51
	.byte	0x2
	.value	0x4a1
	.string	"_ZNK12wxObjectList5emptyEv"
	.long	0xb5a
	.byte	0x1
	.uleb128 0x1d
	.long	0x1c0ac
	.byte	0x1
	.byte	0x0
	.uleb128 0x4c
	.long	0xf3b7
	.byte	0x1
	.long	.LASF131
	.byte	0x2
	.value	0x4a1
	.string	"_ZN12wxObjectList5frontEv"
	.long	0xf961
	.byte	0x1
	.uleb128 0x1d
	.long	0x1c095
	.byte	0x1
	.byte	0x0
	.uleb128 0x4c
	.long	0xf3eb
	.byte	0x1
	.long	.LASF131
	.byte	0x2
	.value	0x4a1
	.string	"_ZNK12wxObjectList5frontEv"
	.long	0xf984
	.byte	0x1
	.uleb128 0x1d
	.long	0x1c0ac
	.byte	0x1
	.byte	0x0
	.uleb128 0x3b
	.long	0xf41e
	.byte	0x1
	.string	"back"
	.byte	0x2
	.value	0x4a1
	.string	"_ZN12wxObjectList4backEv"
	.long	0xf961
	.byte	0x1
	.uleb128 0x1d
	.long	0x1c095
	.byte	0x1
	.byte	0x0
	.uleb128 0x3b
	.long	0xf452
	.byte	0x1
	.string	"back"
	.byte	0x2
	.value	0x4a1
	.string	"_ZNK12wxObjectList4backEv"
	.long	0xf984
	.byte	0x1
	.uleb128 0x1d
	.long	0x1c0ac
	.byte	0x1
	.byte	0x0
	.uleb128 0x4f
	.long	0xf49e
	.byte	0x1
	.string	"push_front"
	.byte	0x2
	.value	0x4a1
	.string	"_ZN12wxObjectList10push_frontERKP8wxObject"
	.byte	0x1
	.uleb128 0x1d
	.long	0x1c095
	.byte	0x1
	.uleb128 0x18
	.long	0xf984
	.byte	0x0
	.uleb128 0x4f
	.long	0xf4d7
	.byte	0x1
	.string	"pop_front"
	.byte	0x2
	.value	0x4a1
	.string	"_ZN12wxObjectList9pop_frontEv"
	.byte	0x1
	.uleb128 0x1d
	.long	0x1c095
	.byte	0x1
	.byte	0x0
	.uleb128 0x4d
	.long	0xf51a
	.byte	0x1
	.long	.LASF54
	.byte	0x2
	.value	0x4a1
	.string	"_ZN12wxObjectList9push_backERKP8wxObject"
	.byte	0x1
	.uleb128 0x1d
	.long	0x1c095
	.byte	0x1
	.uleb128 0x18
	.long	0xf984
	.byte	0x0
	.uleb128 0x4d
	.long	0xf54c
	.byte	0x1
	.long	.LASF132
	.byte	0x2
	.value	0x4a1
	.string	"_ZN12wxObjectList8pop_backEv"
	.byte	0x1
	.uleb128 0x1d
	.long	0x1c095
	.byte	0x1
	.byte	0x0
	.uleb128 0x4d
	.long	0xf59e
	.byte	0x1
	.long	.LASF55
	.byte	0x2
	.value	0x4a1
	.string	"_ZN12wxObjectList6assignENS_14const_iteratorERKS0_"
	.byte	0x1
	.uleb128 0x1d
	.long	0x1c095
	.byte	0x1
	.uleb128 0x18
	.long	0xe380
	.uleb128 0x18
	.long	0xf9a6
	.byte	0x0
	.uleb128 0x4d
	.long	0xf5e4
	.byte	0x1
	.long	.LASF55
	.byte	0x2
	.value	0x4a1
	.string	"_ZN12wxObjectList6assignEjRKP8wxObject"
	.byte	0x1
	.uleb128 0x1d
	.long	0x1c095
	.byte	0x1
	.uleb128 0x18
	.long	0xa1
	.uleb128 0x18
	.long	0xf984
	.byte	0x0
	.uleb128 0x4c
	.long	0xf63c
	.byte	0x1
	.long	.LASF56
	.byte	0x2
	.value	0x4a1
	.string	"_ZN12wxObjectList6insertERKNS_8iteratorERKP8wxObject"
	.long	0xe17d
	.byte	0x1
	.uleb128 0x1d
	.long	0x1c095
	.byte	0x1
	.uleb128 0x18
	.long	0xf97e
	.uleb128 0x18
	.long	0xf984
	.byte	0x0
	.uleb128 0x4d
	.long	0xf696
	.byte	0x1
	.long	.LASF56
	.byte	0x2
	.value	0x4a1
	.string	"_ZN12wxObjectList6insertERKNS_8iteratorEjRKP8wxObject"
	.byte	0x1
	.uleb128 0x1d
	.long	0x1c095
	.byte	0x1
	.uleb128 0x18
	.long	0xf97e
	.uleb128 0x18
	.long	0xa1
	.uleb128 0x18
	.long	0xf984
	.byte	0x0
	.uleb128 0x4d
	.long	0xf6fc
	.byte	0x1
	.long	.LASF56
	.byte	0x2
	.value	0x4a1
	.string	"_ZN12wxObjectList6insertERKNS_8iteratorENS_14const_iteratorERKS3_"
	.byte	0x1
	.uleb128 0x1d
	.long	0x1c095
	.byte	0x1
	.uleb128 0x18
	.long	0xf97e
	.uleb128 0x18
	.long	0xe380
	.uleb128 0x18
	.long	0xf9a6
	.byte	0x0
	.uleb128 0x4c
	.long	0xf742
	.byte	0x1
	.long	.LASF57
	.byte	0x2
	.value	0x4a1
	.string	"_ZN12wxObjectList5eraseERKNS_8iteratorE"
	.long	0xe17d
	.byte	0x1
	.uleb128 0x1d
	.long	0x1c095
	.byte	0x1
	.uleb128 0x18
	.long	0xf97e
	.byte	0x0
	.uleb128 0x4c
	.long	0xf790
	.byte	0x1
	.long	.LASF57
	.byte	0x2
	.value	0x4a1
	.string	"_ZN12wxObjectList5eraseERKNS_8iteratorES2_"
	.long	0xe17d
	.byte	0x1
	.uleb128 0x1d
	.long	0x1c095
	.byte	0x1
	.uleb128 0x18
	.long	0xf97e
	.uleb128 0x18
	.long	0xf97e
	.byte	0x0
	.uleb128 0x4d
	.long	0xf7bf
	.byte	0x1
	.long	.LASF50
	.byte	0x2
	.value	0x4a1
	.string	"_ZN12wxObjectList5clearEv"
	.byte	0x1
	.uleb128 0x1d
	.long	0x1c095
	.byte	0x1
	.byte	0x0
	.uleb128 0x4d
	.long	0xf81a
	.byte	0x1
	.long	.LASF133
	.byte	0x2
	.value	0x4a1
	.string	"_ZN12wxObjectList6spliceERKNS_8iteratorERS_S2_S2_"
	.byte	0x1
	.uleb128 0x1d
	.long	0x1c095
	.byte	0x1
	.uleb128 0x18
	.long	0xf97e
	.uleb128 0x18
	.long	0x1c0a6
	.uleb128 0x18
	.long	0xf97e
	.uleb128 0x18
	.long	0xf97e
	.byte	0x0
	.uleb128 0x4d
	.long	0xf865
	.byte	0x1
	.long	.LASF133
	.byte	0x2
	.value	0x4a1
	.string	"_ZN12wxObjectList6spliceERKNS_8iteratorERS_"
	.byte	0x1
	.uleb128 0x1d
	.long	0x1c095
	.byte	0x1
	.uleb128 0x18
	.long	0xf97e
	.uleb128 0x18
	.long	0x1c0a6
	.byte	0x0
	.uleb128 0x4d
	.long	0xf8b8
	.byte	0x1
	.long	.LASF133
	.byte	0x2
	.value	0x4a1
	.string	"_ZN12wxObjectList6spliceERKNS_8iteratorERS_S2_"
	.byte	0x1
	.uleb128 0x1d
	.long	0x1c095
	.byte	0x1
	.uleb128 0x18
	.long	0xf97e
	.uleb128 0x18
	.long	0x1c0a6
	.uleb128 0x18
	.long	0xf97e
	.byte	0x0
	.uleb128 0x4f
	.long	0xf8fb
	.byte	0x1
	.string	"remove"
	.byte	0x2
	.value	0x4a1
	.string	"_ZN12wxObjectList6removeERKP8wxObject"
	.byte	0x1
	.uleb128 0x1d
	.long	0x1c095
	.byte	0x1
	.uleb128 0x18
	.long	0xf984
	.byte	0x0
	.uleb128 0x4f
	.long	0xf930
	.byte	0x1
	.string	"reverse"
	.byte	0x2
	.value	0x4a1
	.string	"_ZN12wxObjectList7reverseEv"
	.byte	0x1
	.uleb128 0x1d
	.long	0x1c095
	.byte	0x1
	.byte	0x0
	.uleb128 0x67
	.byte	0x1
	.string	"~wxObjectList"
	.byte	0x1
	.long	0xe16c
	.byte	0x1
